
jump.elf:     file format elf32-avr

Sections:
Idx Name          Size      VMA       LMA       File off  Algn
  0 .data         00000006  00800100  0000d11e  0000d21e  2**0
                  CONTENTS, ALLOC, LOAD, DATA
  1 .text         0000d11e  00000000  00000000  00000100  2**8
                  CONTENTS, ALLOC, LOAD, READONLY, CODE
  2 .bss          000009d9  00800106  00800106  0000d224  2**1
                  ALLOC
  3 .noinit       00000421  00800adf  00800adf  0000d300  2**8
                  CONTENTS, READONLY
  4 .comment      00000011  00000000  00000000  0000d721  2**0
                  CONTENTS, READONLY
  5 .note.gnu.avr.deviceinfo 0000003c  00000000  00000000  0000d734  2**2
                  CONTENTS, READONLY
  6 .debug_aranges 000004f0  00000000  00000000  0000d770  2**3
                  CONTENTS, READONLY, DEBUGGING
  7 .debug_info   00007c08  00000000  00000000  0000dc60  2**0
                  CONTENTS, READONLY, DEBUGGING
  8 .debug_abbrev 000013d6  00000000  00000000  00015868  2**0
                  CONTENTS, READONLY, DEBUGGING
  9 .debug_line   00005a34  00000000  00000000  00016c3e  2**0
                  CONTENTS, READONLY, DEBUGGING
 10 .debug_frame  00000c7c  00000000  00000000  0001c674  2**2
                  CONTENTS, READONLY, DEBUGGING
 11 .debug_str    00001571  00000000  00000000  0001d2f0  2**0
                  CONTENTS, READONLY, DEBUGGING
 12 .debug_loc    000052f7  00000000  00000000  0001e861  2**0
                  CONTENTS, READONLY, DEBUGGING
 13 .debug_ranges 00000580  00000000  00000000  00023b58  2**3
                  CONTENTS, READONLY, DEBUGGING

Disassembly of section .text:

00000000 <__vectors>:
       0:	0c 94 e9 3b 	jmp	0x77d2	; 0x77d2 <__ctors_end>
       4:	0c 94 54 3c 	jmp	0x78a8	; 0x78a8 <__bad_interrupt>
       8:	0c 94 54 3c 	jmp	0x78a8	; 0x78a8 <__bad_interrupt>
       c:	0c 94 54 3c 	jmp	0x78a8	; 0x78a8 <__bad_interrupt>
      10:	0c 94 54 3c 	jmp	0x78a8	; 0x78a8 <__bad_interrupt>
      14:	0c 94 54 3c 	jmp	0x78a8	; 0x78a8 <__bad_interrupt>
      18:	0c 94 54 3c 	jmp	0x78a8	; 0x78a8 <__bad_interrupt>
      1c:	0c 94 54 3c 	jmp	0x78a8	; 0x78a8 <__bad_interrupt>
      20:	0c 94 54 3c 	jmp	0x78a8	; 0x78a8 <__bad_interrupt>
      24:	0c 94 54 3c 	jmp	0x78a8	; 0x78a8 <__bad_interrupt>
      28:	0c 94 54 3c 	jmp	0x78a8	; 0x78a8 <__bad_interrupt>
      2c:	0c 94 54 3c 	jmp	0x78a8	; 0x78a8 <__bad_interrupt>
      30:	0c 94 54 3c 	jmp	0x78a8	; 0x78a8 <__bad_interrupt>
      34:	0c 94 9f 3f 	jmp	0x7f3e	; 0x7f3e <__vector_13>
      38:	0c 94 de 3f 	jmp	0x7fbc	; 0x7fbc <__vector_14>
      3c:	0c 94 0a 3d 	jmp	0x7a14	; 0x7a14 <__vector_15>
      40:	0c 94 54 3c 	jmp	0x78a8	; 0x78a8 <__bad_interrupt>
      44:	0c 94 54 3c 	jmp	0x78a8	; 0x78a8 <__bad_interrupt>
      48:	0c 94 54 3c 	jmp	0x78a8	; 0x78a8 <__bad_interrupt>
      4c:	0c 94 54 3c 	jmp	0x78a8	; 0x78a8 <__bad_interrupt>
      50:	0c 94 54 3c 	jmp	0x78a8	; 0x78a8 <__bad_interrupt>
      54:	0c 94 54 3c 	jmp	0x78a8	; 0x78a8 <__bad_interrupt>
      58:	0c 94 54 3c 	jmp	0x78a8	; 0x78a8 <__bad_interrupt>
      5c:	0c 94 54 3c 	jmp	0x78a8	; 0x78a8 <__bad_interrupt>
      60:	0c 94 54 3c 	jmp	0x78a8	; 0x78a8 <__bad_interrupt>
      64:	0c 94 54 3c 	jmp	0x78a8	; 0x78a8 <__bad_interrupt>
      68:	0c 94 54 3c 	jmp	0x78a8	; 0x78a8 <__bad_interrupt>
      6c:	0c 94 54 3c 	jmp	0x78a8	; 0x78a8 <__bad_interrupt>

00000070 <__trampolines_end>:
      70:	81 00       	.word	0x0081	; ????
      72:	45 00       	.word	0x0045	; ????
      74:	5d ff       	.word	0xff5d	; ????
      76:	5e 10       	cpse	r5, r14
      78:	27 ff       	sbrs	r18, 7
      7a:	2a d2       	rcall	.+1108   	; 0x4d0 <__LOCK_REGION_LENGTH__+0xd0>
      7c:	2b 7d       	andi	r18, 0xDB	; 219
      7e:	21 0c       	add	r2, r1
      80:	22 fb       	bst	r18, 2
      82:	85 00       	.word	0x0085	; ????
      84:	84 00       	.word	0x0084	; ????
      86:	89 03       	fmulsu	r16, r17
      88:	88 8d       	ldd	r24, Y+24	; 0x18
      8a:	81 09       	sbc	r24, r1
      8c:	6f 02       	muls	r22, r31
      8e:	44 42       	sbci	r20, 0x24	; 36
      90:	47 00       	.word	0x0047	; ????
      92:	45 01       	movw	r8, r10
      94:	b0 83       	st	Z, r27
      96:	b3 00       	.word	0x00b3	; ????
      98:	b1 01       	movw	r22, r2
      9a:	24 b9       	out	0x04, r18	; 4
      9c:	25 57       	subi	r18, 0x75	; 117
      9e:	8a 1d       	adc	r24, r10
      a0:	8b 03       	fmulsu	r16, r19

000000a2 <eeprom_format_table>:
      a2:	5a 55 01 20 01 01 00 38 08 00 00 00 00 00 00 00     ZU. ...8........
	...

000000c2 <patchCommands>:
      c2:	1d 42 20 42 7c 42 80 42 87 42 28 42 2d 42 32 42     .B B|B.B.B(B-B2B
      d2:	8f 42 35 42 38 42 3b 42 76 42 79 42 9f 42           .B5B8B;BvByB.B

000000e0 <fader>:
      e0:	00 40 88 91 d2 e4 ad b5 b6 be bf ff                 .@..........

000000ec <map_uzeboxlogo2>:
      ec:	05 03 00 13 14 15 16 17 18 19 1a 1b 1c 1d 1e 1f     ................
	...

000000fd <map_uzeboxlogo>:
      fd:	05 04 00 01 02 03 04 05 06 07 08 09 0a 0b 0c 0d     ................
     10d:	00 0e 0f 10 11 12                                   ......

00000113 <logo_tileset>:
	...
     16f:	00 00 00 49 00 00 00 00 00 49 52 52 00 00 00 49     ...I.....IRR...I
     17f:	52 53 1c 25 00 49 52 52 24 25 25 1b 52 52 5c 2d     RS.%.IRR$%%.RR\-
     18f:	2d 1c 12 12 00 00 00 00 00 00 00 00 00 00 00 00     -...............
     19f:	40 49 49 49 00 40 49 49 52 5b 5b 5b 4a 52 52 5b     @III.@IIR[[[JRR[
     1af:	1c 1c 13 12 5b 1c 24 1c 12 09 09 09 24 1b 12 09     ....[.$.....$...
     1bf:	09 09 09 0a 0a 0a 0a 0a 0a 0a 0a 13 0a 0a 12 0a     ................
     1cf:	0a 12 13 0a 00 00 00 00 00 00 00 00 92 52 52 52     .............RRR
     1df:	52 52 52 49 13 12 13 09 00 1c 1b 13 0a 12 12 40     RRRI...........@
     1ef:	1b 65 64 1c 09 0a 00 09 24 1b 1c 65 12 00 00 25     .ed.....$..e...%
     1ff:	1c 1c 1c 1c 01 00 25 24 1c 1c 1c 1c 00 24 25 24     ......%$.....$%$
     20f:	24 24 1c 1c 00 00 00 00 00 00 00 00 49 40 00 00     $$..........I@..
     21f:	00 00 00 00 52 49 49 00 00 00 00 00 1c 5b 4a 48     ....RII......[JH
     22f:	00 00 00 00 1c 25 52 49 00 00 00 00 65 24 64 49     .....%RI....e$dI
     23f:	00 00 00 00 65 25 64 49 00 00 00 00 6d 2e 5c 49     ....e%dI....m.\I
	...
     257:	00 00 40 52 00 00 00 00 00 49 52 5c 00 00 00 00     ..@R.....IR\....
     267:	53 52 24 25 00 00 00 53 52 25 25 25 00 00 4a 52     SR$%...SR%%%..JR
     277:	25 25 1b 00 00 00 5b 25 13 00 00 1b 00 5b 53 00     %%....[%.....[S.
     287:	0a 1c 37 37 09 5b 1c 65 7f 37 2e 2e 52 2e 2e 1c     ..77.[.e.7..R...
     297:	13 13 12 00 2e 25 1b 13 12 00 00 12 1c 1c 12 00     .....%..........
     2a7:	00 12 25 1c 12 00 00 12 2e 37 1c 13 00 13 2e 37     ..%......7.....7
     2b7:	36 1c 13 1b 37 37 2e 2e 25 13 1c 1c 2e 2e 2e 2e     6...77..%.......
     2c7:	1b 1c 1c 1c 6e 6e 6e 1c 1c 1c 1c 1c 09 13 13 12     ....nnn.........
     2d7:	12 13 13 00 13 13 13 13 13 1c 00 09 13 13 13 13     ................
     2e7:	1c 01 00 37 13 13 13 1c 13 00 2e 2e 1b 1b 1c 1c     ...7............
     2f7:	00 1c 77 2e 1b 1b 25 00 13 7f 25 1c 1c 1c 01 0a     ..w...%...%.....
     307:	37 24 1c 1c 1c 13 0a 2e 25 25 09 00 13 2e 24 25     7$......%%....$%
     317:	25 25 25 25 2e 25 25 25 25 25 25 25 25 25 2d 2e     %%%%.%%%%%%%%%-.
     327:	25 1b 1c 1c 2e 2e 25 1c 13 25 1b 13 25 1c 1c 1c     %.....%..%..%...
     337:	1c 01 09 52 1c 1c 13 00 01 1c 5b 5c 0a 00 01 65     ...R......[\...e
     347:	77 5c 1b 00 01 6e 7f 6e 52 1b 00 00 6d 1c 52 49     w\...n.nR...m.RI
     357:	00 00 00 00 1c 13 53 00 00 00 00 00 1c 52 4a 00     ......S......RJ.
     367:	00 00 00 00 5b 5b 00 00 00 00 00 00 5c 00 00 00     ....[[......\...
	...
     393:	13 5b 7f 77 6e 6e 6e 6e 13 65 77 76 6e 6e 6e 6e     .[.wnnnn.ewvnnnn
     3a3:	1b 65 77 76 76 76 6e 77 1b 5b bf 76 b6 76 76 76     .ewvvvnw.[.v.vvv
     3b3:	09 13 6d bf b7 b6 b7 65 00 1b 12 5c 76 bf 76 6d     ..m....e...\v.vm
     3c3:	00 00 12 1b 12 5b 5b 5c 00 00 00 00 09 0a 12 13     .....[[\........
     3d3:	6e 77 24 1c 1c 1c 1c 1c 77 25 1c 1c 1c 1c 24 25     nw$.....w%....$%
     3e3:	6e 1c 1c 1c 24 25 25 1b 1c 1c 24 25 25 13 00 00     n...$%%...$%%...
     3f3:	64 6d 6d 1b 00 09 6e bf 6d 5b 09 12 6e bf 6d 5b     dmm...n.m[..n.m[
     403:	5b 12 5b 64 5b 12 13 12 13 1b 12 12 09 01 00 00     [.[d[...........
     413:	1c 24 2e 1c 09 00 09 6e 25 24 01 00 09 76 7f 7f     .$.....n%$...v..
     423:	00 00 12 77 7f 7f 64 12 64 bf bf 77 5b 12 1b 09     ...w..d.d..w[...
     433:	bf 6d 5b 12 1b 09 00 00 12 13 1b 09 00 00 00 00     .m[.............
     443:	09 00 00 00 00 00 00 00 00 00 00 00 00 00 00 00     ................
     453:	7f 7f 53 13 13 00 00 00 64 12 1b 01 00 00 00 00     ..S.....d.......
     463:	1b 12 00 00 00 00 00 00 00 00 00 00 00 00 00 00     ................
	...
     49b:	26 00 00 00 26 00 26 26 2f 00 00 00 2f 00 00 00     &...&.&&/.../...
     4ab:	37 00 00 00 37 00 00 00 ff 00 00 00 ff 00 00 00     7...7...........
     4bb:	bf 00 00 00 bf 00 00 bf 37 00 00 37 00 00 37 00     ........7..7..7.
     4cb:	00 26 26 00 00 00 26 26 00 00 00 00 00 00 00 00     .&&...&&........
     4db:	26 26 26 00 26 26 26 26 00 00 2f 00 2f 00 00 00     &&&.&&&&.././...
     4eb:	00 37 00 00 37 00 00 00 ff 00 00 00 ff ff ff ff     .7..7...........
     4fb:	00 00 00 00 bf 00 00 00 00 00 00 00 37 00 00 00     ............7...
     50b:	26 26 26 00 26 26 26 26 00 00 00 00 00 00 00 00     &&&.&&&&........
     51b:	26 00 26 26 26 26 00 00 00 00 2f 00 00 00 2f 00     &.&&&&..../.../.
     52b:	00 00 37 00 00 00 37 00 00 00 ff ff ff ff 00 00     ..7...7.........
     53b:	00 00 bf 00 00 00 bf 00 00 00 37 00 00 00 37 00     ..........7...7.
     54b:	26 00 26 26 26 26 00 00 00 00 00 00 00 00 00 00     &.&&&&..........
     55b:	00 00 26 26 26 00 26 00 00 2f 00 00 2f 00 2f 00     ..&&&.&../.././.
     56b:	37 00 00 00 37 00 00 37 ff 00 00 00 ff 00 00 00     7...7..7........
     57b:	bf 00 00 00 bf 00 00 bf 37 00 00 37 00 00 37 00     ........7..7..7.
     58b:	26 26 26 00 00 00 26 00 00 00 00 00 00 00 00 00     &&&...&.........
     59b:	00 00 26 00 00 00 00 00 00 00 2f 00 00 00 00 00     ..&......./.....
     5ab:	00 37 00 00 00 00 00 00 ff 00 00 00 00 00 00 00     .7..............
     5bb:	00 bf 00 00 00 00 00 00 00 00 37 00 00 00 00 00     ..........7.....
     5cb:	00 00 26 00 00 00 00 00 00 00 00 00 00 00 00 00     ..&.............
	...
     5ef:	00 00 00 e4 00 00 00 00 09 9b ed f6 00 00 00 9b     ................
     5ff:	a4 ad bf bf 00 52 9b a4 76 7f 7f b7 5b 9b 6d 77     .....R..v...[.mw
     60f:	7f 76 6e b7 00 00 00 00 00 00 00 00 00 00 00 00     .vn.............
     61f:	5b b6 f6 f6 00 5b f6 ff ff ff ff bf f6 ff ff ff     [....[..........
     62f:	ff bf bf ae ff bf ff ff ff b7 ad 65 bf bf ff ff     ...........e....
     63f:	b7 b6 ad 65 b7 bf ff ff bf b7 ae 6e b7 bf ff ff     ...e.......n....
     64f:	bf b7 b7 65 00 00 00 00 00 00 00 00 f6 f6 ed ed     ...e............
     65f:	ad a4 a4 9b b6 6d 6d 5c 52 6e 65 64 65 65 65 52     .....mm\RnedeeeR
     66f:	65 76 6d 25 5c 5c 52 53 6e 24 65 6e 65 52 52 6e     evm%\\RSn$eneRRn
     67f:	25 25 24 25 5b 52 77 2d 25 25 25 24 52 6e 6e 2d     %%$%[Rw-%%%$Rnn-
     68f:	25 25 25 25 00 00 00 00 00 00 00 00 9b 49 00 00     %%%%.........I..
     69f:	00 00 00 00 a4 9b 92 00 00 00 00 00 25 64 93 49     ............%d.I
     6af:	00 00 00 00 65 2e 9b 52 00 00 00 00 6d 25 65 52     ....e..R....m%eR
     6bf:	00 00 00 00 6d 2d 65 52 00 00 00 00 6e 2e 64 52     ....m-eR....n.dR
	...
     6d7:	00 00 49 5b 00 00 00 00 00 4a 5b 65 00 00 00 00     ..I[.....J[e....
     6e7:	5b 9b 6d 2d 00 00 00 5b 5b 2d 2e 25 00 00 52 5b     [.m-...[[-.%..R[
     6f7:	2e 2e 1c 09 00 01 5b 2d 1c 01 09 1c 00 5c 5b 01     ......[-.....\[.
     707:	4a 65 77 7f 4a 5b 1c 6e 7f 77 77 76 9b 77 77 6d     Jew.J[.n.wwv.wwm
     717:	65 6e 6e a4 77 6e 65 65 65 5b a4 b7 25 25 5c 52     enn.wneee[..%%\R
     727:	52 6d bf bf 13 09 49 64 7f bf bf bf 09 5c 7f 7f     Rm....Id.....\..
     737:	bf bf b7 bf 7f 7f 77 7f 7f b7 bf bf 77 77 7f 7f     ......w.....ww..
     747:	6e b7 bf bf 77 7f 7f 6e 77 bf bf bf b6 ff ff ff     n...w..nw.......
     757:	bf bf b7 5b bf ff ff ff bf bf a4 64 bf ff ff ff     ...[.......d....
     767:	bf ad a4 7f bf ff ff ff bf a4 bf 7f ff ff ff bf     ................
     777:	ad bf bf bf ff ff ff b6 bf bf bf 77 ff ff f7 bf     ...........w....
     787:	bf bf 77 77 ff ff ff bf bf bf 64 52 6d 7f 6e 2e     ..ww......dRm.n.
     797:	2d 2d 25 6e 7f 76 6e 6e 6e 2e 25 65 77 77 77 76     --%n.vnnn.%ewwwv
     7a7:	2e 1c 25 24 7f 77 6e 25 1c 25 1c 1b 77 65 25 25     ..%$.wn%.%..we%%
     7b7:	1c 09 0a 5b 6e 6e 1c 09 49 25 64 64 5b 49 4a 6e     ...[nn..I%dd[IJn
     7c7:	7f 64 5c 00 53 77 bf 77 5b 5c 00 00 6e 25 5b 4a     .d\.Sw.w[\..n%[J
     7d7:	00 00 00 00 1c 1b 5b 00 00 00 00 00 24 5b 53 00     ......[.....$[S.
     7e7:	00 00 00 00 5b 5c 00 00 00 00 00 00 64 00 00 00     ....[\......d...
	...
     813:	5b 5c 7f bf 77 76 77 77 5c 6d 7f b7 77 77 77 77     [\..wvww\m..wwww
     823:	5c 6d 7f bf 77 77 77 bf 5c 64 bf bf bf bf bf 7f     \m..www.\d......
     833:	0a 5c 6e bf bf bf bf 76 00 65 64 6d bf bf bf bf     .\n....v.edm....
     843:	00 00 5b 6d 64 6d ad b6 00 00 00 00 12 5b 64 6d     ..[mdm.......[dm
     853:	77 7f 6e 6e 77 bf bf bf 7f 76 6d 76 77 bf bf bf     w.nnw....vmvw...
     863:	77 6d 6e 76 7f bf bf bf 6d 6e 76 7f bf b7 ad f6     wmnv....mnv.....
     873:	76 bf bf 76 a4 ad ff ff bf b6 64 ad ff ff ff ff     v..v......d.....
     883:	b6 ad bf ff ff ff ff f6 ad b6 ad 64 5b 52 00 00     ...........d[R..
     893:	ff ff bf bf ad 5b 64 bf ff ff b6 ad ad bf ff bf     .....[d.........
     8a3:	ff f6 ff ff ff ff bf 64 ff ff ff ff bf b6 76 5b     .......d......v[
     8b3:	ff ff ff bf bf 5b 00 00 ff ff ff 5c 00 00 00 00     .....[.....\....
     8c3:	a4 00 00 00 00 00 00 00 00 00 00 00 00 00 00 00     ................
     8d3:	bf bf 64 5c 5c 00 00 00 6e 5c 65 49 00 00 00 00     ..d\\...n\eI....
     8e3:	6d 5b 00 00 00 00 00 00 00 00 00 00 00 00 00 00     m[..............
	...

00000913 <logoInitPatches>:
     913:	00 00 00 1c 09 00 00 00 00                          .........

0000091c <initPatch>:
     91c:	00 02 08 00 08 55 04 08 5a 00 00 f8 00 09 90 00     .....U..Z.......
     92c:	0a 1e 32 05 00 00 ff                                ..2....

00000933 <level9>:
	...
     93b:	00 00 23 24 00 00 00 00 00 00 00 00 00 23 24 00     ..#$.........#$.
	...
     983:	00 00 23 24 00 00 00 00 00 00 00 23 24 00 00 00     ..#$.......#$...
     993:	00 00 00 00 25 26 00 00 00 00 00 00 00 00 00 25     ....%&.........%
     9a3:	26 00 00 00 00 00 00 00 00 00 23 24 00 00 00 00     &.........#$....
	...
     9c3:	00 00 00 23 24 00 00 00 00 00 00 00 00 00 00 00     ...#$...........
	...
     9df:	25 26 00 00 00 00 00 00 00 25 25 00 00 00 00 00     %&.......%%.....
	...
     a07:	25 26 00 00 00 00 00 00 00 00 00 00 23 24 00 00     %&..........#$..
	...
     a1f:	00 25 26 00 00 00 00 00 00 00 00 00 00 00 00 00     .%&.............
	...
     a6b:	00 00 25 26 03 03 03 00 00 00 00 00 00 00 00 00     ..%&............
	...
     ac3:	00 03 00 00 00 00 00 00 00 00 00 00 00 00 00 00     ................
	...
     b67:	00 00 29 00 00 00 00 00 00 00 00 00 00 00 00 00     ..).............
     b77:	00 00 00 00 00 00 02 02 02 00 00 00 00 00 00 00     ................
     b87:	00 00 00 00 00 03 03 00 00 00 00 00 00 00 00 00     ................
	...
     b9f:	00 29 00 00 00 00 00 00 00 00 00 00 00 00 00 00     .)..............
	...
     bc3:	29 00 00 00 00 00 00 00 0a 00 00 00 00 00 00 00     )...............
     bd3:	32 00 00 00 00 00 00 00 00 00 00 00 00 00 00 00     2...............
	...
     bf7:	00 00 29 29 29 00 00 00 00 00 00 00 00 00 00 00     ..)))...........
	...
     c1b:	00 00 29 00 00 00 00 00 00 00 07 00 00 00 00 02     ..).............
     c2b:	02 02 02 02 00 00 00 00 00 00 00 00 00 00 00 00     ................
	...
     c4f:	00 00 00 29 29 29 29 29 00 00 00 00 00 00 00 00     ...)))))........
	...
     c67:	04 00 00 00 00 00 00 00 00 00 00 00 00 00 00 00     ................
     c77:	27 00 00 00 00 00 00 0a 07 00 00 00 00 00 00 00     '...............
	...
     cab:	00 00 29 29 29 00 00 00 00 00 00 00 00 00 00 00     ..)))...........
     cbb:	00 00 00 00 00 04 04 00 00 29 00 00 29 00 00 29     .........)..)..)
	...
     cd7:	00 07 07 00 00 00 00 00 00 00 00 00 00 00 00 00     ................
     ce7:	1f 21 00 00 00 00 00 00 00 00 00 27 27 00 00 27     .!.........''..'
     cf7:	27 00 00 00 00 00 00 00 00 33 00 00 00 00 00 00     '........3......
     d07:	00 29 00 00 00 00 00 00 19 1a 00 00 00 00 00 00     .)..............
     d17:	00 00 04 04 04 00 00 00 00 00 00 00 00 00 00 00     ................
     d27:	00 00 00 1d 1d 1d 00 00 00 00 0a 07 07 1e 1e 00     ................
	...
     d3f:	00 00 20 22 00 00 00 00 00 00 00 00 32 00 00 00     .. "........2...
	...
     d57:	07 07 07 07 00 00 00 00 00 00 00 07 00 00 00 00     ................
     d67:	00 00 1b 1c 01 01 01 01 01 01 01 01 01 01 05 00     ................
     d77:	00 08 00 00 08 00 00 08 00 00 06 01 01 01 01 01     ................
     d87:	01 01 01 01 01 01 01 01 01 01 01 01 01 01 01 01     ................
     d97:	01 01 01 01 01 01 01 01 01 01 01 01 01 01 05 00     ................
     da7:	00 00 00 00 00 00 06 01 01 01 01 01 01 01 01 01     ................
     db7:	01 01 01 01 01 01 01 01 01 01 01 01 01 01 00 00     ................
	...

00000e1f <level8>:
	...
     e27:	00 00 23 24 00 00 00 00 00 00 00 00 00 23 24 00     ..#$.........#$.
	...
     e6f:	00 00 23 24 00 00 00 00 00 00 00 23 24 00 00 00     ..#$.......#$...
     e7f:	00 00 00 00 25 26 00 00 00 00 00 00 00 00 00 25     ....%&.........%
     e8f:	26 00 00 00 00 00 00 00 00 00 23 24 00 00 00 00     &.........#$....
	...
     eaf:	00 00 00 23 24 00 00 00 00 00 00 00 00 00 00 00     ...#$...........
	...
     ecb:	25 26 00 00 00 00 00 00 00 25 26 00 23 24 00 00     %&.......%&.#$..
	...
     ef3:	25 26 00 00 00 00 00 00 00 00 00 00 23 24 00 00     %&..........#$..
	...
     f0b:	00 25 26 00 00 00 00 00 00 00 00 00 00 23 24 00     .%&..........#$.
	...
     f2f:	00 00 25 26 00 00 00 00 00 00 00 00 00 00 00 00     ..%&............
     f3f:	29 29 00 00 00 00 00 00 00 00 00 00 00 00 00 00     ))..............
	...
     f57:	00 00 25 26 00 00 00 00 00 00 00 00 00 00 00 00     ..%&............
	...
     f6f:	00 00 00 25 26 00 00 00 00 00 00 00 00 00 00 00     ...%&...........
	...
     f97:	00 00 29 29 00 00 00 00 00 00 00 00 00 00 00 00     ..))............
	...
     faf:	00 00 32 00 00 00 00 00 00 00 00 00 00 00 00 00     ..2.............
	...
     fd3:	00 00 00 04 00 00 00 00 00 00 00 00 00 00 00 00     ................
	...
     fef:	00 00 00 33 00 00 00 00 00 00 00 00 00 00 00 00     ...3............
     fff:	00 00 00 00 00 00 02 02 02 02 02 02 02 00 00 00     ................
	...
    101f:	02 00 02 00 00 00 00 00 00 00 00 00 00 00 00 00     ................
    102f:	00 04 00 00 00 00 00 00 00 00 00 00 00 00 00 00     ................
	...
    1047:	00 00 07 07 07 07 00 00 00 09 00 00 00 00 00 00     ................
	...
    1077:	02 00 00 00 00 00 00 00 00 00 00 00 00 00 00 00     ................
    1087:	00 00 04 04 00 00 00 00 00 00 00 00 00 00 00 00     ................
	...
    109f:	00 00 09 00 00 00 00 00 00 00 00 00 00 00 00 00     ................
	...
    10cf:	02 00 00 00 00 00 00 00 00 00 00 00 00 00 00 00     ................
    10df:	00 00 00 00 04 04 00 00 00 00 00 00 00 00 00 00     ................
    10ef:	00 00 00 00 29 00 00 00 00 00 00 00 00 00 00 00     ....)...........
    10ff:	00 00 00 00 00 00 00 09 00 00 00 00 00 00 00 00     ................
    110f:	00 00 00 00 00 00 00 29 00 00 00 00 00 00 00 00     .......)........
	...
    112b:	00 00 04 00 04 00 00 00 00 00 32 00 00 00 00 00     ..........2.....
    113b:	00 04 04 04 00 00 00 27 27 27 00 00 00 00 00 00     .......'''......
    114b:	00 00 29 00 00 00 00 00 09 00 00 00 00 00 00 00     ..).............
	...
    116b:	00 04 00 00 29 04 29 00 00 04 00 00 00 00 00 29     ....).)........)
    117b:	00 00 29 00 00 00 00 00 00 00 04 00 04 00 04 00     ..).............
    118b:	00 00 03 03 03 00 00 00 00 00 00 04 04 04 00 00     ................
	...
    11a7:	29 00 00 00 00 00 00 00 00 00 00 00 00 00 00 00     )...............
    11b7:	00 00 00 00 00 09 00 00 00 00 00 00 00 00 00 04     ................
    11c7:	00 00 04 04 04 00 00 04 00 00 00 00 00 00 00 00     ................
    11d7:	00 00 00 00 00 00 04 00 04 00 04 00 04 00 00 00     ................
	...
    11ef:	04 04 04 04 00 00 00 00 00 00 00 00 19 1a 00 00     ................
    11ff:	00 00 00 00 07 07 07 00 00 00 00 00 00 00 00 00     ................
	...
    1217:	00 1e 00 00 00 00 00 00 00 04 00 00 00 04 00 00     ................
    1227:	00 04 00 00 00 00 1d 00 00 1d 00 00 1d 00 00 00     ................
    1237:	04 00 04 00 04 00 04 00 00 00 00 00 00 00 00 00     ................
    1247:	00 00 04 04 04 04 00 00 00 00 00 00 00 00 1b 1c     ................
    1257:	01 01 01 01 05 00 00 00 00 00 00 00 00 00 00 00     ................
	...
    126f:	00 00 00 06 01 01 01 01 01 01 01 05 00 00 00 00     ................
    127f:	00 00 00 06 01 01 01 01 01 01 01 01 01 01 01 01     ................
    128f:	01 01 01 01 01 01 01 01 01 01 01 01 01 01 01 01     ................
    129f:	01 01 01 01 01 01 01 05 00 00 00 00 00 00 00 00     ................
    12af:	06 01 00 00 00 00 00 00 00 00 00 00 00 00 00 00     ................
	...

0000130b <level7>:
	...
    1313:	00 00 23 24 00 00 00 00 00 00 00 00 00 23 24 00     ..#$.........#$.
	...
    135b:	00 00 23 24 00 00 00 00 00 00 00 23 24 00 00 00     ..#$.......#$...
    136b:	00 00 00 00 25 26 00 00 00 00 00 00 00 00 00 25     ....%&.........%
    137b:	26 00 00 00 00 00 00 00 00 00 23 24 00 00 00 00     &.........#$....
	...
    139b:	00 00 00 23 24 00 00 00 00 00 00 00 00 00 00 00     ...#$...........
	...
    13b7:	25 26 00 00 00 00 00 00 00 25 26 00 00 00 00 00     %&.......%&.....
	...
    13d3:	03 03 00 00 00 00 00 00 00 00 00 00 25 26 00 00     ............%&..
	...
    13eb:	23 24 00 00 00 00 00 00 00 00 00 00 00 25 26 00     #$...........%&.
	...
    1443:	00 00 25 26 00 00 00 00 00 00 00 00 00 00 00 00     ..%&............
	...
    1487:	00 00 32 00 00 00 00 00 00 00 00 00 00 00 00 00     ..2.............
	...
    14db:	00 29 00 00 00 02 02 02 02 00 00 00 00 00 00 00     .)..............
    14eb:	00 00 00 03 03 03 03 03 00 00 00 00 00 00 00 00     ................
	...
    1507:	00 03 29 03 00 00 00 00 00 00 00 00 00 00 00 00     ..).............
	...
    1533:	00 00 27 27 27 00 00 00 00 00 00 00 00 00 00 00     ..'''...........
	...
    156b:	00 32 00 00 27 00 00 00 00 00 00 00 00 00 00 00     .2..'...........
	...
    15bb:	00 29 29 29 00 00 00 00 00 00 0b 0c 00 00 00 00     .)))............
    15cb:	00 0b 0c 00 00 00 00 00 00 00 00 00 00 00 00 00     ................
	...
    15e3:	00 00 27 27 00 00 00 00 00 00 00 00 00 00 00 00     ..''............
    15f3:	00 0b 0c 00 00 00 00 00 00 02 02 03 02 02 00 00     ................
	...
    161f:	0f 10 00 00 00 00 00 0f 10 00 00 00 00 00 00 00     ................
	...
    163b:	29 00 00 00 00 00 00 00 00 00 00 00 00 00 00 00     )...............
    164b:	00 00 00 0f 10 00 00 00 00 00 00 00 00 00 00 00     ................
	...
    166f:	00 03 29 03 00 00 00 00 00 09 0f 10 00 00 00 00     ..).............
    167f:	00 0f 10 00 00 00 00 00 00 00 00 00 00 00 00 00     ................
    168f:	00 00 00 00 00 27 27 27 00 00 00 00 00 00 00 00     .....'''........
	...
    16a7:	00 0f 10 00 00 00 00 00 00 00 00 00 00 00 1f 21     ...............!
	...
    16bf:	00 1f 21 00 00 00 00 00 00 00 00 00 00 00 00 00     ..!.............
    16cf:	00 00 07 09 0f 10 00 00 00 00 00 0f 10 00 00 00     ................
    16df:	00 15 16 00 00 00 00 00 19 1a 00 00 00 00 00 00     ................
	...
    16ff:	00 00 00 0d 0e 00 00 00 00 00 00 00 00 00 00 00     ................
    170f:	20 22 00 00 00 00 00 00 00 00 00 20 22 00 00 00      "......... "...
	...
    1727:	00 00 00 0a 07 09 0d 0e 00 00 00 00 00 0d 0e 00     ................
    1737:	00 00 00 17 18 00 00 00 00 00 1b 1c 01 01 01 05     ................
	...
    175b:	06 01 01 01 01 01 01 01 01 01 01 01 01 01 01 01     ................
    176b:	01 01 05 00 06 01 01 01 01 01 01 01 05 00 06 01     ................
    177b:	01 01 01 01 01 01 01 01 01 01 01 01 01 05 00 00     ................
    178b:	00 00 00 06 01 01 01 01 01 01 01 01 01 01 01 01     ................
    179b:	01 01 00 00 00 00 00 00 00 00 00 00 00 00 00 00     ................
	...

000017f7 <level6>:
	...
    180b:	00 23 24 00 00 00 00 00 00 00 00 00 00 00 00 00     .#$.............
	...
    1847:	00 00 23 24 00 00 00 00 00 00 00 00 23 24 00 00     ..#$........#$..
	...
    1863:	00 00 00 25 26 00 00 00 00 00 00 00 00 00 23 24     ...%&.........#$
	...
    1887:	00 00 00 23 24 00 00 00 00 00 00 00 00 00 00 00     ...#$...........
	...
    18a3:	25 26 00 00 00 00 00 00 00 00 25 26 00 00 00 00     %&........%&....
    18b3:	23 24 00 00 00 00 00 00 00 00 00 00 00 00 00 00     #$..............
	...
    18cb:	25 26 00 00 00 00 00 00 00 00 00 00 23 24 00 00     %&..........#$..
	...
    18e3:	00 25 26 00 00 00 00 00 00 00 00 00 00 00 00 00     .%&.............
	...
    1903:	19 1a 00 00 00 00 00 00 00 00 25 26 00 00 00 00     ..........%&....
    1913:	00 03 03 02 00 00 00 00 00 00 00 00 00 00 00 00     ................
	...
    192f:	00 00 25 26 00 00 00 00 00 00 00 00 00 00 00 03     ..%&............
    193f:	03 03 00 00 00 00 00 00 00 00 00 00 00 00 00 00     ................
	...
    195b:	00 00 1b 1c 00 00 00 00 00 00 00 00 00 00 00 00     ................
	...
    19b3:	00 00 00 32 0b 0c 00 00 00 00 00 00 00 00 00 00     ...2............
	...
    19e3:	00 02 00 00 00 00 00 00 00 00 00 00 00 00 00 00     ................
	...
    19ff:	32 00 00 00 00 00 00 00 00 00 00 00 00 00 00 00     2...............
    1a0f:	00 04 0f 10 00 00 00 00 00 00 00 00 00 00 00 00     ................
    1a1f:	00 00 00 03 02 00 00 00 00 00 00 00 00 00 00 00     ................
	...
    1a4b:	00 03 03 03 00 00 00 00 00 00 00 00 00 00 04 00     ................
	...
    1a67:	00 00 04 04 0f 10 00 00 00 00 00 00 00 00 00 00     ................
	...
    1a8b:	00 04 00 00 00 00 00 00 00 00 02 02 00 00 00 00     ................
    1a9b:	02 00 00 00 00 00 00 00 00 00 00 00 00 00 00 00     ................
	...
    1ab3:	04 00 00 00 00 29 00 00 00 00 00 00 00 00 00 04     .....)..........
    1ac3:	04 04 0f 10 00 00 00 00 00 00 00 00 00 00 00 00     ................
	...
    1ae3:	00 00 00 04 00 00 00 00 00 00 00 00 00 00 00 00     ................
	...
    1b0b:	00 04 04 00 00 00 29 00 29 00 00 00 00 00 00 00     ......).).......
    1b1b:	04 04 04 04 0f 10 00 00 00 00 00 00 29 29 00 00     ............))..
    1b2b:	00 00 00 00 00 03 00 00 00 00 00 00 00 00 00 00     ................
    1b3b:	00 00 00 04 00 04 00 00 00 00 02 02 02 00 00 00     ................
	...
    1b57:	00 00 00 03 03 03 00 00 00 00 00 00 00 00 00 04     ................
    1b67:	04 00 00 29 00 29 00 29 00 00 00 00 00 04 04 04     ...).).)........
    1b77:	04 04 0f 10 00 00 00 00 15 16 04 04 1f 21 00 00     .............!..
	...
    1b8f:	00 1f 21 00 00 15 16 00 00 04 00 04 00 00 00 00     ..!.............
	...
    1bab:	02 00 00 00 00 00 00 00 00 00 00 00 00 00 00 00     ................
    1bbb:	15 16 00 00 04 04 04 00 00 00 29 00 29 00 00 00     ..........).)...
    1bcb:	00 00 04 04 04 04 04 04 0f 10 00 00 00 00 17 18     ................
    1bdb:	04 04 20 22 00 00 00 00 00 00 00 00 00 00 32 20     .. "..........2 
    1beb:	22 00 00 17 18 04 00 04 00 04 00 00 00 00 00 00     "...............
	...
    1c13:	00 00 17 18 00 00 04 04 04 00 00 00 00 29 00 00     .............)..
    1c23:	00 00 00 04 04 04 04 04 04 04 0d 0e 01 01 01 01     ................
    1c33:	01 01 01 01 01 01 01 01 01 01 01 01 01 01 01 01     ................
    1c43:	01 01 01 01 01 01 01 01 01 01 01 01 01 01 01 01     ................
    1c53:	01 01 01 01 05 00 00 00 00 00 00 00 00 00 06 05     ................
    1c63:	00 06 01 01 01 01 01 01 01 01 01 01 01 01 01 01     ................
    1c73:	01 01 01 05 00 00 00 08 00 00 06 01 01 01 01 01     ................
    1c83:	01 01 01 01 01 01 00 00 00 00 00 00 00 00 00 00     ................
	...

00001ce3 <level5>:
	...
    1cf7:	00 23 24 00 00 00 00 00 00 00 00 00 00 00 00 00     .#$.............
	...
    1d33:	00 00 23 24 00 00 00 00 00 00 00 00 23 24 00 00     ..#$........#$..
	...
    1d4f:	00 00 00 25 26 00 00 00 00 00 00 00 00 00 23 24     ...%&.........#$
	...
    1d73:	00 00 00 23 24 00 00 00 00 00 00 00 00 00 00 00     ...#$...........
	...
    1d8f:	25 26 00 00 00 00 00 00 00 00 25 26 00 00 00 00     %&........%&....
    1d9f:	23 24 00 00 00 00 00 00 00 00 00 00 00 00 00 00     #$..............
	...
    1db7:	25 26 00 00 00 00 00 00 00 00 00 00 23 24 00 00     %&..........#$..
	...
    1dcf:	00 25 26 00 00 00 00 00 00 00 00 00 00 00 00 00     .%&.............
	...
    1df7:	00 00 25 26 00 00 00 00 00 00 00 00 00 00 00 00     ..%&............
	...
    1e1b:	00 00 25 26 00 00 00 00 00 00 00 00 00 00 00 00     ..%&............
	...
    1e47:	23 24 00 00 00 00 00 00 00 00 00 00 00 00 00 00     #$..............
	...
    1e9f:	00 00 25 26 00 00 00 00 00 00 00 00 00 00 00 00     ..%&............
    1eaf:	00 00 00 00 00 00 03 00 00 00 00 00 00 00 00 03     ................
    1ebf:	03 03 00 00 00 00 00 00 00 00 00 00 00 00 00 00     ................
	...
    1eeb:	32 00 00 00 00 00 00 00 00 00 00 00 00 00 00 00     2...............
	...
    1f23:	00 00 00 29 29 00 00 00 00 00 00 00 00 00 00 00     ...))...........
	...
    1f43:	00 00 04 00 00 00 00 00 00 29 00 00 00 00 00 00     .........)......
	...
    1f67:	00 00 00 32 00 00 00 00 00 00 00 00 00 00 00 00     ...2............
	...
    1f7f:	00 02 02 00 00 00 00 00 00 00 00 00 00 00 00 04     ................
	...
    1f9b:	00 00 00 04 04 00 00 00 00 00 29 00 00 00 00 00     ..........).....
	...
    1fbf:	00 00 00 02 02 02 00 00 00 00 00 00 00 02 02 02     ................
	...
    1fdb:	00 00 04 00 00 00 00 00 00 00 04 00 00 04 00 00     ................
    1feb:	00 00 32 00 00 00 00 00 00 00 00 00 04 04 04 00     ..2.............
    1ffb:	00 00 00 29 00 00 00 00 00 00 00 00 00 00 00 00     ...)............
    200b:	00 00 00 00 00 29 00 00 00 29 00 00 00 00 00 00     .....)...)......
	...
    2033:	04 00 00 00 04 00 00 00 00 00 00 00 00 00 00 04     ................
    2043:	00 00 00 03 02 03 03 02 00 00 00 00 00 04 04 04     ................
    2053:	04 00 00 00 29 00 00 00 00 00 00 00 00 00 00 00     ....)...........
    2063:	00 00 00 00 00 00 00 04 00 32 00 04 00 00 00 00     .........2......
    2073:	00 04 00 00 00 00 00 00 04 1f 21 00 00 15 16 00     ..........!.....
	...
    208b:	00 00 04 00 00 00 04 00 02 00 00 04 00 00 00 00     ................
    209b:	00 04 00 00 00 00 00 00 00 00 00 00 00 00 00 04     ................
    20ab:	04 04 04 00 00 00 00 00 00 00 00 00 00 00 00 00     ................
    20bb:	00 00 00 00 19 1a 00 00 00 04 04 04 04 04 00 00     ................
    20cb:	00 00 00 04 00 00 00 00 00 00 04 20 22 00 00 17     ........... "...
    20db:	18 00 00 00 00 00 00 00 00 00 00 00 04 00 00 00     ................
    20eb:	04 00 00 00 00 00 00 00 00 00 00 04 00 00 00 00     ................
	...
    2103:	00 04 04 04 04 00 00 00 00 00 00 00 00 00 00 00     ................
    2113:	29 00 00 00 00 00 1b 1c 01 05 00 00 00 00 00 00     )...............
    2123:	00 00 06 01 01 01 01 01 01 01 01 01 01 01 01 01     ................
    2133:	01 01 01 01 01 01 01 01 01 01 05 00 06 01 01 01     ................
    2143:	01 01 05 00 00 00 00 00 00 00 00 00 00 06 01 01     ................
    2153:	01 01 01 01 01 01 01 01 01 01 01 01 01 01 01 01     ................
    2163:	05 00 08 00 08 00 06 01 05 00 06 01 01 01 01 01     ................
    2173:	01 01 00 00 00 00 00 00 00 00 00 00 00 00 00 00     ................
	...

000021cf <level4>:
	...
    21e3:	00 23 24 00 00 00 00 00 00 00 00 00 00 00 00 00     .#$.............
	...
    221f:	00 00 23 24 00 00 00 00 00 00 00 00 23 24 00 00     ..#$........#$..
	...
    223b:	00 00 00 25 26 00 00 00 00 00 00 00 00 00 23 24     ...%&.........#$
	...
    225f:	00 00 00 23 24 00 00 00 00 00 00 00 00 00 00 00     ...#$...........
	...
    227b:	25 26 00 00 00 00 00 00 00 00 25 26 00 00 00 00     %&........%&....
	...
    22a3:	25 26 00 00 00 00 00 00 00 00 00 00 23 24 00 00     %&..........#$..
	...
    22bb:	00 25 26 00 00 00 00 00 00 00 00 00 00 00 00 00     .%&.............
	...
    2307:	00 00 25 26 00 00 00 00 00 00 00 00 00 00 00 00     ..%&............
	...
    2333:	23 24 00 00 00 00 00 00 00 00 00 00 00 00 00 00     #$..............
	...
    238b:	00 00 25 26 00 00 00 00 00 00 00 00 00 00 00 00     ..%&............
	...
    23df:	00 00 04 04 00 00 00 00 00 00 00 00 00 00 00 00     ................
	...
    23f7:	00 00 03 00 00 03 00 00 00 00 00 00 00 00 00 00     ................
	...
    241b:	00 02 02 02 02 00 00 00 00 00 00 00 00 00 00 00     ................
	...
    243b:	04 04 00 00 00 00 00 00 00 00 00 00 00 00 00 00     ................
	...
    248f:	00 00 04 00 00 00 04 04 00 00 00 00 00 00 00 00     ................
	...
    24b3:	00 00 00 29 29 29 00 00 00 00 00 00 00 0b 0c 00     ...)))..........
	...
    24eb:	04 04 00 00 04 04 00 00 00 00 04 00 00 00 00 00     ................
	...
    2507:	03 00 00 03 00 00 00 00 00 00 00 00 00 00 00 00     ................
    2517:	00 00 00 0f 10 00 00 00 00 00 00 00 00 00 00 00     ................
    2527:	03 03 03 02 02 02 03 03 03 00 00 00 00 00 00 00     ................
	...
    253f:	00 04 04 00 00 00 04 04 00 00 04 04 00 00 00 00     ................
	...
    2557:	15 16 00 00 1f 21 00 00 00 00 00 00 00 00 00 00     .....!..........
    2567:	00 1f 21 00 33 15 16 00 00 00 00 00 00 0f 10 00     ..!.3...........
	...
    2593:	00 00 00 04 04 00 00 04 04 00 00 00 04 04 00 00     ................
    25a3:	04 04 00 00 04 00 00 00 19 1a 00 00 00 00 17 18     ................
    25b3:	00 00 20 22 00 00 00 00 00 00 00 00 00 00 00 20     .. "........... 
    25c3:	22 00 02 17 18 00 00 00 00 00 00 0d 0e 00 00 00     "...............
	...
    25eb:	00 04 04 00 00 04 04 00 00 04 04 00 00 00 04 04     ................
    25fb:	00 00 04 04 00 00 00 00 00 00 1b 1c 01 01 01 01     ................
    260b:	01 01 01 01 01 01 01 01 01 01 01 01 01 01 01 01     ................
    261b:	01 01 01 01 01 01 01 01 01 01 01 01 01 01 01 01     ................
    262b:	01 01 01 01 05 00 06 01 01 01 01 01 05 00 06 05     ................
    263b:	00 06 01 01 01 01 01 01 01 01 01 01 01 01 01 01     ................
    264b:	01 01 01 01 01 01 01 01 01 01 01 01 01 05 00 00     ................
    265b:	00 00 00 00 06 01 00 00 00 00 00 00 00 00 00 00     ................
	...

000026bb <level3>:
	...
    26cf:	00 23 24 00 00 00 00 00 00 00 00 00 00 00 00 00     .#$.............
	...
    270b:	00 00 23 24 00 00 00 00 00 00 00 00 23 24 00 00     ..#$........#$..
	...
    2727:	00 00 00 25 26 00 00 00 00 00 00 00 00 00 23 24     ...%&.........#$
	...
    274b:	00 00 00 23 24 00 00 00 00 00 00 00 00 00 00 00     ...#$...........
	...
    2767:	25 26 00 00 00 00 00 00 00 00 25 26 00 00 00 00     %&........%&....
    2777:	23 24 00 00 00 00 00 00 00 00 00 00 29 00 00 00     #$..........)...
	...
    278f:	25 26 00 00 00 00 00 00 00 00 00 00 23 24 00 00     %&..........#$..
	...
    27a7:	00 25 26 00 00 00 00 00 00 00 00 00 00 00 00 00     .%&.............
    27b7:	00 00 00 33 00 00 00 00 00 00 00 00 00 00 00 00     ...3............
	...
    27cf:	00 00 25 26 00 00 00 00 00 00 00 00 00 29 29 29     ..%&.........)))
	...
    27f3:	00 00 25 26 00 00 00 00 00 00 00 00 00 00 00 00     ..%&............
	...
    280f:	00 00 07 07 07 07 00 00 00 00 00 00 00 00 00 00     ................
    281f:	23 24 00 00 00 00 00 00 00 00 00 00 00 00 00 00     #$..............
    282f:	00 00 00 00 00 00 29 29 29 29 29 00 00 00 00 00     ......))))).....
    283f:	00 07 07 07 00 00 00 00 00 00 00 00 00 00 00 00     ................
	...
    2877:	00 00 25 26 00 00 00 00 00 00 00 00 00 00 00 00     ..%&............
	...
    288f:	07 07 07 07 07 00 00 00 00 00 00 00 00 00 00 00     ................
	...
    28a7:	07 07 07 07 00 00 00 00 00 00 00 00 00 00 00 00     ................
	...
    28ef:	00 07 07 07 00 00 00 00 00 00 00 00 00 00 00 00     ................
	...
    290b:	07 07 00 00 00 00 03 03 00 00 00 00 00 00 00 00     ................
    291b:	00 00 07 00 00 00 00 00 00 29 00 00 00 00 00 00     .........)......
	...
    2957:	0b 0c 00 00 00 00 00 00 00 00 00 00 00 00 00 00     ................
	...
    2973:	00 00 00 07 07 00 00 00 00 00 00 29 00 00 00 00     ...........)....
	...
    2997:	00 00 32 00 00 00 07 07 07 07 07 00 00 00 00 00     ..2.............
    29a7:	00 00 00 00 00 0b 0c 00 00 00 0f 10 00 00 00 00     ................
	...
    29cf:	07 07 07 00 00 00 00 00 00 29 00 00 00 00 00 00     .........)......
	...
    29ef:	00 00 07 07 07 00 00 00 00 00 00 00 00 00 00 00     ................
    29ff:	00 00 00 00 00 00 00 0f 10 00 00 00 0f 10 00 00     ................
    2a0f:	00 00 00 00 00 07 07 07 00 00 00 00 00 00 04 04     ................
    2a1f:	00 00 04 04 00 00 00 00 00 07 07 07 07 00 00 00     ................
    2a2f:	00 00 00 29 00 00 00 00 00 00 00 00 00 00 00 00     ...)............
	...
    2a5f:	00 0f 10 00 00 00 0f 10 00 00 00 00 00 00 00 00     ................
	...
    2a7f:	00 00 07 07 07 07 07 00 00 00 00 00 00 29 00 00     .............)..
	...
    2a97:	19 1a 00 00 00 00 00 00 00 07 07 07 00 00 00 00     ................
	...
    2ab7:	00 00 00 0d 0e 00 00 00 0d 0e 00 00 00 00 00 00     ................
	...
    2ad7:	00 00 00 07 07 07 07 07 07 00 00 00 00 00 00 29     ...............)
    2ae7:	00 00 00 00 29 00 29 00 29 00 1b 1c 01 01 01 05     ....).).).......
	...
    2b13:	00 06 05 00 00 00 06 05 00 00 00 00 00 00 00 00     ................
    2b23:	00 00 00 00 00 06 01 01 01 01 01 01 01 01 01 01     ................
    2b33:	01 01 01 01 01 01 01 01 05 00 08 00 00 06 01 01     ................
    2b43:	01 01 05 00 08 00 08 00 06 01 00 00 00 00 00 00     ................
	...

00002ba7 <level2>:
	...
    2bbb:	00 23 24 00 00 00 00 00 00 00 00 00 00 00 00 00     .#$.............
	...
    2bf7:	00 00 23 24 00 00 00 00 00 00 00 23 24 00 00 00     ..#$.......#$...
	...
    2c13:	00 00 00 25 26 00 00 00 00 00 00 00 00 00 23 24     ...%&.........#$
	...
    2c37:	00 00 00 23 24 00 00 00 00 00 00 00 00 00 00 00     ...#$...........
	...
    2c53:	25 26 00 00 00 00 00 00 00 25 26 00 00 00 00 00     %&.......%&.....
    2c63:	00 23 24 00 00 00 00 00 00 00 00 00 00 00 00 00     .#$.............
	...
    2c7b:	25 26 00 00 00 00 00 00 00 00 00 00 23 24 00 00     %&..........#$..
	...
    2c93:	00 25 26 00 00 00 00 00 00 00 00 00 00 00 00 00     .%&.............
	...
    2cbb:	00 00 00 25 26 00 00 00 00 00 00 00 00 00 00 00     ...%&...........
	...
    2cdf:	00 00 25 26 00 00 00 00 00 00 00 00 00 00 00 00     ..%&............
	...
    2d0b:	23 24 00 00 00 00 00 00 00 00 00 00 00 00 00 00     #$..............
	...
    2d63:	00 00 25 26 00 00 00 00 00 00 00 00 00 00 00 00     ..%&............
    2d73:	00 00 29 29 00 00 00 00 00 00 00 00 00 00 00 00     ..))............
	...
    2dcf:	29 29 00 00 03 02 02 00 00 00 00 00 00 00 00 00     ))..............
    2ddf:	00 00 00 00 00 00 32 00 00 00 00 29 29 00 00 00     ......2....))...
	...
    2dfb:	02 02 02 03 02 02 02 00 00 00 00 00 00 00 00 00     ................
	...
    2e27:	00 00 07 07 00 00 00 00 00 00 00 00 00 00 00 00     ................
    2e37:	00 00 00 00 00 04 04 04 04 04 00 00 00 02 02 00     ................
	...
    2e67:	33 00 00 00 00 00 00 00 00 00 00 00 00 00 19 1a     3...............
	...
    2e87:	00 00 00 32 00 00 00 00 00 00 00 00 00 00 04 04     ...2............
	...
    2eaf:	32 00 00 00 00 00 00 00 00 00 00 00 00 00 00 04     2...............
    2ebf:	04 04 04 00 00 00 00 00 00 00 00 00 00 00 00 00     ................
    2ecf:	1b 1c 00 00 03 00 00 00 00 00 00 07 07 00 00 00     ................
    2edf:	00 03 02 03 03 02 00 00 00 00 00 00 00 00 00 04     ................
    2eef:	04 04 00 29 29 00 00 00 00 00 00 00 00 00 00 00     ...))...........
    2eff:	00 00 00 00 00 29 29 00 00 00 02 02 02 03 02 02     .....)).........
    2f0f:	02 00 00 00 00 00 00 00 04 04 04 04 04 00 00 00     ................
	...
    2f27:	00 00 07 07 00 00 00 00 00 00 00 00 00 00 00 00     ................
	...
    2f3f:	00 1f 21 00 00 00 00 00 04 04 04 04 00 0b 0c 00     ..!.............
    2f4f:	02 02 02 02 02 02 00 00 00 00 00 00 00 00 00 29     ...............)
    2f5f:	29 00 00 00 00 00 00 00 00 00 00 00 00 00 00 00     )...............
    2f6f:	00 04 04 04 04 04 04 00 00 00 00 00 15 16 00 00     ................
    2f7f:	00 00 00 07 07 07 00 00 00 00 00 07 07 07 00 00     ................
	...
    2f97:	00 00 00 20 22 00 00 04 04 04 04 04 04 04 00 0d     ... "...........
    2fa7:	0e 00 00 00 00 00 00 00 00 00 00 00 00 00 00 00     ................
    2fb7:	00 29 29 00 00 00 00 00 00 00 00 00 00 00 00 00     .)).............
    2fc7:	00 00 04 04 04 04 04 04 04 00 00 00 00 00 17 18     ................
    2fd7:	00 00 00 00 07 07 07 07 01 01 01 05 00 00 00 00     ................
    2fe7:	00 00 00 00 00 00 06 01 01 01 01 01 01 01 01 01     ................
    2ff7:	01 01 01 01 01 01 01 01 01 01 05 00 06 01 01 01     ................
    3007:	05 00 06 01 01 01 01 01 05 00 06 05 00 06 01 01     ................
    3017:	01 01 01 01 01 01 01 01 01 01 01 01 01 01 01 01     ................
    3027:	01 01 05 00 00 08 00 06 01 01 01 01 01 01 01 01     ................
    3037:	01 01 00 00 00 00 00 00 00 00 00 00 00 00 00 00     ................
	...

00003093 <level1>:
	...
    30a7:	00 23 24 00 00 00 00 00 00 00 00 00 00 00 00 00     .#$.............
    30b7:	00 00 00 00 00 15 00 00 00 00 00 00 00 00 00 00     ................
	...
    30e3:	00 00 23 24 00 00 00 00 00 00 00 00 23 24 00 00     ..#$........#$..
	...
    30ff:	00 00 00 25 26 00 00 00 00 00 00 00 00 00 23 24     ...%&.........#$
    310f:	00 00 00 00 00 00 00 15 00 00 00 00 00 00 00 00     ................
    311f:	00 00 00 00 00 00 00 23 24 00 00 00 00 00 00 00     .......#$.......
	...
    313f:	25 26 00 00 00 00 00 00 00 00 25 26 00 00 00 00     %&........%&....
    314f:	23 24 00 00 00 00 00 00 00 00 00 00 00 00 00 00     #$..............
	...
    3167:	25 26 00 00 00 00 00 00 00 15 00 00 23 24 00 00     %&..........#$..
	...
    317f:	00 25 26 00 00 00 00 00 00 00 00 00 00 00 00 00     .%&.............
	...
    31a7:	00 00 25 26 00 00 00 00 00 00 00 00 00 00 00 00     ..%&............
	...
    31c7:	00 00 00 15 00 00 25 26 00 00 00 00 00 00 00 00     ......%&........
	...
    31f7:	23 24 00 00 00 00 00 00 00 00 00 00 00 00 00 00     #$..............
	...
    3223:	00 15 00 00 00 00 00 00 00 00 00 00 00 00 00 00     ................
	...
    324f:	00 00 25 26 00 00 00 00 00 00 00 00 00 00 00 00     ..%&............
	...
    3267:	00 00 00 01 00 00 00 00 00 00 00 00 00 00 00 00     ................
    3277:	00 00 00 00 00 00 00 15 00 00 00 00 00 00 00 00     ................
	...
    32bb:	00 32 00 02 03 02 00 00 00 01 00 00 00 00 00 00     .2..............
	...
    32d3:	00 00 00 29 29 15 00 00 00 00 00 00 00 00 00 00     ...))...........
    32e3:	00 00 03 02 02 03 03 02 00 00 00 00 00 00 00 00     ................
    32f3:	00 00 04 00 00 00 00 00 00 29 00 00 00 00 00 00     .........)......
	...
    331b:	00 00 00 01 00 00 00 00 00 00 00 00 00 00 00 00     ................
    332b:	00 00 00 00 02 02 02 15 00 00 00 00 00 00 00 00     ................
	...
    334b:	00 00 00 04 04 00 00 00 00 00 29 00 00 00 00 00     ..........).....
	...
    3377:	00 01 00 00 00 00 00 00 00 00 00 00 00 0b 0c 00     ................
    3387:	00 00 00 00 00 15 00 00 00 00 00 00 00 00 00 00     ................
	...
    33a7:	04 04 04 00 00 00 00 29 00 00 00 00 00 00 00 00     .......)........
	...
    33cb:	02 03 02 03 03 02 00 01 00 00 00 00 00 00 00 00     ................
    33db:	00 00 00 0d 0e 00 00 00 00 00 00 15 00 00 00 00     ................
	...
    33f3:	03 02 02 03 00 02 00 00 00 00 00 00 00 04 04 04     ................
    3403:	04 00 00 00 29 00 00 00 00 00 00 00 00 00 00 00     ....)...........
	...
    341f:	1f 21 00 00 00 00 00 00 00 00 00 00 00 1f 21 00     .!............!.
	...
    3437:	00 0b 0c 00 00 00 00 00 00 15 00 00 00 00 00 00     ................
	...
    3457:	00 00 00 04 04 04 04 00 00 00 00 00 00 00 00 00     ................
    3467:	1f 21 00 00 00 00 00 00 19 1a 00 00 00 00 00 00     .!..............
    3477:	00 00 20 22 00 00 00 00 00 00 00 00 00 00 00 20     .. "........... 
    3487:	22 00 00 00 00 00 00 00 00 00 00 0d 0e 00 00 00     "...............
    3497:	00 00 00 15 00 00 00 00 00 00 00 00 00 00 00 00     ................
	...
    34b3:	00 04 04 04 04 00 00 00 00 00 00 00 00 00 20 22     .............. "
    34c3:	00 00 00 00 00 00 1b 1c 01 01 01 01 01 01 01 01     ................
    34d3:	01 01 01 01 01 01 01 01 01 01 01 01 01 01 01 01     ................
    34e3:	01 01 01 01 01 01 01 01 01 01 01 01 01 01 01 01     ................
    34f3:	05 15 06 01 01 01 01 01 05 00 06 05 00 06 01 01     ................
    3503:	01 01 01 01 01 01 01 01 01 01 01 01 01 01 01 01     ................
    3513:	05 00 08 00 08 00 06 01 01 01 01 01 01 01 01 01     ................
    3523:	01 01 00 00 00 00 00 00 00 00 00 00 00 00 00 00     ................
	...

0000357f <intro0>:
	...
    3587:	00 00 00 23 24 00 00 15 00 00 00 00 00 00 00 00     ...#$...........
	...
    359f:	00 15 00 00 00 00 00 00 00 00 00 00 00 00 00 00     ................
	...
    35cf:	23 24 00 00 00 00 00 00 00 00 00 00 00 00 00 00     #$..............
    35df:	04 04 04 00 00 25 26 00 00 15 00 00 00 00 00 00     .....%&.........
	...
    35f7:	00 00 00 15 00 00 00 00 00 00 00 00 00 00 00 00     ................
	...
    3627:	00 00 25 26 00 00 00 00 00 00 00 00 00 00 00 00     ..%&............
    3637:	00 00 04 00 00 04 00 04 00 00 04 15 04 00 00 00     ................
    3647:	00 04 00 00 00 00 32 00 00 00 00 00 00 15 00 00     ......2.........
	...
    3663:	33 00 00 00 00 00 00 00 00 00 00 00 00 00 00 00     3...............
	...
    367b:	00 00 23 24 00 00 00 00 00 00 00 00 00 00 00 00     ..#$............
	...
    3693:	04 00 00 04 00 04 00 00 04 15 04 04 00 00 00 04     ................
	...
    36ab:	00 00 00 15 00 00 00 00 00 00 00 00 00 00 00 00     ................
	...
    36d7:	25 26 00 00 00 00 00 00 00 00 00 00 23 24 00 00     %&..........#$..
    36e7:	00 00 00 00 00 00 04 00 04 00 00 04 00 00 04 15     ................
    36f7:	04 00 04 00 00 04 00 00 00 00 00 00 00 00 00 00     ................
    3707:	00 15 00 00 00 00 00 00 00 00 00 00 00 00 00 00     ................
	...
    373b:	00 00 25 26 00 00 00 00 00 00 00 00 04 04 00 00     ..%&............
    374b:	00 04 00 00 04 15 04 00 00 04 00 04 00 00 00 00     ................
    375b:	00 00 00 00 00 00 00 15 00 00 00 00 00 00 00 00     ................
	...
    379f:	00 00 04 00 04 00 00 04 00 00 04 15 04 00 00 00     ................
    37af:	04 04 00 00 00 00 00 00 00 00 00 00 00 15 00 00     ................
	...
    37fb:	04 00 00 04 00 04 04 04 04 15 04 00 00 00 00 04     ................
    380b:	00 00 03 00 00 00 00 00 00 00 00 15 03 00 00 00     ................
    381b:	00 00 00 00 00 03 00 00 00 00 00 00 00 00 00 00     ................
	...
    385b:	00 00 00 15 00 00 00 00 00 00 00 00 00 00 00 00     ................
    386b:	00 00 00 00 00 15 00 00 00 00 00 00 00 00 00 00     ................
	...
    38b7:	00 15 00 00 00 00 00 00 00 00 00 00 00 00 00 00     ................
    38c7:	00 00 00 15 00 00 00 00 00 00 00 00 00 00 00 00     ................
	...
    390b:	1f 21 00 00 00 00 00 15 00 00 00 00 00 1f 21 00     .!............!.
	...
    3923:	00 15 00 00 00 00 00 00 00 00 00 00 00 00 00 00     ................
	...
    3943:	00 00 1f 21 00 00 00 00 00 00 00 00 00 00 00 00     ...!............
    3953:	1f 21 00 00 00 00 00 00 19 1a 00 00 00 00 00 00     .!..............
    3963:	00 00 20 22 00 00 00 00 00 15 00 00 00 00 00 20     .. "........... 
    3973:	22 00 00 00 00 00 00 00 00 00 00 15 00 00 00 00     "...............
	...
    399f:	20 22 00 00 00 00 00 00 29 29 29 29 00 00 20 22      "......)))).. "
    39af:	00 00 00 00 00 00 1b 1c 01 01 01 01 01 01 01 01     ................
    39bf:	01 01 01 01 01 01 01 01 01 01 01 01 01 01 01 01     ................
    39cf:	01 01 01 01 01 01 01 01 05 00 06 01 01 01 01 01     ................
    39df:	01 01 05 00 06 01 01 01 01 01 01 05 00 06 05 00     ................
    39ef:	06 01 01 01 01 01 01 01 01 01 01 01 01 01 01 01     ................
    39ff:	01 01 01 01 01 01 01 01 01 01 01 01 01 01 01 01     ................
    3a0f:	01 01 00 00 00 00 00 00 00 00 00 00 00 00 00 00     ................
	...

00003a6b <midisong>:
    3a6b:	00 c0 00 00 b0 07 72 00 07 7c 00 90 24 6e 14 24     ......r..|..$n.$
    3a7b:	6e 0b 24 6e 15 28 6e 0a 2b 6e 15 29 6e 15 29 6e     n.$n.(n.+n.)n.)n
    3a8b:	0a 29 6e 15 2d 6e 0a 30 6e 15 24 6e 15 24 6e 0b     .)n.-n.0n.$n.$n.
    3a9b:	24 6e 14 28 6e 0b 2b 6e 15 29 6e 15 29 6e 0a 29     $n.(n.+n.)n.)n.)
    3aab:	6e 15 2d 6e 0a 30 6e 15 24 6e 15 24 6e 0a 24 6e     n.-n.0n.$n.$n.$n
    3abb:	15 28 6e 0b 2b 6e 15 29 6e 14 29 6e 0b 29 6e 15     .(n.+n.)n.)n.)n.
    3acb:	2d 6e 0a 30 6e 15 29 6e 15 29 6e 0a 29 6e 15 2d     -n.0n.)n.)n.)n.-
    3adb:	6e 0b 30 6e 14 29 6e 15 29 6e 0b 29 6e 15 2d 6e     n.0n.)n.)n.)n.-n
    3aeb:	0a 30 6e 15 24 6e 15 24 6e 0a 24 6e 15 34 6e 00     .0n.$n.$n.$n.4n.
    3afb:	28 6e 0a 3b 6e 00 2b 6e 15 3c 6e 00 29 6e 15 3c     (n.;n.+n.<n.)n.<
    3b0b:	6e 00 29 6e 0b 29 6e 14 34 6e 00 2d 6e 0b 30 6e     n.)n.)n.4n.-n.0n
    3b1b:	15 24 6e 15 24 6e 0a 24 6e 15 34 6e 00 28 6e 0a     .$n.$n.$n.4n.(n.
    3b2b:	3b 6e 00 2b 6e 15 3c 6e 00 29 6e 15 3c 6e 00 29     ;n.+n.<n.)n.<n.)
    3b3b:	6e 0a 29 6e 15 34 6e 00 2d 6e 0b 30 6e 15 24 6e     n.)n.4n.-n.0n.$n
    3b4b:	14 24 6e 0b 24 6e 15 34 6e 00 28 6e 0a 3b 6e 00     .$n.$n.4n.(n.;n.
    3b5b:	2b 6e 15 3c 6e 00 29 6e 15 3c 6e 00 29 6e 0a 29     +n.<n.)n.<n.)n.)
    3b6b:	6e 15 34 6e 00 2d 6e 0a 30 6e 15 3c 6e 00 29 6e     n.4n.-n.0n.<n.)n
    3b7b:	15 3c 6e 00 29 6e 0b 29 6e 14 34 6e 00 2d 6e 0b     .<n.)n.)n.4n.-n.
    3b8b:	32 6e 00 30 6e 15 3c 6e 00 29 6e 15 3c 6e 00 29     2n.0n.<n.)n.<n.)
    3b9b:	6e 0a 29 6e 15 34 6e 00 2d 6e 0a 30 6e 15 24 6e     n.)n.4n.-n.0n.$n
    3bab:	15 24 6e 0a 24 6e 15 28 6e 0b 2b 6e 15 29 6e 14     .$n.$n.(n.+n.)n.
    3bbb:	29 6e 0b 29 6e 15 2d 6e 0a 30 6e 15 24 6e 15 24     )n.)n.-n.0n.$n.$
    3bcb:	6e 0a 24 6e 15 28 6e 0b 2b 6e 14 29 6e 15 29 6e     n.$n.(n.+n.)n.)n
    3bdb:	0b 29 6e 15 2d 6e 0a 30 6e 15 24 6e 15 24 6e 0a     .)n.-n.0n.$n.$n.
    3beb:	24 6e 15 28 6e 0a 2b 6e 15 29 6e 15 29 6e 0b 29     $n.(n.+n.)n.)n.)
    3bfb:	6e 14 2d 6e 0b 30 6e 15 29 6e 15 29 6e 0a 29 6e     n.-n.0n.)n.)n.)n
    3c0b:	15 2d 6e 0a 30 6e 15 29 6e 15 29 6e 0a 29 6e 15     .-n.0n.)n.)n.)n.
    3c1b:	2d 6e 0b 30 6e 15 24 6e 14 24 6e 0b 24 6e 15 28     -n.0n.$n.$n.$n.(
    3c2b:	6e 0a 2b 6e 15 29 6e 15 29 6e 0a 29 6e 15 2d 6e     n.+n.)n.)n.)n.-n
    3c3b:	0a 30 6e 15 24 6e 15 24 6e 0b 24 6e 14 28 6e 0b     .0n.$n.$n.$n.(n.
    3c4b:	2b 6e 15 29 6e 15 29 6e 0a 29 6e 15 2d 6e 0a 30     +n.)n.)n.)n.-n.0
    3c5b:	6e 15 24 6e 15 24 6e 0a 24 6e 15 28 6e 0b 2b 6e     n.$n.$n.$n.(n.+n
    3c6b:	15 29 6e 14 29 6e 0b 29 6e 15 2d 6e 0a 30 6e 15     .)n.)n.)n.-n.0n.
    3c7b:	29 6e 15 29 6e 0a 29 6e 15 2d 6e 0b 30 6e 14 29     )n.)n.)n.-n.0n.)
    3c8b:	6e 15 29 6e 0b 29 6e 15 2d 6e 0a 30 6e 15 24 6e     n.)n.)n.-n.0n.$n
    3c9b:	15 24 6e 0a 24 6e 15 24 6e 0a 24 6e 0b 24 6e 0a     .$n.$n.$n.$n.$n.
    3cab:	24 6e 15 24 6e 0b 24 6e 34 24 6e 15 24 6e 0a 24     $n.$n.$n4$n.$n.$
    3cbb:	6e 15 28 6e 0a 28 6e 0b 28 6e 0a 2b 6e 15 29 6e     n.(n.(n.(n.+n.)n
    3ccb:	0a 26 6e 15 28 6e 0b 26 6e 15 24 6e 14 24 6e 0b     .&n.(n.&n.$n.$n.
    3cdb:	24 6e 15 28 6e 0a 28 6e 0b 28 6e 0a 2b 6e 15 29     $n.(n.(n.(n.+n.)
    3ceb:	6e 0a 26 6e 15 28 6e 0a 26 6e 15 24 6e 15 24 6e     n.&n.(n.&n.$n.$n
    3cfb:	0b 24 6e 14 28 6e 0b 28 6e 0a 28 6e 0b 2b 6e 15     .$n.(n.(n.(n.+n.
    3d0b:	29 6e 0a 26 6e 15 28 6e 0a 26 6e 15 2b 6e 15 29     )n.&n.(n.&n.+n.)
    3d1b:	6e 0a 26 6e 15 28 6e 0b 26 6e 15 2b 6e 14 29 6e     n.&n.(n.&n.+n.)n
    3d2b:	0b 26 6e 15 28 6e 0a 26 6e 15 24 6e 15 24 6e 0a     .&n.(n.&n.$n.$n.
    3d3b:	24 6e 15 28 6e 0b 28 6e 0a 28 6e 0a 2b 6e 15 29     $n.(n.(n.(n.+n.)
    3d4b:	6e 0b 26 6e 15 28 6e 0a 26 6e 15 24 6e 15 24 6e     n.&n.(n.&n.$n.$n
    3d5b:	0a 24 6e 15 28 6e 0a 28 6e 0b 28 6e 0a 2b 6e 15     .$n.(n.(n.(n.+n.
    3d6b:	29 6e 0b 26 6e 14 28 6e 0b 26 6e 15 24 6e 15 24     )n.&n.(n.&n.$n.$
    3d7b:	6e 0a 24 6e 15 28 6e 0a 28 6e 0b 28 6e 0a 2b 6e     n.$n.(n.(n.(n.+n
    3d8b:	15 29 6e 0a 26 6e 15 28 6e 0b 26 6e 15 2b 6e 14     .)n.&n.(n.&n.+n.
    3d9b:	29 6e 0b 26 6e 15 28 6e 0a 26 6e 15 2b 6e 15 29     )n.&n.(n.&n.+n.)
    3dab:	6e 0a 26 6e 15 28 6e 0b 26 6e 14 24 6e 15 24 6e     n.&n.(n.&n.$n.$n
    3dbb:	0b 24 6e 14 28 6e 0b 2b 6e 15 29 6e 15 29 6e 0a     .$n.(n.+n.)n.)n.
    3dcb:	29 6e 15 2d 6e 0a 30 6e 15 24 6e 15 24 6e 0a 24     )n.-n.0n.$n.$n.$
    3ddb:	6e 15 28 6e 0b 2b 6e 15 29 6e 14 29 6e 0b 29 6e     n.(n.+n.)n.)n.)n
    3deb:	15 2d 6e 0a 30 6e 15 24 6e 15 24 6e 0a 24 6e 15     .-n.0n.$n.$n.$n.
    3dfb:	28 6e 0b 2b 6e 14 29 6e 15 29 6e 0b 29 6e 15 2d     (n.+n.)n.)n.)n.-
    3e0b:	6e 0a 30 6e 15 29 6e 15 29 6e 0a 29 6e 15 2d 6e     n.0n.)n.)n.)n.-n
    3e1b:	0a 30 6e 15 29 6e 15 29 6e 0b 29 6e 14 2d 6e 0b     .0n.)n.)n.)n.-n.
    3e2b:	30 6e 15 24 6e 15 24 6e 0a 24 6e 15 28 6e 0a 2b     0n.$n.$n.$n.(n.+
    3e3b:	6e 15 29 6e 15 29 6e 0a 29 6e 15 2d 6e 0b 30 6e     n.)n.)n.)n.-n.0n
    3e4b:	15 24 6e 14 24 6e 0b 24 6e 15 28 6e 0a 2b 6e 15     .$n.$n.$n.(n.+n.
    3e5b:	29 6e 15 29 6e 0a 29 6e 15 2d 6e 0b 30 6e 14 24     )n.)n.)n.-n.0n.$
    3e6b:	6e 15 24 6e 0b 24 6e 14 28 6e 0b 2b 6e 15 29 6e     n.$n.$n.(n.+n.)n
    3e7b:	15 29 6e 0a 29 6e 15 2d 6e 0a 30 6e 15 29 6e 15     .)n.)n.-n.0n.)n.
    3e8b:	29 6e 0a 29 6e 15 2d 6e 0b 30 6e 15 29 6e 14 29     )n.)n.-n.0n.)n.)
    3e9b:	6e 0b 29 6e 15 2d 6e 0a 30 6e 15 24 6e 15 24 6e     n.)n.-n.0n.$n.$n
    3eab:	0a 24 6e 15 24 6e 0b 24 6e 0a 24 6e 0a 24 6e 15     .$n.$n.$n.$n.$n.
    3ebb:	24 6e 0b 24 6e 0a ff 2f 00                          $n.$n../.

00003ec4 <patches>:
    3ec4:	00 00 00 20 40 00 00 00 00 00 00 00 20 40 00 00     ... @....... @..
    3ed4:	00 00 00 00 00 20 40 00 00 00 00 00 00 00 20 40     ..... @....... @
    3ee4:	00 00 00 00 00 00 00 d2 3f 00 00 00 00 00 00 00     ........?.......
    3ef4:	c4 3f 00 00 00 00 00 00 00 aa 3f 00 00 00 00 00     .?........?.....
    3f04:	00 00 96 3f 00 00 00 00 00 00 00 7f 3f 00 00 00     ...?........?...
    3f14:	00 00 00 00 62 3f 00 00 00 00 00 00 00 27 3f 00     ....b?.......'?.
    3f24:	00 00 00                                            ...

00003f27 <fxlevelcompleted>:
    3f27:	00 02 03 00 07 80 00 08 4c 02 04 0a 02 04 08 02     ........L.......
    3f37:	04 06 02 04 04 02 04 02 00 08 38 02 03 05 02 04     ..........8.....
    3f47:	02 02 03 05 02 03 05 02 04 02 02 03 05 00 00 f8     ................
    3f57:	04 03 05 04 04 05 04 03 05 00 ff                    ...........

00003f62 <fxlivelost>:
    3f62:	00 02 01 00 07 80 00 00 fd 00 08 2d 05 04 05 02     ...........-....
    3f72:	04 01 05 04 05 02 04 02 0a 05 00 00 ff              .............

00003f7f <fxenemy>:
    3f7f:	00 07 80 00 02 02 00 08 40 03 03 04 02 03 04 02     ........@.......
    3f8f:	04 08 02 05 00 00 ff                                .......

00003f96 <fxpoint>:
    3f96:	00 02 02 00 07 90 02 03 06 02 03 02 01 03 01 00     ................
    3fa6:	00 f6 00 ff                                         ....

00003faa <fxgameover1>:
    3faa:	00 02 04 00 00 fc 03 08 5a 03 08 60 03 08 5a 03     ........Z..`..Z.
    3fba:	08 60 03 08 5a 01 05 00 00 ff                       .`..Z.....

00003fc4 <fxhit>:
    3fc4:	00 02 06 00 07 40 00 08 28 00 00 f0 00 ff           .....@..(.....

00003fd2 <fxjump>:
    3fd2:	00 02 06 00 08 32 00 07 70 00 00 fc 04 03 01 04     .....2..p.......
    3fe2:	03 01 03 03 01 03 03 01 03 03 01 03 03 01 03 03     ................
    3ff2:	01 03 03 01 03 03 01 03 03 01 01 03 01 01 03 01     ................
    4002:	01 05 00 00 ff                                      .....

00004007 <patch03>:
    4007:	00 01 01 00 07 90 00 00 e2 08 05 00 00 ff           ..............

00004015 <patch02>:
    4015:	00 02 02 01 06 00 01 00 e0 00 ff                    ...........

00004020 <patch01>:
    4020:	00 02 06 00 07 40 00 00 f6 00 ff                    .....@.....

0000402b <patch00>:
    402b:	00 02 04 00 00 dd 00 ff                             ........

00004033 <uMSprites>:
    4033:	fe fe fe fe fe fe 00 00 fe fe fe fe 00 00 3f 3f     ..............??
    4043:	fe fe fe 00 3f 3f 3f 3f fe fe 00 3f 3f 3f 3f 3f     ....????...?????
    4053:	fe 00 3f 3f 3f 3f 3f 3f fe 00 3f 3f 3f 00 00 00     ..??????..???...
    4063:	00 3f 3f 3f 3f 3f 3f 3f 00 3f 3f 3f 3f 3f 3f 3f     .???????.???????
    4073:	00 00 fe fe fe fe fe fe 3f 3f 00 00 fe fe fe fe     ........??......
    4083:	3f 3f 3f 3f 00 fe fe fe 3f 3f 3f 3f 3f 00 fe fe     ????....?????...
    4093:	3f 3f 3f 3f 3f 3f 00 fe 00 3f 3f 3f 3f 3f 00 fe     ??????...?????..
    40a3:	3f 3f 3f 3f 3f 3f 3f 00 3f 3f 3f 3f 3f 3f 3f 00     ???????.???????.
    40b3:	fe fe fe fe fe fe 00 00 fe fe fe fe 00 00 3f 3f     ..............??
    40c3:	fe fe fe 00 3f 3f 3f 3f fe fe 00 3f 3f 3f 3f 3f     ....????...?????
    40d3:	fe 00 3f 3f 3f 3f 3f 00 fe 00 3f 3f 3f 3f 00 00     ..?????...????..
    40e3:	00 3f 3f 3f 3f 3f 3f 3f 00 3f 3f 3f 3f 3f 3f 3f     .???????.???????
    40f3:	00 00 fe fe fe fe fe fe 3f 3f 00 00 fe fe fe fe     ........??......
    4103:	3f 3f 3f 3f 00 fe fe fe 3f 3f 3f 3f 3f 00 fe fe     ????....?????...
    4113:	00 3f 3f 3f 3f 3f 00 fe 3f 3f 3f 3f 00 00 00 fe     .?????..????....
    4123:	3f 3f 00 00 fe fe fe fe 00 00 fe fe fe fe fe fe     ??..............
    4133:	fe fe fe fe fe fe 00 00 fe fe fe fe 00 00 3f 3f     ..............??
    4143:	fe fe fe 00 3f 3f 3f 3f fe fe 00 3f 3f 3f 3f 3f     ....????...?????
    4153:	fe 00 3f 3f 3f 3f 3f 00 fe 00 3f 3f 3f 3f 00 00     ..?????...????..
    4163:	00 3f 3f 3f 3f 3f 3f 3f 00 3f 3f 3f 3f 3f 3f 00     .???????.??????.
    4173:	00 00 fe fe fe fe fe fe 3f 3f 00 00 fe fe fe fe     ........??......
    4183:	3f 3f 3f 3f 00 fe fe fe 00 3f 3f 00 fe fe fe fe     ????.....??.....
    4193:	00 3f 00 fe fe fe fe fe 3f 00 fe fe fe fe fe fe     .?......?.......
    41a3:	00 fe fe fe fe fe fe fe fe fe fe fe fe fe fe fe     ................
    41b3:	fe fe fe fe fe fe fe 07 fe fe fe fe fe 07 07 07     ................
    41c3:	fe fe fe fe 07 07 07 07 fe fe fe 07 07 07 07 07     ................
    41d3:	fe fe 07 07 07 ff ff 07 fe fe 07 07 ff ff e0 e0     ................
    41e3:	fe fe 07 07 ff ff e0 e0 fe 07 07 07 ff ff ff ff     ................
    41f3:	07 fe fe fe fe fe fe fe 07 07 07 fe fe fe fe fe     ................
    4203:	07 07 07 07 fe fe fe fe 07 07 07 07 07 fe fe fe     ................
    4213:	07 07 07 ff ff 07 fe fe 07 07 ff ff e0 e0 fe fe     ................
    4223:	07 07 ff ff e0 e0 fe fe 07 07 ff ff ff ff 07 fe     ................
    4233:	fe fe fe fe fe fe fe c9 fe fe fe fe fe c9 c9 c9     ................
    4243:	fe fe fe fe c9 c9 c9 c9 fe fe fe c9 c9 c9 c9 c9     ................
    4253:	fe fe c9 c9 c9 c9 c9 c9 fe fe c9 c9 c9 c9 c9 c9     ................
    4263:	fe fe c9 c9 c9 ff ff c9 fe c9 c9 c9 c9 ff ff c9     ................
    4273:	c9 fe fe fe fe fe fe fe c9 c9 c9 fe fe fe fe fe     ................
    4283:	c9 c9 c9 c9 fe fe fe fe c9 c9 c9 c9 c9 fe fe fe     ................
    4293:	c9 c9 c9 c9 c9 c9 fe fe c9 c9 c9 c9 c9 c9 fe fe     ................
    42a3:	c9 ff ff c9 c9 c9 fe fe c9 ff ff c9 c9 c9 c9 fe     ................
    42b3:	fe fe fe fe fe fe 2a 2a fe fe fe fe fe fe fe 2a     ......**.......*
    42c3:	fe fe fe 2a 2a 2a 2a 2a fe fe 05 2a 2a 2a 2a 2a     ...*****...*****
    42d3:	fe fe 05 07 07 07 2a 2a fe 05 07 07 07 07 07 07     ......**........
    42e3:	05 05 07 07 07 ff ff 07 05 05 07 07 ff ff e0 e0     ................
    42f3:	2a fe fe fe fe fe fe fe 2a fe fe fe fe fe fe fe     *.......*.......
    4303:	2a 2a 2a 2a 2a fe fe fe 2a 2a 2a 2a 2a 07 fe fe     *****...*****...
    4313:	2a 2a 07 07 07 07 fe fe 07 07 07 07 07 07 07 fe     **..............
    4323:	07 07 07 ff ff 07 07 07 07 07 ff ff e0 e0 07 07     ................
    4333:	fe fe fe fe fe fe fe cf fe fe fe fe fe cf cf cf     ................
    4343:	fe fe fe fe cf cf cf cf fe fe fe cf cf cf cf cf     ................
    4353:	fe fe cf cf cf ff ff cf fe fe cf cf ff ff e0 e0     ................
    4363:	fe fe cf cf ff ff e0 e0 fe cf cf cf ff ff ff ff     ................
    4373:	cf fe fe fe fe fe fe fe cf cf cf fe fe fe fe fe     ................
    4383:	cf cf cf cf fe fe fe fe cf cf cf cf cf fe fe fe     ................
    4393:	cf cf cf ff ff cf fe fe cf cf ff ff e0 e0 fe fe     ................
    43a3:	cf cf ff ff e0 e0 fe fe cf cf ff ff ff ff cf fe     ................
    43b3:	fe fe fe fe fe fe fe fe fe fe fe fe fe fe fe fe     ................
    43c3:	fe fe fe fe fe fe fe fe fe fe fe fe fe fe fe fe     ................
    43d3:	fe fe fe fe fe fe fe fe fe fe fe fe fe fe fe fe     ................
    43e3:	fe fe fe fe fe fe fe fe fe fe fe fe fe fe fe fe     ................
    43f3:	00 3f 3f 3f 3f 3f 3f 00 00 3f 3f 3f 3f 3f 3f 3f     .??????..???????
    4403:	fe 00 3f 3f 3f 3f 3f 3f fe 00 3f 3f 3f 3f 3f 3f     ..??????..??????
    4413:	fe fe 00 3f 3f 3f 3f 3f fe fe fe 00 3f 3f 3f 3f     ...?????....????
    4423:	fe fe fe fe 00 00 3f 3f fe fe fe fe fe fe 00 00     ......??........
	...
    443b:	3f 3f 3f 3f 3f 3f 3f 00 3f 3f 3f 3f 3f 3f 00 fe     ???????.??????..
    444b:	3f 3f 3f 3f 3f 3f 00 fe 3f 3f 3f 3f 3f 00 fe fe     ??????..?????...
    445b:	3f 3f 3f 3f 00 fe fe fe 3f 3f 00 00 fe fe fe fe     ????....??......
    446b:	00 00 fe fe fe fe fe fe fe fe fe fe fe fe fe fe     ................
    447b:	00 00 fe fe fe fe fe fe 3f 3f 00 00 fe fe fe fe     ........??......
    448b:	3f 3f 3f 3f 00 00 00 fe 3f 3f 3f 3f 3f 3f 00 fe     ????....??????..
    449b:	3f 3f 3f 3f 3f 00 fe fe 3f 3f 3f 00 00 fe fe fe     ?????...???.....
    44ab:	00 00 00 fe fe fe fe fe fe fe fe fe fe fe fe fe     ................
    44bb:	00 fe fe fe fe fe fe fe 3f 00 fe fe fe fe fe fe     ........?.......
    44cb:	3f 3f 00 fe fe fe fe fe 3f 3f 3f 00 fe fe fe fe     ??......???.....
    44db:	3f 3f 3f 3f 00 fe fe fe 3f 3f 00 00 fe fe fe fe     ????....??......
    44eb:	00 00 fe fe fe fe fe fe fe 07 07 07 07 ff ff 07     ................
    44fb:	fe 07 07 07 07 07 07 07 fe 07 07 07 07 07 07 07     ................
    450b:	fe 07 07 07 07 07 07 07 fe 07 07 07 07 07 07 07     ................
    451b:	fe 07 07 07 07 07 07 07 fe 07 07 fe 07 07 07 fe     ................
    452b:	fe 07 fe fe fe 07 07 fe 07 07 07 ff ff 07 07 fe     ................
    453b:	07 07 07 07 07 07 07 fe 07 07 07 07 07 07 07 fe     ................
    454b:	07 07 07 07 07 07 07 fe 07 07 07 07 07 07 07 fe     ................
    455b:	07 07 07 07 07 07 07 fe fe 07 07 07 fe 07 07 fe     ................
    456b:	fe 07 07 fe fe fe 07 fe fe c9 c9 c9 c9 c9 c9 c9     ................
    457b:	fe c9 c9 c9 c9 c9 c9 c9 fe c9 c9 c9 c9 c9 c9 c9     ................
    458b:	fe c9 c9 ff ff c9 c9 ff fe c9 ff c9 c9 ff ff c9     ................
    459b:	fe c9 c9 c9 c9 c9 c9 c9 fe c9 c9 fe c9 c9 c9 fe     ................
    45ab:	fe c9 fe fe fe c9 c9 fe c9 c9 c9 c9 c9 c9 c9 fe     ................
    45bb:	c9 c9 c9 c9 c9 c9 c9 fe c9 c9 c9 c9 c9 c9 c9 fe     ................
    45cb:	ff c9 c9 ff ff c9 c9 fe c9 ff ff c9 c9 ff c9 fe     ................
    45db:	c9 c9 c9 c9 c9 c9 c9 fe fe c9 c9 c9 fe c9 c9 fe     ................
    45eb:	fe c9 c9 fe fe fe c9 fe 05 05 07 07 ff ff e0 e0     ................
    45fb:	fe 05 05 07 ff ff ff ff fe fe 05 07 07 ff ff 07     ................
    460b:	fe fe 05 05 07 07 07 07 fe fe fe 05 05 07 07 ff     ................
    461b:	fe fe fe 05 05 05 07 07 fe fe fe fe fe fe 05 05     ................
    462b:	fe fe fe fe fe fe 05 05 07 07 ff ff e0 e0 07 07     ................
    463b:	07 07 ff ff ff ff 07 fe 07 07 07 ff ff 07 fe fe     ................
    464b:	07 07 07 07 07 07 fe fe ff ff 07 07 07 fe fe fe     ................
    465b:	07 07 07 07 07 fe fe fe 07 07 fe fe fe fe fe fe     ................
    466b:	05 07 fe fe fe fe fe fe fe cf cf cf cf ff ff cf     ................
    467b:	fe cf cf cf cf cf cf cf fe cf cf cf cf cf cf cf     ................
    468b:	fe cf cf cf cf cf cf cf fe cf cf cf cf cf cf cf     ................
    469b:	fe cf cf cf cf cf cf cf fe cf cf fe cf cf cf fe     ................
    46ab:	fe cf fe fe fe cf cf fe cf cf cf ff ff cf cf fe     ................
    46bb:	cf cf cf cf cf cf cf fe cf cf cf cf cf cf cf fe     ................
    46cb:	cf cf cf cf cf cf cf fe cf cf cf cf cf cf cf fe     ................
    46db:	cf cf cf cf cf cf cf fe fe cf cf cf fe cf cf fe     ................
    46eb:	fe cf cf fe fe fe cf fe                             ........

000046f3 <blob1>:
    46f3:	02 02 08 09 15 16                                   ......

000046f9 <blob0>:
    46f9:	02 02 0c 0d 19 1a                                   ......

000046ff <run1>:
    46ff:	02 02 0a 0b 17 18                                   ......

00004705 <run0>:
    4705:	02 02 0a 0b 17 18                                   ......

0000470b <owl1>:
    470b:	02 02 08 09 15 16                                   ......

00004711 <owl0>:
    4711:	02 02 06 07 13 14                                   ......

00004717 <pac2>:
    4717:	02 02 04 05 0f 12                                   ......

0000471d <pac1>:
    471d:	02 02 02 03 0f 11                                   ......

00004723 <pac0>:
    4723:	02 02 00 01 0f 10                                   ......

00004729 <uMTiles>:
    4729:	66 6e 5d 02 f6 6e 66 66 5d 5d 5c 02 6e 5d 5d 5d     fn]..nff]]\.n]]]
    4739:	0b 0b 0b 01 1d 0b 0b 14 53 0b 0b 0b 13 0b 0b 0a     ........S.......
    4749:	ad 65 65 65 65 65 5c 01 77 66 65 65 65 66 5c 02     .eeeee\.wfeeef\.
    4759:	1d 0b 0b 14 0b 0b 0b 01 13 0b 0b 0a 53 0b 0b 0b     ............S...
    4769:	66 6e 5d 02 f6 6e 66 66 5d 5d 5c 02 6e 5d 5d 5d     fn]..nff]]\.n]]]
    4779:	0b 0b 0b 01 1d 0b 0b 14 53 0b 0b 0b 13 0b 0b 0a     ........S.......
    4789:	ae 65 65 65 65 65 5c 01 77 65 65 65 65 66 5c 02     .eeeee\.weeeef\.
    4799:	1d 0b 0b 14 0b 0b 0b 01 13 0b 0b 0a 53 0b 0b 0b     ............S...
    47a9:	77 77 76 6e 6e 6e 6e 6e 6e 6e 6e 66 6e 66 66 66     wwvnnnnnnnnfnfff
    47b9:	6e 5d 5d 1d 1d 5d 5d 65 6e 5d 5d 5d 5d 1d 15 ae     n]]..]]en]]]]...
    47c9:	6e 65 1d ae b6 66 5d b6 6e 65 5d 5d b7 f6 f6 77     ne...f].ne]]...w
    47d9:	6e 65 5d 1d 65 bf fe 77 6e 65 5d 5d 1d 6e b7 77     ne].e..wne]].n.w
    47e9:	6e 6e 6e 6e 6e 6e 6e 5d 6e 6e 66 6e 66 6e 66 0b     nnnnnnn]nnfnfnf.
    47f9:	5d 5d 5d 1d 5d 65 5c 02 5d 0b 1d 5d 5d 5d 14 02     ]]].]e\.]..]]]..
    4809:	76 13 65 b7 65 14 14 02 7f 76 b7 76 13 5d 14 02     v.e.e....v.v.]..
    4819:	77 7f 7f 1c 14 5d 14 02 77 7f 6d 0b 5d 5d 14 02     w....]..w.m.]]..
    4829:	1d 1d 1d 1d 1d 00 00 1c 1d 1d 1d 1d 1c 00 00 00     ................
    4839:	1d 1d 1d 1c 1c 1c 1c 00 1d 1c 1c 1c 1c 1c 1c 00     ................
    4849:	1d 1c 1c 1c 1c 1c 1c 00 1d 1c 1c 1c 1c 1c 1c 00     ................
    4859:	1c 1c 1c 1c 1c 00 00 00 1c 1c 1c 1c 00 00 00 00     ................
    4869:	1c 1d 1d 1d 1c 1d 1d 00 1d 1d 1d 1c 1c 00 00 1c     ................
    4879:	1d 1c 1c 1c 1c 1c 1c 00 1d 1c 1c 1c 1c 1c 1c 00     ................
    4889:	1d 1c 1c 1c 1c 1c 1c 00 1d 1c 1c 1c 1c 00 00 1c     ................
    4899:	1d 1c 1c 1c 1c 00 00 1d 1d 1c 1c 1c 00 00 00 1d     ................
    48a9:	1c 1d 1d 1d 1c 1d 1d 00 1d 1d 1d 1c 1c 00 00 1c     ................
    48b9:	1d 1c 1c 1c 1c 1c 1c 00 1d 1c 1c 1c 1c 1c 1c 00     ................
    48c9:	1d 1c 1c 1c 1c 1c 1c 00 1d 1c 1c 1c 1c 00 00 e4     ................
    48d9:	1d 1c 1c 1c 1c 00 e4 e4 1d 1c 1c 1c 00 00 e4 e4     ................
    48e9:	00 1d 1d 1d 1d 00 00 1c 00 1d 1d 1d 1c 00 00 00     ................
    48f9:	00 1d 1d 1c 1c 1c 1c 00 00 1d 1c 1c 1c 1c 1c 00     ................
    4909:	00 00 00 1c 1c 1c 1c 00 e4 00 00 1c 1c 1c 1c 00     ................
    4919:	e4 e4 00 00 1c 00 00 00 e4 e4 e4 00 00 00 00 00     ................
    4929:	77 77 77 77 6e 6e 6e 6e 6e 6e 6e 6e 6e 6e 6e 5d     wwwwnnnnnnnnnnn]
    4939:	77 6e 0a 0a 0a 14 5d 0a 6e 6e 0a 14 14 5d 6e 0a     wn....].nn...]n.
    4949:	6e 6e 0a 14 14 6e 6e 0a 6e 6e 0a 14 14 6e 6e 0a     nn...nn.nn...nn.
    4959:	6e 6e 0a 14 14 6e 6e 0a 6e 6e 0a 14 14 6e 6e 0a     nn...nn.nn...nn.
    4969:	e4 e4 e4 e4 e4 e4 e4 e4 e4 e4 e4 e4 e4 e4 e4 e4     ................
    4979:	e4 e4 e4 e4 e4 e4 e4 e4 e4 e4 e4 e4 e4 e4 e4 e4     ................
    4989:	e4 e4 e4 e4 e4 e4 e4 e4 e4 e4 e4 e4 e4 e4 e4 e4     ................
    4999:	e4 e4 e4 e4 e4 e4 e4 e4 e4 e4 e4 e4 e4 e4 e4 e4     ................
    49a9:	e4 e4 e4 e4 e4 e4 e4 e4 e4 e4 e4 e4 e4 e4 e4 a4     ................
    49b9:	e4 e4 e4 e4 e4 9c 53 14 e4 e4 e4 e4 5b 0b 0b 0a     ......S.....[...
    49c9:	e4 e4 a4 65 65 65 5c 01 e4 e4 65 65 65 66 5c 02     ...eee\...eeef\.
    49d9:	e4 9c 0b 14 0b 0b 0b 01 e4 53 0b 0a 53 0b 0b 0b     .........S..S...
    49e9:	e4 a4 e4 e4 e4 e4 a5 a5 5d 5d 5c 02 6e 5d 5d 5d     ........]]\.n]]]
    49f9:	0b 0b 0b 01 1d 0b 0b 14 53 0b 0b 0b 13 0b 0b 0a     ........S.......
    4a09:	ae 65 65 65 65 65 5c 01 77 65 65 65 5b 13 09 00     .eeeee\.weee[...
    4a19:	1d 0b 0b 0a 00 00 00 00 13 0b 01 00 00 00 00 00     ................
    4a29:	66 6e 5d 02 f6 6e 66 a4 5d 5d 5c 02 6e 5d 5d 5d     fn]..nf.]]\.n]]]
    4a39:	0b 0b 0b 01 1d 0b 0b 14 53 0b 0b 0b 13 0b 0b 0a     ........S.......
    4a49:	ad 65 65 65 65 65 5c 01 00 00 09 53 5c 66 5c 02     .eeeee\....S\f\.
    4a59:	00 00 00 00 00 0a 0b 01 00 00 00 00 00 00 01 0b     ................
    4a69:	e4 e4 e4 e4 e4 e4 e4 e4 9d e4 e4 e4 e4 e4 e4 e4     ................
    4a79:	0b 0b 53 9b e4 e4 e4 e4 53 0b 0b 0b 9c e4 e4 e4     ..S.....S.......
    4a89:	ae 65 65 65 65 e4 e4 e4 77 65 65 65 65 a5 e4 e4     .eeee...weeee...
    4a99:	1d 0b 0b 14 0b 0b 9c e4 13 0b 0b 0a 53 0b 0b 9c     ............S...
    4aa9:	66 6e 5d 02 f6 6e 5d 01 5d 5d 5c 02 6e 5d 54 00     fn]..n].]]\.n]T.
    4ab9:	0b 0b 0b 01 1d 0b 0a 00 53 0b 0b 0b 13 0b 0a 00     ........S.......
    4ac9:	ad 65 65 65 65 65 53 00 77 66 65 65 65 66 52 00     .eeeeeS.wfeeefR.
    4ad9:	1d 0b 0b 14 0b 0b 0a 00 13 0b 0b 0a 53 0b 0a 00     ............S...
	...
    4b29:	00 09 5d 02 f6 6e 66 66 00 09 5c 02 6e 5d 5d 5d     ..]..nff..\.n]]]
    4b39:	00 00 0b 01 1d 0b 0b 14 00 00 0b 0b 13 0b 0b 0a     ................
    4b49:	00 00 65 65 65 65 5c 01 00 00 65 65 65 66 5c 02     ..eeee\...eeef\.
    4b59:	00 00 0b 14 0b 0b 0b 01 00 00 0b 0a 53 0b 0b 0b     ............S...
    4b69:	65 65 5c 01 ae 65 65 65 65 66 5c 02 77 65 65 65     ee\..eeeef\.weee
    4b79:	0b 0b 0b 01 1d 0b 0b 14 53 0b 0b 0b 13 0b 0b 0a     ........S.......
    4b89:	ad 65 65 65 65 65 5c 01 6f 65 5d 65 65 65 5c 02     .eeeee\.oe]eee\.
    4b99:	65 14 14 14 14 14 0b 02 0a 0a 0a 0a 0a 0a 0a 0a     e...............
    4ba9:	65 65 5c 01 ae 65 65 65 65 66 5c 02 77 65 65 65     ee\..eeeef\.weee
    4bb9:	0b 0b 0b 01 1d 0b 0b 14 53 0b 0b 0b 13 0b 0b 0a     ........S.......
    4bc9:	ae 65 65 65 65 65 5c 01 77 65 5d 65 65 65 5c 02     .eeeee\.we]eee\.
    4bd9:	65 14 14 14 14 14 0b 02 0a 0a 0a 0a 0a 0a 0a 0a     e...............
    4be9:	6e 65 5d 5d 1d ae b6 77 6e 65 5d 1d 65 ff ff b6     ne]]...wne].e...
    4bf9:	6e 65 5d 5d ff 76 6e f6 6e 5d 1d ae 76 13 13 f6     ne]].vn.n]..v...
    4c09:	6e 65 5d 65 13 14 14 ae 6e 5d 5c 1c 14 5c 5d 5d     ne]e....n]\..\]]
    4c19:	65 0b 0a 0a 0b 0a 0a 0a 0a 02 02 02 02 02 02 02     e...............
    4c29:	77 77 6e 5d 5d 5d 14 02 77 7f 7f 65 5c 5d 14 02     wwn]]]..w..e\]..
    4c39:	77 6e 76 7f 65 5d 14 02 76 13 13 76 65 5d 14 02     wnv.e]..v..ve]..
    4c49:	65 14 14 13 13 5d 5c 02 54 5c 5d 14 14 5c 14 02     e....]\.T\]..\..
    4c59:	0a 0a 0a 0b 0b 0a 0a 0a 02 02 02 02 02 02 02 0a     ................
    4c69:	1c 1c 1c 00 00 00 00 00 1c 00 00 00 1d 1c 1c 00     ................
    4c79:	00 00 00 1d 1d 1c 1c 1c 00 1d 1d 1d 1c 1c 1c 1c     ................
    4c89:	00 1d 1d 1c 1c 1c 1c 00 00 1d 1d 1c 1c 1c 1c 1c     ................
    4c99:	00 1d 1d 1c 1c 1c 1c 1c 00 1d 1d 1c 1c 1c 1c 00     ................
    4ca9:	1c 1c 1c 00 1c 1c 1c 1c 00 00 00 1d 1d 1d 1d 00     ................
    4cb9:	00 1d 1d 1d 1c 1c 1c 00 00 1d 1d 1c 1c 1c 1c 1c     ................
    4cc9:	00 1d 1d 1c 1c 1c 1c 1c 00 1d 1d 1c 1c 1c 1c 1c     ................
    4cd9:	00 1d 1d 1c 1c 1c 1c 00 00 1d 1d 1c 1c 1c 1c 00     ................
    4ce9:	1c 1c 1c 00 1c e4 e4 e4 00 00 00 1c 00 e4 e4 e4     ................
    4cf9:	00 1d 1d 1c 00 e4 e4 e4 00 1d 1d 1c 00 e4 e4 e4     ................
    4d09:	00 1d 1c 00 00 e4 e4 e4 00 1d 1c 00 e4 e4 e4 e4     ................
    4d19:	00 1d 1c 00 e4 e4 e4 e4 00 1d 1c 00 e4 e4 e4 e4     ................
    4d29:	e4 e4 e4 00 00 00 00 00 e4 e4 e4 00 00 1d 1d 00     ................
    4d39:	e4 e4 e4 e4 00 1d 1c 1c e4 e4 e4 e4 00 1d 1c 1c     ................
    4d49:	e4 e4 e4 e4 00 1c 1c 00 e4 e4 e4 e4 00 1c 1c 1c     ................
    4d59:	e4 e4 e4 e4 00 1c 1c 1c e4 e4 e4 e4 00 1d 1c 00     ................
    4d69:	6e 6e 0a 14 14 77 6e 0a 6e 6e 0a 14 14 6e 6e 0a     nn...wn.nn...nn.
    4d79:	6e 6e 0a 14 14 77 6e 0a 6e 6e 0a 14 14 77 6e 0a     nn...wn.nn...wn.
    4d89:	6e 6e 14 5d 77 77 6e 0a 6e 6e 5d 6e 6e 6e 6e 0a     nn.]wwn.nn]nnnn.
    4d99:	6e 5d 0a 0a 0a 0a 0a 0a 5d 0a 0a 0a 0a 0a 0a 0a     n]......].......
    4da9:	a5 65 5c 01 ae 65 65 65 65 66 5c 02 77 65 65 65     .e\..eeeef\.weee
    4db9:	0b 0b 0b 01 1d 0b 0b 0a 53 0b 0b 0b 13 0b 0b 01     ........S.......
    4dc9:	ad 65 65 65 65 65 5b 00 6f 65 5d 65 65 65 53 00     .eeeee[.oe]eeeS.
    4dd9:	65 14 14 14 14 14 0a 00 0a 0a 0a 0a 0a 0a 09 00     e...............
    4de9:	5c 09 00 00 00 00 00 00 12 00 00 00 00 00 00 00     \...............
	...
    4e2d:	00 00 00 12 00 00 00 00 00 00 00 00 00 00 00 00     ................
	...
    4e69:	65 65 5c 01 ae 65 65 65 53 66 5c 02 77 65 65 65     ee\..eeeSf\.weee
    4e79:	00 0a 0b 01 1d 0b 0b 14 00 0a 0b 0b 13 0b 0b 0a     ................
    4e89:	00 12 65 65 65 65 5c 01 00 09 5d 65 65 65 5c 02     ..eeee\...]eee\.
    4e99:	00 01 14 14 14 14 0b 02 00 00 0a 0a 0a 0a 0a 0a     ................
    4ea9:	65 65 5c 01 ae 65 5b 00 65 66 5c 02 77 65 5b 00     ee\..e[.ef\.we[.
    4eb9:	0b 0b 0b 01 1d 0b 0a 00 53 0b 0b 0b 13 0b 0a 00     ........S.......
    4ec9:	ad 65 65 65 65 65 53 00 6f 65 5d 65 65 65 53 00     .eeeeeS.oe]eeeS.
    4ed9:	65 14 14 14 14 14 0a 00 0a 0a 0a 0a 0a 0a 0a 01     e...............
    4ee9:	00 00 5c 01 ae 65 65 65 00 00 5c 02 77 65 65 65     ..\..eee..\.weee
    4ef9:	00 00 0b 01 1d 0b 0b 14 00 00 0b 0b 13 0b 0b 0a     ................
    4f09:	00 09 65 65 65 65 5c 01 00 09 5d 65 65 65 5c 02     ..eeee\...]eee\.
    4f19:	00 09 14 14 14 14 0b 02 00 01 0a 0a 0a 0a 0a 0a     ................
    4f29:	00 1d 1d 1c 1c 1c 1c 00 1c 00 00 1d 1c 00 00 00     ................
    4f39:	1c 1c 1c 00 1d 00 00 1d 1c 1c 1c 00 00 1d 1d 1d     ................
    4f49:	1c 1c 1c 1c 00 1d 1d 1c 1c 1c 1c 1c 00 1d 1d 1c     ................
    4f59:	1c 1c 1c 00 00 1d 1d 1c 1c 1c 1c 00 00 1d 1d 1c     ................
    4f69:	00 00 00 1d 1c 00 00 00 1d 00 00 00 00 00 00 1d     ................
    4f79:	1d 1d 1d 00 1d 1d 1d 1c 1c 1c 1c 00 1d 1c 1c 1c     ................
    4f89:	1c 1c 1c 00 1d 1c 1c 1c 1c 1c 1c 00 1d 1c 1c 1c     ................
    4f99:	1c 1c 1c 00 1d 1c 1c 1c 1c 1c 1c 1c 00 1d 1d 1c     ................
    4fa9:	00 1d 1d 1c 1c 1c 1c 00 1c 00 00 1d 1c 1c 00 00     ................
    4fb9:	1c 1c 1c 00 1d 00 00 1d 1c 1c 1c 00 00 1d 1d 1d     ................
    4fc9:	1c 1c 1c 1c 00 1d 1d 1c 1c 1c 1c 1c 00 1d 1c 1c     ................
    4fd9:	1c 1c 1c 1c 00 1d 00 00 1c 1c 1c 00 00 00 00 e4     ................
    4fe9:	00 00 00 e4 e4 e4 e4 e4 1d 1c 00 e4 e4 e4 e4 e4     ................
    4ff9:	1d 1c 00 e4 e4 e4 e4 e4 1c 1c 00 e4 e4 e4 e4 e4     ................
    5009:	00 00 00 e4 e4 e4 e4 e4 00 e4 e4 e4 e4 e4 e4 e4     ................
    5019:	00 e4 e4 e4 e4 e4 e4 e4 e4 e4 e4 e4 e4 e4 e4 e4     ................
    5029:	e4 e4 e4 e4 00 00 1d 00 e4 e4 e4 e4 e4 00 00 00     ................
    5039:	e4 e4 e4 e4 e4 e4 00 1d e4 e4 e4 e4 e4 e4 00 1d     ................
    5049:	e4 e4 e4 e4 e4 e4 00 1c e4 e4 e4 e4 e4 e4 00 00     ................
    5059:	e4 e4 e4 e4 e4 e4 e4 00 e4 e4 e4 e4 e4 e4 e4 00     ................
    5069:	00 00 00 1d 1c 00 00 00 1d 00 00 00 00 00 00 1d     ................
    5079:	1d 1d 1d 00 1d 1d 1d 1c 1c 1c 1c 00 1d 1c 1c 1c     ................
    5089:	1c 1c 1c 00 1d 1c 1c 1c 1c 1c 1c 00 1d 1c 1c 1c     ................
    5099:	1c 1c 1c 00 1d 1c 1c 1c 00 00 00 1c 00 1d 1d 1c     ................
    50a9:	e4 e4 e4 e4 e4 e4 e4 e4 e4 e4 e4 e4 e4 e4 e4 ad     ................
    50b9:	e4 e4 e4 e4 e4 e4 ad b6 e4 e4 e4 e4 e4 e4 ad f6     ................
    50c9:	e4 e4 e4 e4 e4 ad f6 ff e4 e4 e4 e4 e4 ad f6 ff     ................
    50d9:	e4 e4 e4 e4 e4 b6 ff ff e4 e4 e4 e4 e4 ad f6 ff     ................
    50e9:	ad ad b6 ad ad e4 e4 e4 f6 f6 ff ff f6 ad e4 e4     ................
    50f9:	ff ff ff ff ff f6 e4 e4 ff ff ff ff ff ff ad e4     ................
    5109:	ff ff ff ff ff ff f6 e4 ff ff ff ff ff ff ff ad     ................
    5119:	ff ff ff ff ff ff ff ad ff ff ff ff ff ff ff ad     ................
    5129:	e4 e4 e4 e4 e4 e4 e4 e4 e4 e4 e4 e4 e4 e4 e4 e4     ................
    5139:	e4 e4 e4 e4 e4 e4 e4 e4 e4 e4 e4 e4 e4 e4 e4 e4     ................
    5149:	e4 e4 e4 e4 e4 e4 e4 e4 a4 ad ad ad ad e4 e4 e4     ................
    5159:	ad f6 f6 ff f6 ad e4 e4 f6 ff ff ff ff f6 ad e4     ................
    5169:	e4 e4 1a 63 64 6d 6e 6d e4 e4 1a 64 1a 64 6d 6d     ...cdmnm...d.dmm
    5179:	e4 e4 1a 63 63 6d 6d 6d e4 e4 11 1a 6d 64 64 6d     ...ccmmm....mddm
    5189:	e4 e4 1a 63 64 6d 6d 76 e4 e4 1a 63 63 6d 64 6d     ...cdmmv...ccmdm
    5199:	e4 e4 1a 64 63 64 64 76 e4 e4 11 1a 63 6d 6d 6d     ...dcddv....cmmm
    51a9:	6d 76 b7 b7 b7 b7 6e 76 6e 76 b7 b7 76 76 6e 6e     mv....nvnv..vvnn
    51b9:	6e 77 b7 b7 77 77 77 6e 6e 77 b7 b7 77 f7 6e 6d     nw..wwwnnw..w.nm
    51c9:	6e 77 b7 b7 b7 77 b7 76 76 b7 b7 b7 b7 b7 6e 6e     nw...w.vv.....nn
    51d9:	77 6e b7 b7 77 77 77 77 6d 77 b7 b7 77 77 77 6e     wn..wwwwmw..wwwn
    51e9:	1b 1a 6d 6d 76 77 77 b7 11 1a 64 63 6d 6e 6d 76     ..mmvww...dcmnmv
    51f9:	1a 63 64 1a 64 6d 6d 6e 11 1a 63 64 6d 6e 6e 77     .cd.dmmn..cdmnnw
    5209:	e4 11 11 1a 63 1a 63 1b e4 e4 11 11 19 63 1b 64     ....c.c......c.d
    5219:	e4 e4 11 63 63 6c 6d 6d e4 e4 19 64 63 64 6e 6d     ...cclmm...dcdnm
    5229:	b7 b7 b7 b7 b7 b7 b7 77 77 b7 b7 b7 76 6e 77 77     .......ww...vnww
    5239:	77 b7 b7 76 6e 77 76 76 77 b7 bf b7 77 77 77 77     w..vnwvvw...wwww
    5249:	64 64 64 63 64 64 64 64 65 63 6d 6d 6c 6d 6c 6c     dddcddddecmmlmll
    5259:	76 76 b7 b7 b7 77 77 76 6e b7 b7 b7 77 77 76 76     vv...wwvn...wwvv
    5269:	77 77 76 6e 6e 76 6e 6d 6e 6e 76 6e 6d 6d 64 64     wwvnnvnmnnvnmmdd
    5279:	6e 6e 6e 6d 6d 6d 64 6d 77 76 6e 76 64 6d 63 63     nnnmmmdmwvnvdmcc
    5289:	64 64 64 23 1a 1a 1a 11 63 63 63 1a 1a 19 11 08     ddd#....ccc.....
    5299:	76 76 6d 6d 6d 6d 1b 1a 6e 6d 76 6d 64 64 63 63     vvmmmm..nmvmddcc
    52a9:	1b 64 6c 1a 1a 63 11 11 63 64 63 11 11 1a 11 11     .dl..c..cdc.....
    52b9:	63 63 1a 11 11 11 11 11 63 1a 1a 1a 19 11 11 11     cc......c.......
    52c9:	11 11 11 11 11 11 11 e4 11 11 11 11 11 11 e4 e4     ................
    52d9:	63 1a 08 11 11 11 e4 e4 19 19 11 11 11 11 e4 e4     c...............
    52e9:	e8 e8 9a 9a 9a 9a 9a 9a e8 e8 e8 e8 e8 e8 9a 9a     ................
    52f9:	9a 9a e8 f5 f5 f5 e8 e8 9a 9a 9a 9a 9a 9a f5 f5     ................
    5309:	e8 e8 9a 9a 9a 9a 9a 9a e8 e8 e8 e8 e8 e8 9a 9a     ................
    5319:	9a 9a e8 f5 f5 f5 e8 e8 9a 9a 9a 9a 9a 9a f5 f5     ................
    5329:	9a 9a 9a 9a 9a 9a e8 e8 9a 9a e8 e8 e8 e8 e8 e8     ................
    5339:	e8 e8 f5 f5 f5 e8 9a 9a f5 f5 9a 9a 9a 9a 9a 9a     ................
    5349:	9a 9a 9a 9a 9a 9a e8 e8 9a 9a e8 e8 e8 e8 e8 e8     ................
    5359:	e8 e8 f5 f5 f5 e8 9a 9a f5 f5 9a 9a 9a 9a 9a 9a     ................
    5369:	9a 9a 9a 9a 9a 9a f5 f5 e8 e8 9a 9a 9a 9a 9a 9a     ................
    5379:	e8 e8 e8 e8 e8 e8 9a 9a 9a 9a e8 f5 f5 f5 e8 e8     ................
    5389:	9a 9a 9a 9a 9a 9a f5 f5 e8 e8 9a 9a 9a 9a 9a 9a     ................
    5399:	e8 e8 e8 e8 e8 e8 9a 9a 9a 9a e8 f5 f5 f5 e8 e8     ................
    53a9:	f5 f5 9a 9a 9a 9a 9a 9a 9a 9a 9a 9a 9a 9a e8 e8     ................
    53b9:	9a 9a e8 e8 e8 e8 e8 e8 e8 e8 f5 f5 f5 e8 9a 9a     ................
    53c9:	f5 f5 9a 9a 9a 9a 9a 9a 9a 9a 9a 9a 9a 9a e8 e8     ................
    53d9:	9a 9a e8 e8 e8 e8 e8 e8 e8 e8 f5 f5 f5 e8 9a 9a     ................
    53e9:	e4 e4 e4 e4 e4 e4 e4 e4 e4 e4 e4 e4 e4 e4 e4 e4     ................
    53f9:	e4 e4 e4 e4 e4 e4 e4 e4 e4 e4 e4 e4 e4 e4 74 74     ..............tt
    5409:	e4 e4 e4 e4 e4 74 74 74 e4 e4 e4 e4 e4 74 74 74     .....ttt.....ttt
    5419:	e4 e4 e4 e4 e4 74 74 74 e4 e4 e4 74 74 74 74 74     .....ttt...ttttt
    5429:	e4 e4 e4 e4 e4 e4 e4 e4 74 e4 e4 e4 74 74 e4 e4     ........t...tt..
    5439:	74 e4 74 74 74 74 e4 74 74 74 e4 e4 74 74 74 e4     t.tttt.ttt..ttt.
    5449:	74 e4 74 74 74 74 74 74 74 74 74 74 74 74 74 74     t.tttttttttttttt
    5459:	74 74 74 74 74 74 74 74 74 74 74 74 74 74 74 74     tttttttttttttttt
    5469:	e4 e4 e4 e4 e4 e4 e4 e4 e4 74 e4 e4 e4 e4 e4 e4     .........t......
    5479:	e4 74 e4 e4 e4 e4 e4 e4 74 74 74 e4 e4 e4 e4 e4     .t......ttt.....
    5489:	74 74 74 e4 e4 e4 74 e4 74 74 74 74 e4 74 e4 e4     ttt...t.tttt.t..
    5499:	74 74 74 e4 74 74 74 e4 e4 74 74 74 74 74 74 e4     ttt.ttt..tttttt.
    54a9:	77 77 77 77 6e 6e 6e 6e 6e 6e 6e 6e 6e 6e 6e 6e     wwwwnnnnnnnnnnnn
    54b9:	77 6e 0a 0a 0a 0a 0a 0a 6e 6e 0a 14 14 14 14 14     wn......nn......
    54c9:	6e 6e 0a 14 14 14 14 14 6e 6e 0a 14 14 5d 5d 5d     nn......nn...]]]
    54d9:	6e 6e 0a 14 14 5d 5d 5d 6e 6e 0a 14 14 5d 5d 5d     nn...]]]nn...]]]
    54e9:	6e 6e 6e 6e 6e 6e 6e 5d 6e 6e 6e 6e 6e 6e 5d 0a     nnnnnnn]nnnnnn].
    54f9:	0a 0a 0a 0a 14 5d 0a 0a 14 14 14 14 5d 6e 0a 0a     .....]......]n..
    5509:	14 14 14 14 6e 6e 0a 0a 5d 5d 5d 14 6e 6e 0a 0a     ....nn..]]].nn..
    5519:	5d 5d 5d 14 6e 6e 0a 0a 5d 5d 5d 14 6e 6e 0a 0a     ]]].nn..]]].nn..
    5529:	e4 e4 e4 e4 e4 e4 e4 00 e4 e4 e4 e4 e4 e4 00 ff     ................
    5539:	e4 e4 e4 e4 e4 00 ff ff e4 e4 e4 e4 00 ff ff ff     ................
    5549:	e4 e4 e4 00 ff 3a ff 3a e4 e4 e4 00 ff ff 3a 3a     .....:.:......::
    5559:	e4 e4 e4 00 ff ff 3a 3a e4 e4 e4 00 ff ff 3a 3a     ......::......::
    5569:	00 e4 e4 e4 e4 e4 e4 e4 3a 00 e4 e4 e4 e4 e4 e4     ........:.......
    5579:	3a 3a 00 e4 e4 e4 e4 e4 3a 3a 3a 00 e4 e4 e4 e4     ::......:::.....
    5589:	00 3a 00 3a 00 e4 e4 e4 3a 00 3a 3a 00 e4 e4 e4     .:.:....:.::....
    5599:	3a 00 3a 3a 00 e4 e4 e4 3a 00 3a 3a 00 e4 e4 e4     :.::....:.::....
    55a9:	e4 e4 e4 e4 e4 e4 e4 00 e4 e4 e4 e4 e4 e4 e4 00     ................
    55b9:	e4 e4 e4 e4 e4 e4 00 3f e4 e4 e4 e4 e4 00 3f 3f     .......?......??
    55c9:	e4 e4 e4 e4 00 3f 3f 3f e4 e4 e4 e4 00 3f 00 3f     .....???.....?.?
    55d9:	e4 e4 e4 e4 00 3f 00 3f e4 e4 e4 e4 00 3f 00 3f     .....?.?.....?.?
    55e9:	00 e4 e4 e4 e4 e4 e4 e4 00 e4 e4 e4 e4 e4 e4 e4     ................
    55f9:	3f 00 e4 e4 e4 e4 e4 e4 3f 3f 00 e4 e4 e4 e4 e4     ?.......??......
    5609:	3f 3f 3f 00 e4 e4 e4 e4 3f 00 3f 00 e4 e4 e4 e4     ???.....?.?.....
    5619:	3f 00 3f 00 e4 e4 e4 e4 3f 00 3f 00 e4 e4 e4 e4     ?.?.....?.?.....
    5629:	e4 e4 e4 e4 a4 ad ad f6 e4 e4 e4 ad ad f6 f6 b6     ................
    5639:	e4 e4 ad f6 ff ff ff ff e4 ad f6 ff ff ff ff ff     ................
    5649:	e4 ad ff ff ff ff ff ff ad f6 ff ff ff ff ff ff     ................
    5659:	ad f6 ff ff ff ff ff ff ad ff ff ff ff ff ff ff     ................
    5669:	ff ff ff ff ff ff ff ad f6 ff ff ff ff ff ff ad     ................
    5679:	f6 ff ff ff ff ff ff ad ff ff ff ff ff ff ff ad     ................
    5689:	ff ff ff ff ff ff f6 f6 ff ff ff ff ff ff b6 ff     ................
    5699:	ff ff ff ff ff f6 f6 ff ff ff ff ff ff f6 ff ff     ................
    56a9:	f6 ff ff ff ff ff f6 e4 ff ff ff ff ff ff ff ad     ................
    56b9:	ff ff ff ff ff ff ff b6 ff ff ff ff ff ff ff f6     ................
    56c9:	ff ff ff ff ff ff ff ff ff ff ff ff ff ff ff ff     ................
    56d9:	ff ff ff ff ff ff ff ff ff ff ff ff ff ff ff b6     ................
    56e9:	e4 e4 e4 e4 e4 e4 e4 e4 e4 e4 e4 e4 e4 e4 e4 e4     ................
    56f9:	e4 e4 e4 e4 e4 e4 e4 e4 e4 e4 e4 e4 e4 e4 e4 e4     ................
    5709:	a4 ad ad ad ad ad e4 e4 a4 b6 f6 ff ff b6 ad e4     ................
    5719:	ad ff ff ff ff ff b6 e4 b6 ff ff ff ff ff ff ad     ................
    5729:	e4 e4 1a 63 63 6d 64 6d e4 e4 1a 64 63 64 64 76     ...ccmdm...dcddv
    5739:	e4 e4 11 1a 63 6d 6d 6d e4 e4 1a 63 64 6d 6e 6d     ....cmmm...cdmnm
    5749:	e4 e4 1a 64 1a 64 6d 6d e4 e4 1a 63 63 6d 6d 6d     ...d.dmm...ccmmm
    5759:	e4 e4 1a 63 63 6d 6d 6d e4 e4 11 1a 6d 64 64 6d     ...ccmmm....mddm
    5769:	76 b7 b7 b7 b7 b7 6e 6e 77 6e b7 b7 77 77 77 77     v.....nnwn..wwww
    5779:	6d 77 b7 b7 77 77 77 6e 6d 76 b7 b7 b7 b7 6e 76     mw..wwwnmv....nv
    5789:	6e 76 b7 b7 76 76 6e 6e 6e 77 b7 b7 77 77 77 6e     nv..vvnnnw..wwwn
    5799:	6e 77 b7 b7 77 77 77 6e 6e 77 b7 b7 77 f7 6e 6d     nw..wwwnnw..w.nm
    57a9:	e4 e4 1a 63 63 6d 64 6d e4 e4 1a 64 63 64 64 76     ...ccmdm...dcddv
    57b9:	e4 e4 11 1a 63 6d 6d 6d e4 e4 1a 63 64 6d 6e 6d     ....cmmm...cdmnm
    57c9:	e4 e4 1a 64 1a 64 6d 6d e4 e4 1a 63 63 6d 6d 6d     ...d.dmm...ccmmm
    57d9:	e4 e4 11 1a 6d 64 64 6d e4 e4 1a 63 64 6d 6d 76     ....mddm...cdmmv
    57e9:	76 b7 b7 b7 b7 b7 6e 6e 77 6e b7 b7 77 77 77 77     v.....nnwn..wwww
    57f9:	6d 77 b7 b7 77 77 77 6e 6d 76 b7 b7 b7 b7 6e 76     mw..wwwnmv....nv
    5809:	6e 76 b7 b7 76 76 6e 6e 6e 77 b7 b7 77 77 77 6e     nv..vvnnnw..wwwn
    5819:	6e 77 b7 b7 77 f7 6e 6d 6e 77 b7 b7 b7 77 b7 76     nw..w.nmnw...w.v
    5829:	6e 6e 6d 64 6d 63 6d 63 6e 76 6d 64 6d 64 63 1b     nnmdmcmcnvmdmdc.
    5839:	6e 6e 6d 64 6c 6d 63 63 76 6e 6d 76 64 64 63 64     nnmdlmccvnmvddcd
    5849:	6e 6e 6d 6d 64 64 64 1b 6e 6e 6d 64 64 63 63 63     nnmmddd.nnmddccc
    5859:	76 6d 6c 6d 6d 6d 64 63 6e 6e 76 6d 64 63 6d 64     vmlmmmdcnnvmdcmd
    5869:	1a 63 19 19 11 11 e4 e4 63 1a 11 11 11 11 e4 e4     .c......c.......
    5879:	63 11 1a 19 11 11 e4 e4 64 1a 11 11 11 11 e4 e4     c.......d.......
    5889:	63 1a 11 11 11 11 e4 e4 11 1a 19 19 11 11 e4 e4     c...............
    5899:	23 1a 11 19 11 09 e4 e4 63 1a 1a 11 11 11 e4 e4     #.......c.......
    58a9:	e8 e8 9a 9a 9a 9a 9a 9a e8 e8 e8 e8 e8 e8 9a 9a     ................
    58b9:	9a 9a e8 f5 f5 f5 e8 e8 9a 9a 9a 9a 9a 9a f5 f5     ................
    58c9:	e8 e8 9a 9a 9a 9a 9a 9a e8 e8 e8 e8 e8 e8 9a 9a     ................
    58d9:	f5 f5 e8 f5 f5 f5 e8 e8 f5 f5 f5 f5 f5 f5 f5 f5     ................
    58e9:	9a 9a 9a 9a 9a 9a e8 e8 9a 9a e8 e8 e8 e8 e8 e8     ................
    58f9:	e8 e8 f5 f5 f5 e8 9a 9a f5 f5 9a 9a 9a 9a 9a 9a     ................
    5909:	9a 9a 9a 9a 9a 9a e8 e8 9a 9a e8 e8 e8 e8 e8 e8     ................
    5919:	e8 e8 f5 f5 f5 e8 f5 f5 f5 f5 f5 f5 f5 f5 f5 f5     ................
    5929:	9a 9a 9a 9a 9a 9a f5 f5 e8 e8 9a 9a 9a 9a 9a 9a     ................
    5939:	e8 e8 e8 e8 e8 e8 9a 9a 9a 9a e8 f5 f5 f5 e8 e8     ................
    5949:	9a 9a 9a 9a 9a 9a f5 f5 e8 e8 9a 9a 9a 9a 9a 9a     ................
    5959:	e8 e8 e8 e8 e8 e8 9a 9a f5 f5 e8 f5 f5 f5 e8 e8     ................
    5969:	f5 f5 9a 9a 9a 9a 9a 9a 9a 9a 9a 9a 9a 9a e8 e8     ................
    5979:	9a 9a e8 e8 e8 e8 e8 e8 e8 e8 f5 f5 f5 e8 9a 9a     ................
    5989:	f5 f5 9a 9a 9a 9a 9a 9a 9a 9a 9a 9a 9a 9a e8 e8     ................
    5999:	9a 9a e8 e8 e8 e8 e8 e8 e8 e8 f5 f5 f5 e8 f5 f5     ................
    59a9:	e4 e4 e4 74 74 74 74 74 e4 e4 e4 e4 74 74 74 74     ...ttttt....tttt
    59b9:	e4 e4 e4 e4 e4 74 74 74 e4 e4 e4 e4 74 74 e4 74     .....ttt....tt.t
    59c9:	e4 e4 e4 e4 e4 e4 74 74 e4 e4 e4 e4 e4 74 74 74     ......tt.....ttt
    59d9:	e4 e4 e4 74 74 74 74 74 e4 e4 e4 e4 74 74 74 74     ...ttttt....tttt
    59e9:	74 74 74 74 74 74 74 74 74 74 74 74 74 74 74 74     tttttttttttttttt
    59f9:	74 74 74 74 74 74 74 74 74 74 74 74 74 74 74 74     tttttttttttttttt
    5a09:	74 74 74 74 74 74 74 74 74 74 74 74 74 74 74 74     tttttttttttttttt
    5a19:	74 74 74 74 74 74 74 74 74 74 74 74 74 74 74 74     tttttttttttttttt
    5a29:	74 74 74 74 74 74 e4 e4 74 74 74 74 74 e4 e4 e4     tttttt..ttttt...
    5a39:	74 74 74 74 74 e4 74 e4 74 74 74 74 74 74 e4 e4     ttttt.t.tttttt..
    5a49:	74 74 74 74 74 74 74 e4 74 74 74 74 74 74 e4 e4     ttttttt.tttttt..
    5a59:	74 74 74 74 74 74 e4 74 74 74 74 74 74 74 74 e4     tttttt.tttttttt.
    5a69:	6e 6e 0a 14 14 5d 5d 5d 6e 6e 0a 14 14 5d 5d 5d     nn...]]]nn...]]]
    5a79:	6e 6e 0a 14 14 5d 5d 5d 6e 6e 0a 14 14 14 14 14     nn...]]]nn......
    5a89:	6e 6e 14 5d 6e 6e 6e 6e 6e 6e 5d 6e 6e 6e 6e 6e     nn.]nnnnnn]nnnnn
    5a99:	6e 5d 0a 0a 0a 0a 0a 0a 5d 0a 0a 0a 0a 0a 0a 0a     n]......].......
    5aa9:	5d 5d 5d 14 77 6e 0a 0a 5d 5d 5d 14 6e 6e 0a 0a     ]]].wn..]]].nn..
    5ab9:	5d 5d 5d 14 77 6e 0a 0a 14 14 14 14 77 6e 0a 0a     ]]].wn......wn..
    5ac9:	6e 6e 77 77 77 6e 0a 0a 6e 6e 6e 6e 6e 6e 0a 0a     nnwwwn..nnnnnn..
    5ad9:	0a 0a 0a 0a 0a 0a 0a 0a 0a 0a 0a 0a 0a 0a 0a 0a     ................
    5ae9:	e4 e4 e4 00 ff ff 3a 3a e4 e4 e4 00 ff ff 3a 3a     ......::......::
    5af9:	e4 e4 e4 00 ff 3a ff 3a e4 e4 e4 00 3a 3a 3a ff     .....:.:....:::.
    5b09:	e4 e4 e4 e4 00 3a 3a 3a e4 e4 e4 e4 e4 00 3a 3a     .....:::......::
    5b19:	e4 e4 e4 e4 e4 e4 00 3a e4 e4 e4 e4 e4 e4 e4 00     .......:........
    5b29:	3a 00 3a 3a 00 e4 e4 e4 3a 00 3a 3a 00 e4 e4 e4     :.::....:.::....
    5b39:	3a 00 3a 3a 00 e4 e4 e4 00 ff 00 3a 00 e4 e4 e4     :.::.......:....
    5b49:	3a 3a 3a 00 e4 e4 e4 e4 3a 3a 00 e4 e4 e4 e4 e4     :::.....::......
    5b59:	3a 00 e4 e4 e4 e4 e4 e4 00 e4 e4 e4 e4 e4 e4 e4     :...............
    5b69:	e4 e4 e4 e4 00 3f 3f 3f e4 e4 e4 e4 00 3f 3f 3f     .....???.....???
    5b79:	e4 e4 e4 e4 00 3f 3f 3f e4 00 e4 e4 00 3f 3f 3f     .....???.....???
    5b89:	00 3f 00 00 00 3f 3f 00 00 3f 3f 3f 3f 3f 3f 00     .?...??..??????.
    5b99:	e4 00 3f 3f 3f 3f 00 00 e4 e4 00 00 00 00 00 e4     ..????..........
    5ba9:	3f 3f 3f 00 e4 e4 e4 e4 3f 3f 3f 00 e4 e4 e4 e4     ???.....???.....
    5bb9:	3f 3f 3f 00 e4 e4 e4 e4 3f 3f 3f 00 e4 e4 00 e4     ???.....???.....
    5bc9:	00 3f 3f 00 00 00 3f 00 00 3f 3f 3f 3f 3f 3f 00     .??...?..??????.
    5bd9:	00 00 3f 3f 3f 3f 00 e4 e4 00 00 00 00 00 e4 e4     ..????..........
    5be9:	b6 f6 ff ff ff ff ff ff b6 f6 ff ff ff ff ff ff     ................
    5bf9:	b6 f6 ff ff ff ff ff ff ad f6 ff ff ff ff ff ff     ................
    5c09:	ad f6 f6 ff ff ff ff ff ad f6 f6 ff ff ff ff ff     ................
    5c19:	e4 ad f6 f6 ff ff ff ff e4 ad b6 f6 f6 f6 f6 ff     ................
    5c29:	ff ff ff ff ff ff ff ff ff ff ff ff ff ff ff ff     ................
    5c39:	ff ff ff ff ff ff ff ff ff ff ff ff ff ff ff ff     ................
    5c49:	ff ff ff ff ff ff ff ff ff ff ff ff ff ff ff ff     ................
    5c59:	ff ff ff ff ff ff ff ff ff ff ff ff ff ff ff ff     ................
    5c69:	ff ff ff ff ff ff ff ad ff ff ff ff ff ff ff ad     ................
    5c79:	ff ff ff ff ff ff ff ad ff ff ff ff ff ff ff f6     ................
    5c89:	ff ff ff ff ff ff ff f6 ff ff ff ff ff ff ff f6     ................
    5c99:	ff ff ff ff ff ff ff ff ff ff ff ff ff ff ff ff     ................
    5ca9:	ff ff ff ff ff ff ff ad ff ff ff ff ff ff ff ad     ................
    5cb9:	ff ff ff ff ff ff ff ad ff ff ff ff ff ff ff ad     ................
    5cc9:	ff ff ff ff ff ff ff ad ff ff ff ff ff ff ff ad     ................
    5cd9:	ff ff ff ff ff ff f6 a4 ff ff ff ff ff ff ad e4     ................
    5ce9:	6e 6e 6d 6d 64 64 64 1b 6e 6e 6d 64 64 63 63 63     nnmmddd.nnmddccc
    5cf9:	6e 6e 6d 6d 64 64 64 1b 6e 6e 6d 64 64 63 63 63     nnmmddd.nnmddccc
    5d09:	76 6d 6c 6d 6d 6d 64 63 6e 6e 76 6d 64 63 6d 64     vmlmmmdcnnvmdcmd
    5d19:	6e 6e 6d 64 6d 63 6d 63 6e 76 6d 64 6d 64 63 1b     nnmdmcmcnvmdmdc.
    5d29:	63 1a 11 11 11 11 e4 e4 11 1a 19 19 11 11 e4 e4     c...............
    5d39:	63 1a 11 11 11 11 e4 e4 11 1a 19 19 11 11 e4 e4     c...............
    5d49:	23 1a 11 19 11 09 e4 e4 63 1a 1a 11 11 11 e4 e4     #.......c.......
    5d59:	1a 63 19 19 11 11 e4 e4 63 1a 11 11 11 11 e4 e4     .c......c.......
    5d69:	e4 e4 1a 63 63 6d 64 6d e4 e4 1a 64 63 64 64 76     ...ccmdm...dcddv
    5d79:	e4 e4 11 1a 63 6d 6d 6d e4 e4 1a 63 63 6d 64 6d     ....cmmm...ccmdm
    5d89:	e4 e4 1a 64 63 64 64 76 e4 e4 11 1a 63 6d 6d 6d     ...dcddv....cmmm
    5d99:	e4 e4 1a 63 64 6d 6e 6d e4 e4 1a 64 1a 64 6d 6d     ...cdmnm...d.dmm
    5da9:	76 b7 b7 b7 b7 b7 6e 6e 77 6e b7 b7 77 77 77 77     v.....nnwn..wwww
    5db9:	6d 77 b7 b7 77 77 77 6e 76 b7 b7 b7 b7 b7 6e 6e     mw..wwwnv.....nn
    5dc9:	77 6e b7 b7 77 77 77 77 6d 77 b7 b7 77 77 77 6e     wn..wwwwmw..wwwn
    5dd9:	6d 76 b7 b7 b7 b7 6e 76 6e 76 b7 b7 76 76 6e 6e     mv....nvnv..vvnn
    5de9:	6e 6e 6d 64 6d 63 6d 63 6e 76 6d 64 6d 64 63 1b     nnmdmcmcnvmdmdc.
    5df9:	6e 6e 6d 64 6c 6d 63 63 6e 6e 6d 64 6d 63 6d 63     nnmdlmccnnmdmcmc
    5e09:	6e 76 6d 64 6d 64 63 1b 6e 6e 6d 64 6c 6d 63 63     nvmdmdc.nnmdlmcc
    5e19:	76 6e 6d 76 64 64 63 64 6e 6e 6d 6d 64 64 64 1b     vnmvddcdnnmmddd.
    5e29:	1a 63 19 19 11 11 e4 e4 63 1a 11 11 11 11 e4 e4     .c......c.......
    5e39:	63 11 1a 19 11 11 e4 e4 1a 63 19 19 11 11 e4 e4     c........c......
    5e49:	63 1a 11 11 11 11 e4 e4 63 11 1a 19 11 11 e4 e4     c.......c.......
    5e59:	64 1a 11 11 11 11 e4 e4 63 1a 11 11 11 11 e4 e4     d.......c.......
    5e69:	9a 9a e8 f5 f5 f5 e8 e8 9a 9a 9a 9a 9a 9a f5 f5     ................
    5e79:	e8 e8 9a 9a 9a 9a 9a 9a e8 e8 e8 e8 e8 e8 9a 9a     ................
    5e89:	9a 9a e8 f5 f5 f5 e8 e8 9a 9a 9a 9a 9a 9a f5 f5     ................
    5e99:	e8 e8 9a 9a 9a 9a 9a 9a e8 e8 e8 e8 e8 e8 9a 9a     ................
    5ea9:	e8 e8 f5 f5 f5 e8 9a 9a f5 f5 9a 9a 9a 9a 9a 9a     ................
    5eb9:	9a 9a 9a 9a 9a 9a e8 e8 9a 9a e8 e8 e8 e8 e8 e8     ................
    5ec9:	e8 e8 f5 f5 f5 e8 9a 9a f5 f5 9a 9a 9a 9a 9a 9a     ................
    5ed9:	9a 9a 9a 9a 9a 9a e8 e8 9a 9a e8 e8 e8 e8 e8 e8     ................
    5ee9:	e8 e8 e8 e8 e8 e8 9a 9a 9a 9a e8 f5 f5 f5 e8 e8     ................
    5ef9:	9a 9a 9a 9a 9a 9a f5 f5 e8 e8 9a 9a 9a 9a 9a 9a     ................
    5f09:	e8 e8 e8 e8 e8 e8 9a 9a 9a 9a e8 f5 f5 f5 e8 e8     ................
    5f19:	9a 9a 9a 9a 9a 9a f5 f5 e8 e8 9a 9a 9a 9a 9a 9a     ................
    5f29:	9a 9a e8 e8 e8 e8 e8 e8 e8 e8 f5 f5 f5 e8 9a 9a     ................
    5f39:	f5 f5 9a 9a 9a 9a 9a 9a 9a 9a 9a 9a 9a 9a e8 e8     ................
    5f49:	9a 9a e8 e8 e8 e8 e8 e8 e8 e8 f5 f5 f5 e8 9a 9a     ................
    5f59:	f5 f5 9a 9a 9a 9a 9a 9a 9a 9a 9a 9a 9a 9a e8 e8     ................
    5f69:	e4 e4 e4 74 74 74 74 74 e4 e4 e4 74 74 74 e4 74     ...ttttt...ttt.t
    5f79:	e4 e4 e4 e4 74 e4 74 74 e4 e4 e4 74 74 e4 e4 74     ....t.tt...tt..t
    5f89:	e4 e4 e4 e4 e4 e4 74 74 e4 e4 e4 e4 e4 74 74 74     ......tt.....ttt
    5f99:	e4 e4 e4 e4 e4 74 e4 74 e4 e4 e4 e4 e4 e4 e4 74     .....t.t.......t
    5fa9:	74 74 74 1d 74 74 74 74 1d 74 74 1d 74 74 74 74     ttt.tttt.tt.tttt
    5fb9:	1c 1d 1d 1d 74 74 74 1d 74 1c 1c 1c 74 74 74 1c     ....ttt.t...ttt.
    5fc9:	74 1d 1d 1c 1d 1c 1c 1c 74 74 74 1c 1c 1c 1c 1c     t.......ttt.....
    5fd9:	e4 74 74 1d 1c 1c 1c 74 74 e4 e4 74 1c 1c 1c e4     .tt....tt..t....
    5fe9:	74 1d 1d 74 74 74 74 74 1d 1d 1d 74 74 74 74 e4     t..ttttt...tttt.
    5ff9:	1c 74 74 74 74 e4 74 e4 74 74 74 74 e4 e4 74 e4     .tttt.t.tttt..t.
    6009:	1c 1c 1c 74 74 e4 e4 e4 1d 74 74 74 74 e4 e4 e4     ...tt....tttt...
    6019:	e4 74 74 e4 e4 e4 e4 e4 e4 74 74 e4 e4 e4 e4 e4     .tt......tt.....
	...
    6031:	00 1d 1d 1c 1c 1c 1c 00 e4 00 1d 1d 1c 1c 00 e4     ................
    6041:	e4 e4 00 1d 1c 00 e4 e4 e4 e4 e4 00 00 e4 e4 e4     ................
    6051:	e4 e4 e4 e4 e4 e4 e4 e4 e4 e4 e4 e4 e4 e4 e4 e4     ................
    6061:	e4 e4 e4 e4 e4 e4 e4 e4 e4 00 00 00 00 00 00 e4     ................
    6071:	e4 00 1d 1c 1c 1c 00 e4 e4 e4 00 1d 1d 00 e4 e4     ................
    6081:	e4 e4 e4 00 00 e4 e4 e4 e4 e4 e4 e4 e4 e4 e4 e4     ................
    6091:	e4 e4 e4 e4 e4 e4 e4 e4 e4 e4 e4 e4 e4 e4 e4 e4     ................
    60a1:	e4 e4 e4 e4 e4 e4 e4 e4 e4 00 00 00 e4 00 00 00     ................
    60b1:	e4 00 1d 00 e4 00 1c 00 e4 e4 00 e4 e4 e4 00 e4     ................
    60c1:	e4 e4 e4 e4 e4 e4 e4 e4 e4 e4 e4 e4 e4 e4 e4 e4     ................
    60d1:	e4 e4 e4 e4 e4 e4 e4 e4 e4 e4 e4 e4 e4 e4 e4 e4     ................
    60e1:	e4 e4 e4 e4 e4 e4 e4 e4 e4 00 00 e4 e4 00 00 e4     ................
    60f1:	e4 1c e4 e4 e4 1c e4 e4 e4 e4 e4 e4 e4 e4 e4 e4     ................
    6101:	e4 e4 e4 e4 e4 e4 e4 e4 e4 e4 e4 e4 e4 e4 e4 e4     ................
    6111:	e4 e4 e4 e4 e4 e4 e4 e4 e4 e4 e4 e4 e4 e4 e4 e4     ................
    6121:	e4 e4 e4 e4 e4 e4 e4 e4 e4 e4 e4 e4 e4 e4 e4 e4     ................
    6131:	e4 e4 e4 e4 e4 e4 e4 e4 e4 e4 e4 e4 e4 e4 e4 00     ................
    6141:	e4 e4 e4 e4 e4 00 00 3f e4 e4 e4 e4 00 3f 3f 3f     .......?.....???
    6151:	e4 00 00 00 3f 3f 00 3f 00 3f 3f 3f 3f 3f 3f 3f     ....??.?.???????
    6161:	e4 00 00 00 00 00 00 00 e4 e4 e4 e4 e4 e4 e4 e4     ................
    6171:	e4 e4 e4 e4 e4 e4 e4 e4 00 e4 e4 e4 e4 e4 e4 e4     ................
    6181:	3f 00 00 e4 e4 e4 e4 e4 3f 3f 3f 00 e4 e4 e4 e4     ?.......???.....
    6191:	3f 00 3f 3f 00 00 00 e4 3f 3f 3f 3f 3f 3f 3f 00     ?.??....???????.
    61a1:	00 00 00 00 00 00 00 e4 e4 e4 ad b6 f6 f6 f6 f6     ................
    61b1:	e4 e4 e4 ad ad ad b6 b6 e4 e4 e4 e4 e4 ad a4 a4     ................
    61c1:	e4 e4 e4 e4 e4 e4 e4 e4 e4 e4 e4 e4 e4 e4 e4 e4     ................
    61d1:	e4 e4 e4 e4 e4 e4 e4 e4 e4 e4 e4 e4 e4 e4 e4 e4     ................
    61e1:	e4 e4 e4 e4 e4 e4 e4 e4 f6 f6 f6 f6 f6 f6 f6 f6     ................
    61f1:	b6 b6 b6 b6 b6 b6 b6 b6 a4 a4 a4 a4 ad ad ad ad     ................
    6201:	e4 e4 e4 e4 e4 e4 e4 e4 e4 e4 e4 e4 e4 e4 e4 e4     ................
    6211:	e4 e4 e4 e4 e4 e4 e4 e4 e4 e4 e4 e4 e4 e4 e4 e4     ................
    6221:	e4 e4 e4 e4 e4 e4 e4 e4 f6 f6 f6 f6 f6 f6 f6 f6     ................
    6231:	b6 b6 b6 b6 b6 b6 b6 b6 ad ad ad ad ad ad a4 a4     ................
    6241:	e4 e4 e4 e4 e4 e4 e4 e4 e4 e4 e4 e4 e4 e4 e4 e4     ................
    6251:	e4 e4 e4 e4 e4 e4 e4 e4 e4 e4 e4 e4 e4 e4 e4 e4     ................
    6261:	e4 e4 e4 e4 e4 e4 e4 e4 f6 f6 f6 f6 f6 b6 ad e4     ................
    6271:	b6 b6 b6 b6 ad ad e4 e4 a4 a4 a4 a4 a4 e4 e4 e4     ................
    6281:	e4 e4 e4 e4 e4 e4 e4 e4 e4 e4 e4 e4 e4 e4 e4 e4     ................
    6291:	e4 e4 e4 e4 e4 e4 e4 e4 e4 e4 e4 e4 e4 e4 e4 e4     ................
    62a1:	e4 e4 e4 e4 e4 e4 e4 e4 6e 6e 6d 64 6c 6d 63 63     ........nnmdlmcc
    62b1:	6e 6e 6d 64 6d 63 6d 63 6e 76 6d 64 6d 64 63 1b     nnmdmcmcnvmdmdc.
    62c1:	6e 6e 6d 64 6c 6d 63 63 76 6e 6d 76 64 64 63 64     nnmdlmccvnmvddcd
    62d1:	6e 6e 6d 6d 64 64 64 1b 6e 6e 6d 64 64 63 63 63     nnmmddd.nnmddccc
    62e1:	76 6d 6c 6d 6d 6d 64 63 63 11 1a 19 11 11 e4 e4     vmlmmmdcc.......
    62f1:	1a 63 19 19 11 11 e4 e4 63 1a 11 11 11 11 e4 e4     .c......c.......
    6301:	63 11 1a 19 11 11 e4 e4 64 1a 11 11 11 11 e4 e4     c.......d.......
    6311:	63 1a 11 11 11 11 e4 e4 11 1a 19 19 11 11 e4 e4     c...............
    6321:	23 1a 11 19 11 09 e4 e4 e4 e4 1a 63 63 6d 6d 6d     #..........ccmmm
    6331:	e4 e4 11 1a 6d 64 64 6d e4 e4 1a 63 64 6d 6d 76     ....mddm...cdmmv
    6341:	e4 1a 6d 6d 76 77 77 b7 11 1a 64 63 6d 6d 6d 76     ..mmvww...dcmmmv
    6351:	1a 63 1b 64 6d 64 76 76 11 1a 64 63 64 6d 76 76     .c.dmdvv..dcdmvv
    6361:	1a 1a 1b 64 6d 6e 6e 76 6e 77 b7 b7 77 77 77 6e     ...dmnnvnw..wwwn
    6371:	6e 77 b7 b7 77 f7 6e 6d 6e 77 b7 b7 b7 77 b7 76     nw..w.nmnw...w.v
    6381:	b7 b7 b7 b7 b7 b7 b7 77 77 b7 b7 b7 76 76 77 76     .......ww...vvwv
    6391:	77 b7 b7 b7 b7 6e 6e 76 6e b7 b7 77 76 6e 6e 76     w....nnvn..wvnnv
    63a1:	77 b7 b7 77 76 77 77 76 6e 6e 6d 64 64 63 63 63     w..wvwwvnnmddccc
    63b1:	76 6d 6c 6d 6d 6d 64 63 6e 6e 76 6d 64 63 6d 64     vmlmmmdcnnvmdcmd
    63c1:	77 77 76 6e 76 76 6e 6d 6e 6e 6e 6d 6d 64 64 63     wwvnvvnmnnnmmddc
    63d1:	6e 6e 6d 6d 64 6d 64 64 76 6e 6e 6e 6d 64 64 63     nnmmdmddvnnnmddc
    63e1:	6e 6e 6d 76 6d 63 63 6c 11 1a 19 19 11 11 e4 e4     nnmvmccl........
    63f1:	23 1a 11 19 11 09 e4 e4 63 1a 1a 11 11 11 e4 e4     #.......c.......
    6401:	1b 6c 6d 19 1a 63 11 e4 64 63 1a 11 11 11 11 11     .lm..c..dc......
    6411:	64 1a 1b 1a 19 11 11 11 1a 63 1a 11 11 11 11 11     d........c......
    6421:	63 1b 1a 11 19 11 11 11 9a 9a e8 f5 f5 f5 e8 e8     c...............
    6431:	9a 9a 9a 9a 9a 9a f5 f5 e8 e8 9a 9a 9a 9a 9a 9a     ................
    6441:	e8 e8 e8 e8 e8 e8 9a 9a 9a 9a e8 f5 f5 f5 e8 e8     ................
    6451:	9a 9a 9a 9a 9a 9a f5 f5 e8 e8 f5 9a 9a 9a 9a 9a     ................
    6461:	f5 f5 e8 e8 e8 e8 f5 f5 e8 e8 f5 f5 f5 e8 9a 9a     ................
    6471:	f5 f5 9a 9a 9a 9a 9a 9a 9a 9a 9a 9a 9a 9a e8 e8     ................
    6481:	9a 9a e8 e8 e8 e8 e8 e8 e8 e8 f5 f5 f5 e8 9a 9a     ................
    6491:	f5 f5 9a 9a 9a 9a 9a 9a 9a 9a 9a 9a 9a f5 e8 e8     ................
    64a1:	f5 f5 e8 e8 e8 e8 f5 f5 e8 e8 e8 e8 e8 e8 9a 9a     ................
    64b1:	9a 9a e8 f5 f5 f5 e8 e8 9a 9a 9a 9a 9a 9a f5 f5     ................
    64c1:	e8 e8 9a 9a 9a 9a 9a 9a e8 e8 e8 e8 e8 e8 9a 9a     ................
    64d1:	9a 9a e8 f5 f5 f5 e8 e8 f5 f5 9a 9a 9a 9a f5 f5     ................
    64e1:	e8 e8 f5 f5 f5 f5 f5 f5 9a 9a e8 e8 e8 e8 e8 e8     ................
    64f1:	e8 e8 f5 f5 f5 e8 9a 9a f5 f5 9a 9a 9a 9a 9a 9a     ................
    6501:	9a 9a 9a 9a 9a 9a e8 e8 9a 9a e8 e8 e8 e8 e8 e8     ................
    6511:	e8 e8 f5 f5 f5 e8 9a 9a f5 f5 9a 9a 9a 9a f5 f5     ................
    6521:	f5 f5 f5 f5 f5 f5 e8 e8 e4 e4 ff ff ff e4 e4 e4     ................
    6531:	e4 ff e4 e4 e4 ff e4 e4 e4 ff e4 e4 ff ff e4 e4     ................
    6541:	e4 ff e4 ff e4 ff e4 e4 e4 ff ff e4 e4 ff e4 e4     ................
    6551:	e4 ff e4 e4 e4 ff e4 e4 e4 e4 ff ff ff e4 e4 e4     ................
    6561:	e4 e4 e4 e4 e4 e4 e4 e4 e4 e4 e4 ff e4 e4 e4 e4     ................
    6571:	e4 e4 ff ff e4 e4 e4 e4 e4 e4 e4 ff e4 e4 e4 e4     ................
    6581:	e4 e4 e4 ff e4 e4 e4 e4 e4 e4 e4 ff e4 e4 e4 e4     ................
    6591:	e4 e4 e4 ff e4 e4 e4 e4 e4 e4 e4 ff e4 e4 e4 e4     ................
    65a1:	e4 e4 e4 e4 e4 e4 e4 e4 e4 e4 ff ff ff e4 e4 e4     ................
    65b1:	e4 ff e4 e4 e4 ff e4 e4 e4 e4 e4 e4 e4 ff e4 e4     ................
    65c1:	e4 e4 e4 e4 ff e4 e4 e4 e4 e4 e4 ff e4 e4 e4 e4     ................
    65d1:	e4 e4 ff e4 e4 e4 e4 e4 e4 ff ff ff ff ff e4 e4     ................
    65e1:	e4 e4 e4 e4 e4 e4 e4 e4 e4 ff ff ff ff ff e4 e4     ................
    65f1:	e4 e4 e4 e4 ff e4 e4 e4 e4 e4 e4 ff e4 e4 e4 e4     ................
    6601:	e4 e4 ff ff ff e4 e4 e4 e4 e4 e4 e4 e4 ff e4 e4     ................
    6611:	e4 ff e4 e4 e4 ff e4 e4 e4 e4 ff ff ff e4 e4 e4     ................
    6621:	e4 e4 e4 e4 e4 e4 e4 e4 e4 e4 e4 e4 ff e4 e4 e4     ................
    6631:	e4 e4 e4 ff ff e4 e4 e4 e4 e4 ff e4 ff e4 e4 e4     ................
    6641:	e4 ff e4 e4 ff e4 e4 e4 e4 ff ff ff ff ff e4 e4     ................
    6651:	e4 e4 e4 e4 ff e4 e4 e4 e4 e4 e4 e4 ff e4 e4 e4     ................
    6661:	e4 e4 e4 e4 e4 e4 e4 e4 e4 ff ff ff ff ff e4 e4     ................
    6671:	e4 ff e4 e4 e4 e4 e4 e4 e4 ff ff ff ff e4 e4 e4     ................
    6681:	e4 e4 e4 e4 e4 ff e4 e4 e4 e4 e4 e4 e4 ff e4 e4     ................
    6691:	e4 ff e4 e4 e4 ff e4 e4 e4 e4 ff ff ff e4 e4 e4     ................
    66a1:	e4 e4 e4 e4 e4 e4 e4 e4 e4 e4 e4 ff ff e4 e4 e4     ................
    66b1:	e4 e4 ff e4 e4 e4 e4 e4 e4 ff e4 e4 e4 e4 e4 e4     ................
    66c1:	e4 ff ff ff ff e4 e4 e4 e4 ff e4 e4 e4 ff e4 e4     ................
    66d1:	e4 ff e4 e4 e4 ff e4 e4 e4 e4 ff ff ff e4 e4 e4     ................
    66e1:	e4 e4 e4 e4 e4 e4 e4 e4 e4 ff ff ff ff ff e4 e4     ................
    66f1:	e4 e4 e4 e4 e4 ff e4 e4 e4 e4 e4 e4 ff e4 e4 e4     ................
    6701:	e4 e4 e4 e4 ff e4 e4 e4 e4 e4 e4 ff e4 e4 e4 e4     ................
    6711:	e4 e4 e4 ff e4 e4 e4 e4 e4 e4 e4 ff e4 e4 e4 e4     ................
    6721:	e4 e4 e4 e4 e4 e4 e4 e4 e4 e4 ff ff ff e4 e4 e4     ................
    6731:	e4 ff e4 e4 e4 ff e4 e4 e4 ff e4 e4 e4 ff e4 e4     ................
    6741:	e4 e4 ff ff ff e4 e4 e4 e4 ff e4 e4 e4 ff e4 e4     ................
    6751:	e4 ff e4 e4 e4 ff e4 e4 e4 e4 ff ff ff e4 e4 e4     ................
    6761:	e4 e4 e4 e4 e4 e4 e4 e4 e4 e4 ff ff ff e4 e4 e4     ................
    6771:	e4 ff e4 e4 e4 ff e4 e4 e4 ff e4 e4 e4 ff e4 e4     ................
    6781:	e4 e4 ff ff ff ff e4 e4 e4 e4 e4 e4 e4 ff e4 e4     ................
    6791:	e4 e4 e4 e4 ff e4 e4 e4 e4 e4 ff ff e4 e4 e4 e4     ................
    67a1:	e4 e4 e4 e4 e4 e4 e4 e4 e4 e4 e4 e4 e4 e4 e4 e4     ................
    67b1:	e4 e4 e4 e4 e4 e4 e4 e4 e4 e4 e4 e4 e4 e4 e4 e4     ................
    67c1:	e4 e4 ff ff ff ff e4 e4 e4 e4 e4 e4 e4 e4 e4 e4     ................
    67d1:	e4 e4 e4 e4 e4 e4 e4 e4 e4 e4 e4 e4 e4 e4 e4 e4     ................
    67e1:	e4 e4 e4 e4 e4 e4 e4 e4 e4 e4 ff ff ff e4 e4 e4     ................
    67f1:	e4 ff e4 e4 e4 ff e4 ff e4 ff e4 e4 e4 e4 e4 ff     ................
    6801:	e4 e4 ff ff ff e4 e4 ff e4 e4 e4 e4 e4 ff e4 ff     ................
    6811:	e4 ff e4 e4 e4 ff e4 ff e4 e4 ff ff ff e4 e4 e4     ................
    6821:	e4 e4 e4 e4 e4 e4 e4 e4 ff ff ff e4 e4 e4 ff ff     ................
    6831:	e4 e4 e4 ff e4 ff e4 e4 e4 e4 e4 e4 e4 ff e4 e4     ................
    6841:	e4 e4 e4 e4 e4 ff e4 e4 e4 e4 e4 e4 e4 ff e4 e4     ................
    6851:	e4 e4 e4 ff e4 ff e4 e4 ff ff ff e4 e4 e4 ff ff     ................
    6861:	e4 e4 e4 e4 e4 e4 e4 e4 ff e4 e4 ff ff ff ff e4     ................
    6871:	e4 ff e4 ff e4 e4 e4 ff e4 ff e4 ff e4 e4 e4 ff     ................
    6881:	e4 ff e4 ff ff ff ff e4 e4 ff e4 ff e4 ff e4 e4     ................
    6891:	e4 ff e4 ff e4 e4 ff e4 ff e4 e4 ff e4 e4 e4 ff     ................
    68a1:	e4 e4 e4 e4 e4 e4 e4 e4 e4 ff ff ff ff e4 e4 e4     ................
    68b1:	e4 ff e4 e4 e4 e4 e4 e4 e4 ff e4 e4 e4 e4 e4 e4     ................
    68c1:	e4 ff ff ff e4 e4 e4 e4 e4 ff e4 e4 e4 e4 e4 e4     ................
    68d1:	e4 ff e4 e4 e4 e4 e4 e4 e4 ff ff ff ff e4 e4 e4     ................
    68e1:	e4 e4 e4 e4 e4 e4 e4 e4 ff ff ff ff e4 e4 e4 ff     ................
    68f1:	ff e4 e4 e4 ff e4 ff e4 ff e4 e4 e4 ff e4 ff e4     ................
    6901:	ff ff ff ff e4 e4 ff e4 ff e4 e4 e4 ff e4 ff e4     ................
    6911:	ff e4 e4 e4 ff e4 ff e4 ff ff ff ff e4 e4 e4 ff     ................
    6921:	e4 e4 e4 e4 e4 e4 e4 e4 ff ff e4 e4 ff ff e4 e4     ................
    6931:	e4 e4 ff e4 ff ff e4 e4 e4 e4 ff e4 ff e4 ff e4     ................
    6941:	e4 e4 ff e4 ff e4 ff e4 e4 e4 ff e4 ff e4 e4 ff     ................
    6951:	e4 e4 ff e4 ff e4 e4 ff ff ff e4 e4 ff e4 e4 e4     ................
    6961:	e4 e4 e4 e4 e4 e4 e4 e4 ff e4 ff e4 e4 e4 ff e4     ................
    6971:	ff e4 ff e4 e4 e4 ff e4 ff e4 ff e4 e4 e4 ff e4     ................
    6981:	ff e4 ff e4 e4 e4 ff e4 ff e4 ff e4 e4 e4 ff e4     ................
    6991:	ff e4 ff e4 e4 e4 ff e4 ff e4 e4 ff ff ff e4 e4     ................
    69a1:	e4 e4 e4 e4 e4 e4 e4 e4 e4 ff ff ff e4 e4 e4 e4     ................
    69b1:	ff e4 e4 e4 ff e4 e4 e4 ff e4 e4 e4 e4 e4 e4 e4     ................
    69c1:	e4 ff ff ff e4 e4 e4 e4 e4 e4 e4 e4 ff e4 e4 e4     ................
    69d1:	ff e4 e4 e4 ff e4 e4 e4 e4 ff ff ff e4 e4 e4 e4     ................
    69e1:	e4 e4 e4 e4 e4 e4 e4 e4 e4 e4 e4 e4 e4 ff e4 e4     ................
    69f1:	e4 e4 e4 e4 e4 ff e4 e4 e4 e4 e4 e4 e4 ff e4 e4     ................
    6a01:	e4 e4 e4 e4 e4 ff e4 e4 e4 e4 e4 e4 e4 ff e4 e4     ................
    6a11:	e4 e4 e4 e4 e4 ff e4 e4 e4 e4 e4 e4 e4 ff ff ff     ................
    6a21:	e4 e4 e4 e4 e4 e4 e4 e4 e4 e4 ff ff ff ff e4 ff     ................
    6a31:	e4 e4 ff e4 e4 e4 e4 ff e4 e4 ff e4 e4 e4 e4 ff     ................
    6a41:	e4 e4 ff ff ff e4 e4 e4 e4 e4 ff e4 e4 e4 e4 e4     ................
    6a51:	e4 e4 ff e4 e4 e4 e4 e4 ff e4 ff ff ff ff e4 e4     ................
    6a61:	e4 e4 e4 e4 e4 e4 e4 e4 e4 e4 e4 ff e4 ff ff ff     ................
    6a71:	e4 e4 e4 ff e4 ff e4 e4 e4 e4 e4 ff e4 ff e4 e4     ................
    6a81:	ff e4 ff e4 e4 ff ff ff ff e4 ff e4 e4 ff e4 e4     ................
    6a91:	e4 ff e4 e4 e4 ff e4 e4 e4 ff e4 e4 e4 ff ff ff     ................
    6aa1:	e4 e4 e4 e4 e4 e4 e4 e4 ff e4 ff e4 e4 e4 e4 e4     ................
    6ab1:	e4 e4 ff e4 e4 e4 e4 e4 e4 e4 ff e4 e4 e4 e4 e4     ................
    6ac1:	e4 e4 ff e4 e4 e4 e4 e4 e4 e4 ff e4 e4 e4 e4 e4     ................
    6ad1:	e4 e4 ff e4 e4 e4 e4 e4 ff e4 ff ff ff ff e4 e4     ................
    6ae1:	e4 e4 e4 e4 e4 e4 e4 e4 e4 e4 e4 e4 e4 e4 e4 e4     ................
    6af1:	e4 e4 ff e4 e4 e4 ff e4 e4 e4 e4 ff e4 ff e4 e4     ................
    6b01:	e4 e4 e4 e4 ff e4 e4 e4 e4 e4 e4 ff e4 ff e4 e4     ................
    6b11:	e4 e4 ff e4 e4 e4 ff e4 e4 e4 e4 e4 e4 e4 e4 e4     ................
    6b21:	e4 e4 e4 e4 e4 e4 e4 e4 e4 ff ff ff e4 e4 ff ff     ................
    6b31:	ff e4 e4 e4 ff e4 ff e4 ff e4 e4 e4 e4 e4 ff e4     ................
    6b41:	ff e4 e4 ff ff e4 ff ff ff e4 e4 e4 ff e4 ff e4     ................
    6b51:	ff e4 e4 e4 ff e4 ff e4 e4 ff ff ff e4 e4 ff ff     ................
    6b61:	e4 e4 e4 e4 e4 e4 e4 e4 ff ff e4 ff ff ff ff ff     ................
    6b71:	e4 e4 e4 e4 e4 ff e4 e4 e4 e4 e4 e4 e4 ff e4 e4     ................
    6b81:	ff e4 e4 e4 e4 ff e4 e4 e4 e4 e4 e4 e4 ff e4 e4     ................
    6b91:	e4 e4 e4 e4 e4 ff e4 e4 ff ff e4 e4 e4 ff e4 e4     ................
    6ba1:	e4 e4 e4 e4 e4 e4 e4 e4 e4 e4 e4 e4 e4 ff ff ff     ................
    6bb1:	e4 e4 e4 e4 e4 ff e4 e4 e4 e4 e4 e4 e4 ff e4 e4     ................
    6bc1:	e4 e4 e4 e4 e4 ff ff ff e4 e4 e4 e4 e4 ff e4 ff     ................
    6bd1:	e4 e4 e4 e4 e4 ff e4 e4 e4 e4 e4 e4 e4 ff e4 e4     ................
    6be1:	e4 e4 e4 e4 e4 e4 e4 e4 ff e4 e4 ff ff ff ff e4     ................
    6bf1:	e4 ff e4 ff e4 e4 e4 e4 e4 ff e4 ff e4 e4 e4 e4     ................
    6c01:	ff e4 e4 ff ff ff e4 e4 e4 e4 e4 ff e4 e4 e4 e4     ................
    6c11:	ff e4 e4 ff e4 e4 e4 e4 e4 ff e4 ff ff ff ff e4     ................
    6c21:	e4 e4 e4 e4 e4 e4 e4 e4 e4 e4 ff e4 e4 e4 ff ff     ................
    6c31:	e4 e4 ff e4 e4 e4 ff e4 e4 ff e4 ff e4 e4 ff e4     ................
    6c41:	e4 ff e4 ff e4 e4 ff e4 ff ff ff ff ff e4 ff e4     ................
    6c51:	ff e4 e4 e4 ff e4 ff e4 ff e4 e4 e4 ff e4 ff ff     ................
    6c61:	e4 e4 e4 e4 e4 e4 e4 e4 ff e4 e4 e4 ff e4 e4 e4     ................
    6c71:	e4 ff e4 e4 ff e4 e4 e4 e4 e4 ff e4 e4 ff e4 ff     ................
    6c81:	e4 e4 ff e4 e4 e4 ff e4 e4 e4 ff e4 e4 e4 ff e4     ................
    6c91:	e4 ff e4 e4 e4 e4 ff e4 ff e4 e4 e4 e4 e4 ff e4     ................
    6ca1:	e4 e4 e4 e4 e4 e4 e4 e4 ff e4 ff e4 e4 e4 e4 e4     ................
    6cb1:	ff e4 ff e4 e4 e4 e4 e4 e4 e4 ff e4 e4 e4 e4 e4     ................
    6cc1:	e4 e4 ff e4 e4 e4 e4 e4 e4 e4 ff e4 e4 e4 e4 e4     ................
    6cd1:	e4 e4 e4 e4 e4 e4 e4 e4 e4 e4 ff e4 e4 e4 e4 e4     ................
    6ce1:	e4 e4 e4 e4 e4 e4 e4 e4 ff e4 e4 e4 e4 ff e4 ff     ................
    6cf1:	ff e4 e4 e4 e4 ff e4 ff ff e4 e4 e4 e4 ff e4 ff     ................
    6d01:	ff e4 e4 e4 e4 ff e4 e4 ff e4 e4 e4 e4 ff e4 e4     ................
    6d11:	ff e4 e4 e4 e4 ff e4 e4 ff ff ff ff e4 ff e4 e4     ................
    6d21:	e4 e4 e4 e4 e4 e4 e4 e4 ff e4 e4 ff ff ff e4 e4     ................
    6d31:	e4 e4 ff e4 e4 e4 ff e4 e4 e4 ff e4 e4 e4 e4 e4     ................
    6d41:	e4 e4 e4 ff ff ff e4 e4 e4 e4 e4 e4 e4 e4 ff e4     ................
    6d51:	e4 e4 ff e4 e4 e4 ff e4 ff e4 e4 ff ff ff e4 e4     ................
    6d61:	e4 e4 e4 e4 e4 e4 e4 e4 e4 ff ff ff ff ff e4 ff     ................
    6d71:	e4 e4 e4 ff e4 e4 e4 ff e4 e4 e4 ff e4 e4 e4 ff     ................
    6d81:	e4 e4 e4 ff e4 e4 e4 ff e4 e4 e4 ff e4 e4 e4 ff     ................
    6d91:	e4 e4 e4 ff e4 e4 e4 ff e4 e4 e4 ff e4 e4 e4 ff     ................
    6da1:	e4 e4 e4 e4 e4 e4 e4 e4 e4 ff e4 e4 e4 ff e4 ff     ................
    6db1:	e4 ff ff e4 ff ff e4 ff e4 ff e4 ff e4 ff e4 ff     ................
    6dc1:	e4 ff e4 e4 e4 ff e4 ff e4 ff e4 e4 e4 ff e4 ff     ................
    6dd1:	e4 ff e4 e4 e4 ff e4 ff e4 ff e4 e4 e4 ff e4 ff     ................
    6de1:	e4 e4 e4 e4 e4 e4 e4 e4 ff ff ff e4 e4 e4 e4 e4     ................
    6df1:	e4 e4 e4 e4 e4 e4 e4 e4 e4 e4 e4 e4 e4 e4 e4 e4     ................
    6e01:	ff ff e4 e4 e4 e4 e4 e4 e4 e4 e4 e4 e4 e4 e4 e4     ................
    6e11:	e4 e4 e4 e4 e4 e4 e4 e4 ff ff ff e4 e4 e4 e4 e4     ................
    6e21:	e4 e4 e4 e4 e4 e4 e4 e4 e4 ff ff ff ff e4 e4 ff     ................
    6e31:	e4 ff e4 e4 e4 ff e4 ff e4 ff e4 e4 e4 ff e4 ff     ................
    6e41:	e4 ff ff ff ff e4 e4 ff e4 ff e4 e4 e4 e4 e4 ff     ................
    6e51:	e4 ff e4 e4 e4 e4 e4 ff e4 ff e4 e4 e4 e4 e4 ff     ................
    6e61:	e4 e4 e4 e4 e4 e4 e4 e4 ff ff ff e4 e4 ff ff ff     ................
    6e71:	e4 e4 e4 ff e4 ff e4 e4 e4 e4 e4 ff e4 ff e4 e4     ................
    6e81:	ff ff ff e4 e4 ff ff ff e4 ff e4 e4 e4 ff e4 e4     ................
    6e91:	e4 e4 ff e4 e4 ff e4 e4 e4 e4 e4 ff e4 ff ff ff     ................
    6ea1:	e4 e4 e4 e4 e4 e4 e4 e4 e4 e4 e4 ff ff ff e4 e4     ................
    6eb1:	e4 e4 ff e4 e4 e4 ff e4 e4 e4 ff e4 e4 e4 e4 e4     ................
    6ec1:	e4 e4 e4 ff ff ff e4 e4 e4 e4 e4 e4 e4 e4 ff e4     ................
    6ed1:	e4 e4 ff e4 e4 e4 ff e4 e4 e4 e4 ff ff ff e4 e4     ................
    6ee1:	e4 e4 e4 e4 e4 e4 e4 e4 ff ff ff ff ff e4 e4 ff     ................
    6ef1:	e4 e4 ff e4 e4 e4 e4 ff e4 e4 ff e4 e4 e4 ff e4     ................
    6f01:	e4 e4 ff e4 e4 e4 ff e4 e4 e4 ff e4 e4 ff ff ff     ................
    6f11:	e4 e4 ff e4 e4 ff e4 e4 e4 e4 ff e4 e4 ff e4 e4     ................
    6f21:	e4 e4 e4 e4 e4 e4 e4 e4 e4 e4 e4 ff ff ff ff e4     ................
    6f31:	e4 e4 e4 ff e4 e4 e4 ff ff e4 e4 ff e4 e4 e4 ff     ................
    6f41:	ff e4 e4 ff ff ff ff e4 ff ff e4 ff e4 ff e4 e4     ................
    6f51:	e4 ff e4 ff e4 e4 ff e4 e4 ff e4 ff e4 e4 e4 ff     ................
    6f61:	e4 e4 e4 e4 e4 e4 e4 e4 e4 ff ff ff ff ff e4 e4     ................
    6f71:	e4 e4 e4 ff e4 e4 e4 e4 e4 e4 e4 ff e4 e4 e4 e4     ................
    6f81:	e4 e4 e4 ff e4 e4 e4 e4 e4 e4 e4 ff e4 e4 e4 e4     ................
    6f91:	e4 e4 e4 ff e4 e4 e4 e4 e4 e4 e4 ff e4 e4 e4 e4     ................
    6fa1:	e4 e4 e4 e4 e4 e4 e4 e4 e4 e4 e4 e4 e4 e4 e4 e4     ................
    6fb1:	e4 e4 e4 e4 e4 e4 e4 e4 e4 e4 e4 14 e4 e4 e4 e4     ................
    6fc1:	e4 e4 e4 0f e4 e4 e4 e4 e4 e4 e4 0f e4 e4 e4 e4     ................
    6fd1:	e4 e4 e4 0f e4 e4 e4 e4 e4 e4 0f 0f 0f e4 e4 e4     ................
    6fe1:	e4 e4 0f 0c 0f e4 e4 e4 e4 e4 e4 e4 e4 e4 e4 e4     ................
    6ff1:	e4 e4 e4 e4 e4 e4 e4 e4 e4 e4 e4 e4 e4 e4 e4 e4     ................
    7001:	e4 ff e4 e4 e4 e4 e4 e4 e4 f6 f6 e4 e4 e4 e4 e4     ................
    7011:	e4 ad ad f6 e4 e4 e4 e4 e4 ad a4 ad f6 e4 e4 e4     ................
    7021:	e4 ad a4 a4 ad f6 e4 e4 e4 ff ff ff e4 e4 e4 e4     ................
    7031:	ff e4 e4 e4 ff e4 e4 e4 ff e4 e4 e4 e4 e4 e4 ff     ................
    7041:	ff e4 e4 ff ff e4 e4 ff ff e4 e4 e4 ff e4 ff ff     ................
    7051:	ff e4 e4 e4 ff e4 ff e4 e4 ff ff ff e4 e4 ff e4     ................
    7061:	e4 e4 e4 e4 e4 e4 e4 e4 ff e4 e4 e4 ff e4 e4 e4     ................
    7071:	ff e4 e4 e4 ff ff e4 ff e4 ff e4 e4 ff e4 ff e4     ................
    7081:	e4 ff e4 e4 ff e4 e4 e4 ff ff ff e4 ff e4 e4 e4     ................
    7091:	e4 e4 ff e4 ff e4 e4 e4 e4 e4 ff e4 ff e4 e4 e4     ................
    70a1:	e4 e4 e4 e4 e4 e4 e4 e4 ff e4 ff ff ff ff e4 e4     ................
    70b1:	ff e4 ff e4 e4 e4 e4 e4 ff e4 ff e4 e4 e4 e4 e4     ................
    70c1:	ff e4 ff ff ff e4 e4 e4 ff e4 ff e4 e4 e4 e4 e4     ................
    70d1:	ff e4 ff e4 e4 e4 e4 e4 ff e4 ff ff ff ff e4 e4     ................
    70e1:	e4 e4 e4 e4 e4 e4 e4 e4 e4 e4 e4 e4 ff ff ff e4     ................
    70f1:	e4 e4 e4 ff e4 e4 e4 ff e4 e4 e4 ff e4 e4 e4 ff     ................
    7101:	e4 e4 e4 ff e4 e4 e4 ff e4 e4 e4 ff e4 e4 e4 ff     ................
    7111:	e4 e4 e4 ff e4 e4 e4 ff e4 e4 e4 e4 ff ff ff e4     ................
    7121:	e4 e4 e4 e4 e4 e4 e4 e4 e4 ff e4 e4 e4 ff e4 ff     ................
    7131:	e4 ff e4 e4 e4 ff e4 ff e4 ff e4 e4 e4 ff e4 ff     ................
    7141:	e4 e4 ff e4 ff e4 e4 ff e4 e4 ff e4 ff e4 e4 ff     ................
    7151:	e4 e4 e4 ff e4 e4 e4 ff e4 e4 e4 ff e4 e4 e4 ff     ................
    7161:	e4 e4 e4 e4 e4 e4 e4 e4 ff ff ff e4 ff ff ff ff     ................
    7171:	e4 e4 e4 e4 ff e4 e4 e4 e4 e4 e4 e4 ff e4 e4 e4     ................
    7181:	ff ff e4 e4 ff ff ff ff e4 e4 e4 e4 ff e4 ff e4     ................
    7191:	e4 e4 e4 e4 ff e4 e4 ff ff ff ff e4 ff e4 e4 e4     ................
    71a1:	e4 e4 e4 e4 e4 e4 e4 e4 e4 e4 ff e4 e4 e4 e4 e4     ................
    71b1:	ff e4 ff e4 e4 e4 e4 e4 ff e4 ff e4 e4 e4 e4 e4     ................
    71c1:	e4 e4 ff e4 e4 e4 e4 e4 e4 e4 ff e4 e4 e4 e4 e4     ................
    71d1:	e4 e4 e4 e4 e4 e4 e4 e4 ff e4 ff e4 e4 e4 e4 e4     ................
    71e1:	e4 e4 e4 e4 e4 e4 e4 e4 ff ff ff ff ff e4 ff e4     ................
    71f1:	e4 e4 ff e4 e4 e4 ff e4 e4 e4 ff e4 e4 e4 ff e4     ................
    7201:	e4 e4 ff e4 e4 e4 ff e4 e4 e4 ff e4 e4 e4 ff e4     ................
    7211:	e4 e4 ff e4 e4 e4 ff e4 e4 e4 ff e4 e4 e4 ff e4     ................
    7221:	e4 e4 e4 e4 e4 e4 e4 e4 ff e4 e4 e4 ff e4 ff ff     ................
    7231:	ff ff e4 ff ff e4 ff e4 ff e4 ff e4 ff e4 ff e4     ................
    7241:	ff e4 e4 e4 ff e4 ff ff ff e4 e4 e4 ff e4 ff e4     ................
    7251:	ff e4 e4 e4 ff e4 ff e4 ff e4 e4 e4 ff e4 ff ff     ................
    7261:	e4 e4 e4 e4 e4 e4 e4 e4 ff ff e4 ff e4 e4 ff ff     ................
    7271:	e4 e4 e4 ff e4 ff e4 e4 e4 e4 e4 e4 e4 ff e4 e4     ................
    7281:	ff e4 e4 e4 e4 e4 ff ff e4 e4 e4 e4 e4 e4 e4 e4     ................
    7291:	e4 e4 e4 e4 e4 ff e4 e4 ff ff e4 e4 e4 e4 ff ff     ................
    72a1:	e4 e4 e4 e4 e4 e4 e4 e4 ff e4 e4 e4 e4 e4 ff e4     ................
    72b1:	e4 ff e4 e4 e4 e4 ff e4 e4 e4 e4 e4 e4 e4 ff e4     ................
    72c1:	ff e4 e4 e4 e4 e4 ff e4 e4 ff e4 e4 e4 e4 ff e4     ................
    72d1:	e4 ff e4 e4 e4 e4 ff e4 ff e4 e4 e4 e4 e4 e4 ff     ................
    72e1:	e4 e4 e4 e4 e4 e4 e4 e4 e4 e4 ff e4 ff ff ff ff     ................
    72f1:	e4 e4 ff e4 ff e4 e4 e4 e4 e4 ff e4 ff e4 e4 e4     ................
    7301:	e4 e4 ff e4 ff ff ff ff e4 e4 ff e4 ff e4 e4 e4     ................
    7311:	e4 e4 ff e4 ff e4 e4 e4 ff ff e4 e4 ff e4 e4 e4     ................
    7321:	e4 e4 e4 e4 e4 e4 e4 e4 e4 e4 ff e4 e4 e4 e4 e4     ................
    7331:	ff e4 ff e4 e4 e4 e4 e4 ff e4 ff e4 e4 e4 e4 e4     ................
    7341:	e4 e4 ff e4 e4 e4 e4 e4 e4 e4 ff e4 e4 e4 e4 e4     ................
    7351:	e4 e4 e4 e4 e4 e4 e4 e4 e4 e4 ff e4 e4 e4 e4 e4     ................
    7361:	e4 e4 e4 e4 e4 e4 e4 e4 e4 e4 ff ff ff e4 e4 e4     ................
    7371:	e4 ff e4 e4 e4 ff e4 ff e4 ff e4 e4 e4 e4 e4 ff     ................
    7381:	e4 ff e4 e4 e4 e4 e4 ff e4 ff e4 e4 e4 e4 e4 ff     ................
    7391:	e4 ff e4 e4 e4 ff e4 ff e4 e4 ff ff ff e4 e4 e4     ................
    73a1:	e4 e4 e4 e4 e4 e4 e4 e4 ff ff ff e4 e4 ff ff e4     ................
    73b1:	e4 e4 e4 ff e4 ff ff e4 e4 e4 e4 ff e4 ff e4 ff     ................
    73c1:	e4 e4 e4 ff e4 ff e4 ff e4 e4 e4 ff e4 ff e4 e4     ................
    73d1:	e4 e4 e4 ff e4 ff e4 e4 ff ff ff e4 e4 ff e4 e4     ................
    73e1:	e4 e4 e4 e4 e4 e4 e4 e4 e4 ff e4 e4 ff ff ff e4     ................
    73f1:	e4 ff e4 ff e4 e4 e4 ff e4 ff e4 ff e4 e4 e4 e4     ................
    7401:	e4 ff e4 ff e4 e4 ff ff ff ff e4 ff e4 e4 e4 ff     ................
    7411:	ff ff e4 ff e4 e4 e4 ff e4 ff e4 e4 ff ff ff e4     ................
    7421:	e4 e4 e4 e4 e4 e4 e4 e4 e4 ff ff ff ff e4 e4 e4     ................
    7431:	e4 ff e4 e4 e4 ff e4 e4 e4 ff e4 e4 e4 ff e4 e4     ................
    7441:	e4 ff ff ff ff e4 e4 e4 e4 ff e4 ff e4 e4 e4 ff     ................
    7451:	e4 ff e4 e4 ff e4 e4 ff e4 ff e4 e4 e4 ff e4 ff     ................
    7461:	e4 e4 e4 e4 e4 e4 e4 e4 e4 ff e4 e4 ff ff ff ff     ................
    7471:	e4 ff e4 e4 e4 e4 ff e4 ff e4 ff e4 e4 e4 ff e4     ................
    7481:	ff e4 ff e4 e4 e4 ff e4 ff ff ff ff e4 e4 ff e4     ................
    7491:	e4 e4 e4 ff e4 e4 ff e4 e4 e4 e4 ff e4 e4 ff e4     ................
    74a1:	e4 e4 e4 e4 e4 e4 e4 e4 ff e4 ff e4 e4 e4 ff e4     ................
    74b1:	e4 e4 ff e4 e4 e4 ff e4 e4 e4 ff e4 e4 e4 ff e4     ................
    74c1:	e4 e4 ff e4 e4 e4 ff e4 e4 e4 ff e4 e4 e4 ff e4     ................
    74d1:	e4 e4 ff e4 e4 e4 ff e4 e4 e4 e4 ff ff ff e4 e4     ................
    74e1:	e4 e4 e4 e4 e4 e4 e4 e4 ff e4 e4 e4 e4 e4 e4 ff     ................
    74f1:	ff e4 e4 e4 e4 e4 e4 ff ff e4 e4 e4 e4 e4 ff e4     ................
    7501:	ff e4 e4 e4 e4 e4 ff e4 ff e4 e4 e4 e4 ff ff ff     ................
    7511:	ff e4 e4 e4 e4 ff e4 e4 ff ff ff ff e4 ff e4 e4     ................
    7521:	e4 e4 e4 e4 e4 e4 e4 e4 e4 e4 ff ff ff ff ff e4     ................
    7531:	e4 e4 e4 e4 ff e4 e4 e4 ff e4 e4 e4 ff e4 e4 e4     ................
    7541:	ff e4 e4 e4 ff e4 e4 e4 ff ff e4 e4 ff e4 e4 e4     ................
    7551:	e4 ff e4 e4 ff e4 e4 e4 e4 ff e4 e4 ff e4 e4 e4     ................
    7561:	e4 e4 e4 e4 e4 e4 e4 e4 ff e4 e4 ff ff ff e4 e4     ................
    7571:	ff e4 ff e4 e4 e4 ff e4 ff e4 ff e4 e4 e4 ff e4     ................
    7581:	ff e4 ff e4 e4 e4 ff e4 ff e4 ff e4 e4 e4 ff e4     ................
    7591:	ff e4 ff e4 e4 e4 ff e4 ff e4 e4 ff ff ff e4 e4     ................
    75a1:	e4 e4 e4 e4 e4 e4 e4 e4 ff ff e4 e4 ff e4 ff e4     ................
    75b1:	ff ff e4 e4 ff e4 ff e4 ff e4 ff e4 ff e4 ff e4     ................
    75c1:	ff e4 ff e4 ff e4 ff e4 ff e4 e4 ff ff e4 ff e4     ................
    75d1:	ff e4 e4 ff ff e4 e4 e4 ff e4 e4 e4 ff e4 ff e4     ................
    75e1:	e4 e4 e4 e4 e4 e4 e4 e4 e4 e4 0f 0c 0f e4 e4 e4     ................
    75f1:	e4 e4 0f 0c 0f e4 e4 e4 e4 e4 0f 0c 0f 0f e4 e4     ................
    7601:	e4 e4 0f 0c 0c 0f e4 e4 e4 0f 0f 0c 0c 0f 0f e4     ................
    7611:	e4 0f 0c 0c 0c 0c 0f e4 e4 0f 0c 0c 0c 0c 0f e4     ................
    7621:	0f 0f 0c 0c 0c 0c 0f 0f e4 ad a4 a4 a4 ad f6 e4     ................
    7631:	e4 ad a4 a4 a4 a4 f6 e4 e4 ad a4 a4 a4 a4 f6 e4     ................
    7641:	e4 ad a4 a4 a4 a4 f6 e4 e4 ad a4 a4 a4 a4 f6 e4     ................
    7651:	e4 ad a4 a4 a4 a4 f6 e4 e4 ad a4 a4 a4 a4 f6 e4     ................
	...

00007669 <spike1>:
    7669:	01 02 a3 bc                                         ....

0000766d <spike0>:
    766d:	01 02 a2 bb                                         ....

00007671 <congra0>:
    7671:	0a 01 b1 b2 b3 b4 b5 b6 b7 b8 b9 ba                 ............

0000767d <timeup0>:
    767d:	06 01 ab ac ad ae af b0                             ........

00007685 <over0>:
    7685:	07 01 a4 a5 a6 a7 a8 a9 aa                          .........

0000768e <press0>:
    768e:	08 01 9c 9d 98 8a 9e 9f a0 a1                       ..........

00007698 <time0>:
    7698:	03 01 99 9a 9b                                      .....

0000769d <live0>:
    769d:	03 01 97 8d 98                                      .....

000076a2 <get0>:
    76a2:	07 01 90 91 92 93 94 95 96                          .........

000076ab <x0>:
    76ab:	01 01 8f                                            ...

000076ae <level0>:
    76ae:	04 01 8b 8c 8d 8e                                   ......

000076b4 <bonus0>:
    76b4:	04 01 87 88 89 8a                                   ......

000076ba <score0>:
    76ba:	04 01 83 84 85 86                                   ......

000076c0 <nm>:
    76c0:	01 01 82                                            ...

000076c3 <n9>:
    76c3:	01 01 81                                            ...

000076c6 <n8>:
    76c6:	01 01 80                                            ...

000076c9 <n7>:
    76c9:	01 01 7f                                            ...

000076cc <n6>:
    76cc:	01 01 7e                                            ..~

000076cf <n5>:
    76cf:	01 01 7d                                            ..}

000076d2 <n4>:
    76d2:	01 01 7c                                            ..|

000076d5 <n3>:
    76d5:	01 01 7b                                            ..{

000076d8 <n2>:
    76d8:	01 01 7a                                            ..z

000076db <n1>:
    76db:	01 01 79                                            ..y

000076de <n0>:
    76de:	01 01 78                                            ..x

000076e1 <nb>:
    76e1:	01 01 09                                            ...

000076e4 <bridge3>:
    76e4:	01 01 67                                            ..g

000076e7 <bridge2>:
    76e7:	01 01 66                                            ..f

000076ea <bridge1>:
    76ea:	01 01 65                                            ..e

000076ed <bridge0>:
    76ed:	01 01 64                                            ..d

000076f0 <water3>:
    76f0:	02 02 5f 60 76 77                                   .._`vw

000076f6 <water2>:
    76f6:	02 02 5d 5e 74 75                                   ..]^tu

000076fc <water1>:
    76fc:	02 02 31 32 48 49                                   ..12HI

00007702 <water0>:
    7702:	02 02 2f 30 46 47                                   ../0FG

00007708 <tube5>:
    7708:	02 02 57 58 6e 6f                                   ..WXno

0000770e <tube4>:
    770e:	02 02 29 2a 40 41                                   ..)*@A

00007714 <tube3>:
    7714:	02 02 5b 5c 72 73                                   ..[\rs

0000771a <tube2>:
    771a:	02 02 59 5a 70 71                                   ..YZpq

00007720 <tube1>:
    7720:	02 02 2d 2e 44 45                                   ..-.DE

00007726 <tube0>:
    7726:	02 02 2b 2c 42 43                                   ..+,BC

0000772c <cloud3>:
    772c:	02 02 55 56 6c 6d                                   ..UVlm

00007732 <cloud2>:
    7732:	02 02 53 54 6a 6b                                   ..STjk

00007738 <cloud1>:
    7738:	02 02 28 09 3e 3f                                   ..(.>?

0000773e <cloud0>:
    773e:	02 02 26 27 3c 3d                                   ..&'<=

00007744 <bush4>:
    7744:	02 02 4c 09 63 09                                   ..L.c.

0000774a <bush3>:
    774a:	02 02 09 09 35 09                                   ....5.

00007750 <bush2>:
    7750:	02 02 4a 4b 61 62                                   ..JKab

00007756 <bush1>:
    7756:	02 02 09 09 33 34                                   ....34

0000775c <blue>:
    775c:	01 01 09                                            ...

0000775f <banana2>:
    775f:	02 01 68 69                                         ..hi

00007763 <banana>:
    7763:	02 02 3a 3b 51 52                                   ..:;QR

00007769 <diamond0>:
    7769:	02 02 38 39 4f 50                                   ..89OP

0000776f <block3>:
    776f:	02 02 08 08 19 19                                   ......

00007775 <block2>:
    7775:	02 02 36 37 4d 4e                                   ..67MN

0000777b <door3>:
    777b:	02 02 0f 10 0f 1f                                   ......

00007781 <door2>:
    7781:	02 02 0e 0f 1e 0f                                   ......

00007787 <door1>:
    7787:	02 02 0c 0d 1c 1d                                   ......

0000778d <door0>:
    778d:	02 02 0a 0b 1a 1b                                   ......

00007793 <block5>:
    7793:	02 02 09 08 09 19                                   ......

00007799 <block4>:
    7799:	02 02 08 09 19 09                                   ......

0000779f <ground3>:
    779f:	02 03 07 06 18 17 24 23                             ......$#

000077a7 <ground2>:
    77a7:	02 03 07 05 18 16 24 25                             ......$%

000077af <ground1>:
    77af:	02 03 04 06 15 17 22 23                             ......"#

000077b7 <ground>:
    77b7:	02 03 04 05 15 16 20 21                             ...... !

000077bf <block1>:
    77bf:	02 02 02 03 13 14                                   ......

000077c5 <block0>:
    77c5:	02 02 00 01 11 12                                   ......

000077cb <bigblue0>:
    77cb:	02 02 09 09 09 09 00                                .......

000077d2 <__ctors_end>:
    77d2:	11 24       	eor	r1, r1
    77d4:	1f be       	out	0x3f, r1	; 63
    77d6:	cf ef       	ldi	r28, 0xFF	; 255
    77d8:	d0 e1       	ldi	r29, 0x10	; 16
    77da:	de bf       	out	0x3e, r29	; 62
    77dc:	cd bf       	out	0x3d, r28	; 61

000077de <__do_copy_data>:
    77de:	11 e0       	ldi	r17, 0x01	; 1
    77e0:	a0 e0       	ldi	r26, 0x00	; 0
    77e2:	b1 e0       	ldi	r27, 0x01	; 1
    77e4:	ee e1       	ldi	r30, 0x1E	; 30
    77e6:	f1 ed       	ldi	r31, 0xD1	; 209
    77e8:	02 c0       	rjmp	.+4      	; 0x77ee <__do_copy_data+0x10>
    77ea:	05 90       	lpm	r0, Z+
    77ec:	0d 92       	st	X+, r0
    77ee:	a6 30       	cpi	r26, 0x06	; 6
    77f0:	b1 07       	cpc	r27, r17
    77f2:	d9 f7       	brne	.-10     	; 0x77ea <__do_copy_data+0xc>

000077f4 <__do_clear_bss>:
    77f4:	2a e0       	ldi	r18, 0x0A	; 10
    77f6:	a6 e0       	ldi	r26, 0x06	; 6
    77f8:	b1 e0       	ldi	r27, 0x01	; 1
    77fa:	01 c0       	rjmp	.+2      	; 0x77fe <.do_clear_bss_start>

000077fc <.do_clear_bss_loop>:
    77fc:	1d 92       	st	X+, r1

000077fe <.do_clear_bss_start>:
    77fe:	af 3d       	cpi	r26, 0xDF	; 223
    7800:	b2 07       	cpc	r27, r18
    7802:	e1 f7       	brne	.-8      	; 0x77fc <.do_clear_bss_loop>

00007804 <wdt_init>:
	  if (j == count) {
		 WriteEeprom(i*EEPROM_BLOCK_SIZE,(u8)EEPROM_FREE_BLOCK);
		 WriteEeprom(i*EEPROM_BLOCK_SIZE+1,(u8)(EEPROM_FREE_BLOCK>>8));
	  }
   }
}
    7804:	14 be       	out	0x34, r1	; 52
    7806:	0f b6       	in	r0, 0x3f	; 63
    7808:	f8 94       	cli
    780a:	a8 95       	wdr
    780c:	80 91 60 00 	lds	r24, 0x0060	; 0x800060 <__TEXT_REGION_LENGTH__+0x7e0060>
    7810:	88 61       	ori	r24, 0x18	; 24
    7812:	80 93 60 00 	sts	0x0060, r24	; 0x800060 <__TEXT_REGION_LENGTH__+0x7e0060>
    7816:	10 92 60 00 	sts	0x0060, r1	; 0x800060 <__TEXT_REGION_LENGTH__+0x7e0060>
    781a:	0f be       	out	0x3f, r0	; 63

0000781c <Initialize>:
    781c:	f8 94       	cli
    781e:	80 e7       	ldi	r24, 0x70	; 112
    7820:	90 e0       	ldi	r25, 0x00	; 0
    7822:	42 ea       	ldi	r20, 0xA2	; 162
    7824:	50 e0       	ldi	r21, 0x00	; 0
    7826:	fc 01       	movw	r30, r24
    7828:	25 91       	lpm	r18, Z+
    782a:	34 91       	lpm	r19, Z
    782c:	f9 01       	movw	r30, r18
    782e:	ff 27       	eor	r31, r31
    7830:	30 83       	st	Z, r19
    7832:	02 96       	adiw	r24, 0x02	; 2
    7834:	48 17       	cp	r20, r24
    7836:	59 07       	cpc	r21, r25
    7838:	b1 f7       	brne	.-20     	; 0x7826 <Initialize+0xa>
    783a:	0e 94 06 42 	call	0x840c	; 0x840c <isEepromFormatted>
    783e:	81 11       	cpse	r24, r1
    7840:	02 c0       	rjmp	.+4      	; 0x7846 <Initialize+0x2a>
    7842:	0e 94 e4 41 	call	0x83c8	; 0x83c8 <FormatEeprom>
    7846:	81 e0       	ldi	r24, 0x01	; 1
    7848:	80 93 8e 08 	sts	0x088E, r24	; 0x80088e <tr4_barrel_lo>
    784c:	80 93 8f 08 	sts	0x088F, r24	; 0x80088f <tr4_barrel_hi>
    7850:	80 93 8d 08 	sts	0x088D, r24	; 0x80088d <tr4_params>
    7854:	10 92 7a 08 	sts	0x087A, r1	; 0x80087a <mixer>
    7858:	10 92 80 08 	sts	0x0880, r1	; 0x800880 <tr2_vol>
    785c:	10 92 86 08 	sts	0x0886, r1	; 0x800886 <tr3_vol>
    7860:	10 92 8c 08 	sts	0x088C, r1	; 0x80088c <tr4_vol>
    7864:	10 92 92 08 	sts	0x0892, r1	; 0x800892 <tr5_vol>
    7868:	10 92 64 08 	sts	0x0864, r1	; 0x800864 <sync_phase>
    786c:	10 92 66 08 	sts	0x0866, r1	; 0x800866 <sync_flags>
    7870:	92 e1       	ldi	r25, 0x12	; 18
    7872:	90 93 65 08 	sts	0x0865, r25	; 0x800865 <sync_pulse>
    7876:	90 ee       	ldi	r25, 0xE0	; 224
    7878:	90 93 6c 08 	sts	0x086C, r25	; 0x80086c <render_lines_count>
    787c:	98 e1       	ldi	r25, 0x18	; 24
    787e:	90 93 6b 08 	sts	0x086B, r25	; 0x80086b <first_render_line>
    7882:	10 92 70 08 	sts	0x0870, r1	; 0x800870 <joypad1_status_hi+0x1>
    7886:	10 92 6f 08 	sts	0x086F, r1	; 0x80086f <joypad1_status_hi>
    788a:	10 92 74 08 	sts	0x0874, r1	; 0x800874 <joypad2_status_hi+0x1>
    788e:	10 92 73 08 	sts	0x0873, r1	; 0x800873 <joypad2_status_hi>
    7892:	80 93 79 08 	sts	0x0879, r24	; 0x800879 <sound_enabled>
    7896:	0e 94 ae 4d 	call	0x9b5c	; 0x9b5c <InitializeVideoMode>
    789a:	78 94       	sei
    789c:	0e 94 18 4e 	call	0x9c30	; 0x9c30 <DisplayLogo>
    78a0:	0e 94 44 66 	call	0xcc88	; 0xcc88 <main>
    78a4:	0c 94 8d 68 	jmp	0xd11a	; 0xd11a <_exit>

000078a8 <__bad_interrupt>:
    78a8:	0c 94 00 00 	jmp	0	; 0x0 <__vectors>

000078ac <sub_video_mode3>:
;****************************
.section .text.SetUserPreVsyncCallback
SetUserPreVsyncCallback:
	sts pre_vsync_user_callback+0,r24
	sts pre_vsync_user_callback+1,r25
	ret
    78ac:	03 e8       	ldi	r16, 0x83	; 131
    78ae:	0a 95       	dec	r16
    78b0:	f1 f7       	brne	.-4      	; 0x78ae <sub_video_mode3+0x2>
    78b2:	00 c0       	rjmp	.+0      	; 0x78b4 <sub_video_mode3+0x8>
    78b4:	00 91 50 08 	lds	r16, 0x0850	; 0x800850 <user_ram_tiles_c>
    78b8:	ee ef       	ldi	r30, 0xFE	; 254
    78ba:	f7 e0       	ldi	r31, 0x07	; 7
    78bc:	23 e0       	ldi	r18, 0x03	; 3
    78be:	02 9f       	mul	r16, r18
    78c0:	e0 0d       	add	r30, r0
    78c2:	f1 1d       	adc	r31, r1
    78c4:	20 91 4f 08 	lds	r18, 0x084F	; 0x80084f <free_tile_index>
    78c8:	3c e3       	ldi	r19, 0x3C	; 60
    78ca:	32 1b       	sub	r19, r18
    78cc:	30 0f       	add	r19, r16
    78ce:	20 17       	cp	r18, r16
    78d0:	51 f0       	breq	.+20     	; 0x78e6 <no_ramtiles>
    78d2:	00 00       	nop
	...

000078d6 <upd_loop>:
    78d6:	a1 91       	ld	r26, Z+
    78d8:	b1 91       	ld	r27, Z+
    78da:	1c 91       	ld	r17, X
    78dc:	11 93       	st	Z+, r17
    78de:	0c 93       	st	X, r16
    78e0:	03 95       	inc	r16
    78e2:	02 17       	cp	r16, r18
    78e4:	c0 f3       	brcs	.-16     	; 0x78d6 <upd_loop>

000078e6 <no_ramtiles>:
    78e6:	13 e0       	ldi	r17, 0x03	; 3
    78e8:	1a 95       	dec	r17
    78ea:	f1 f7       	brne	.-4      	; 0x78e8 <no_ramtiles+0x2>
    78ec:	00 c0       	rjmp	.+0      	; 0x78ee <no_ramtiles+0x8>
    78ee:	3a 95       	dec	r19
    78f0:	d1 f7       	brne	.-12     	; 0x78e6 <no_ramtiles>
    78f2:	c0 e0       	ldi	r28, 0x00	; 0
    78f4:	db e0       	ldi	r29, 0x0B	; 11
    78f6:	20 91 60 08 	lds	r18, 0x0860	; 0x800860 <screen_scrollX>
    78fa:	92 2f       	mov	r25, r18
    78fc:	28 7f       	andi	r18, 0xF8	; 248
    78fe:	c2 0f       	add	r28, r18
    7900:	6e 01       	movw	r12, r28
    7902:	00 91 61 08 	lds	r16, 0x0861	; 0x800861 <screen_scrollY>
    7906:	60 2f       	mov	r22, r16
    7908:	06 95       	lsr	r16
    790a:	06 95       	lsr	r16
    790c:	06 95       	lsr	r16
    790e:	10 91 62 08 	lds	r17, 0x0862	; 0x800862 <screen_scrollHeight>
    7912:	10 1b       	sub	r17, r16
    7914:	f1 2e       	mov	r15, r17
    7916:	10 2f       	mov	r17, r16
    7918:	06 95       	lsr	r16
    791a:	06 95       	lsr	r16
    791c:	06 95       	lsr	r16
    791e:	d0 0f       	add	r29, r16
    7920:	17 70       	andi	r17, 0x07	; 7
    7922:	c1 0f       	add	r28, r17
    7924:	67 70       	andi	r22, 0x07	; 7
    7926:	40 91 5e 08 	lds	r20, 0x085E	; 0x80085e <overlay_tile_table>
    792a:	50 91 5f 08 	lds	r21, 0x085F	; 0x80085f <overlay_tile_table+0x1>
    792e:	60 90 5a 08 	lds	r6, 0x085A	; 0x80085a <tile_table_lo>
    7932:	70 90 5b 08 	lds	r7, 0x085B	; 0x80085b <tile_table_hi>
    7936:	d3 01       	movw	r26, r6
    7938:	5e 01       	movw	r10, r28
    793a:	76 2f       	mov	r23, r22
    793c:	8f 2d       	mov	r24, r15
    793e:	99 2e       	mov	r9, r25
    7940:	00 91 62 08 	lds	r16, 0x0862	; 0x800862 <screen_scrollHeight>
    7944:	20 2f       	mov	r18, r16
    7946:	06 95       	lsr	r16
    7948:	06 95       	lsr	r16
    794a:	06 95       	lsr	r16
    794c:	03 95       	inc	r16
    794e:	27 70       	andi	r18, 0x07	; 7
    7950:	30 91 5d 08 	lds	r19, 0x085D	; 0x80085d <Screen>
    7954:	30 30       	cpi	r19, 0x00	; 0
    7956:	0f b6       	in	r0, 0x3f	; 63
    7958:	01 fe       	sbrs	r0, 1
    795a:	66 27       	eor	r22, r22
    795c:	01 fe       	sbrs	r0, 1
    795e:	c2 2f       	mov	r28, r18
    7960:	01 fe       	sbrs	r0, 1
    7962:	d0 2f       	mov	r29, r16
    7964:	01 fe       	sbrs	r0, 1
    7966:	8f ef       	ldi	r24, 0xFF	; 255
    7968:	01 fe       	sbrs	r0, 1
    796a:	99 24       	eor	r9, r9
    796c:	01 fe       	sbrs	r0, 1
    796e:	da 01       	movw	r26, r20
    7970:	80 90 6c 08 	lds	r8, 0x086C	; 0x80086c <render_lines_count>
    7974:	07 e0       	ldi	r16, 0x07	; 7
    7976:	00 93 36 00 	sts	0x0036, r16	; 0x800036 <__TEXT_REGION_LENGTH__+0x7e0036>
    797a:	01 e0       	ldi	r16, 0x01	; 1
    797c:	00 93 81 00 	sts	0x0081, r16	; 0x800081 <__TEXT_REGION_LENGTH__+0x7e0081>
    7980:	01 e0       	ldi	r16, 0x01	; 1
    7982:	00 93 6f 00 	sts	0x006F, r16	; 0x80006f <__TEXT_REGION_LENGTH__+0x7e006f>

00007986 <next_tile_line>:
    7986:	08 e0       	ldi	r16, 0x08	; 8
    7988:	60 9f       	mul	r22, r16
    798a:	8d 01       	movw	r16, r26
    798c:	00 5c       	subi	r16, 0xC0	; 192
    798e:	16 40       	sbci	r17, 0x06	; 6
    7990:	00 0d       	add	r16, r0
    7992:	11 1d       	adc	r17, r1
    7994:	18 01       	movw	r2, r16
    7996:	0e e3       	ldi	r16, 0x3E	; 62
    7998:	11 e0       	ldi	r17, 0x01	; 1
    799a:	00 0d       	add	r16, r0
    799c:	11 1d       	adc	r17, r1
    799e:	28 01       	movw	r4, r16
    79a0:	00 e4       	ldi	r16, 0x40	; 64
    79a2:	e0 2e       	mov	r14, r16
    79a4:	03 e9       	ldi	r16, 0x93	; 147
    79a6:	1a ef       	ldi	r17, 0xFA	; 250
    79a8:	cf 93       	push	r28
    79aa:	df 93       	push	r29
    79ac:	58 81       	ld	r21, Y
    79ae:	c8 5f       	subi	r28, 0xF8	; 248
    79b0:	48 81       	ld	r20, Y
    79b2:	c8 5f       	subi	r28, 0xF8	; 248
    79b4:	a5 d3       	rcall	.+1866   	; 0x8100 <hsync_pulse>
    79b6:	2c e0       	ldi	r18, 0x0C	; 12
    79b8:	2a 95       	dec	r18
    79ba:	f1 f7       	brne	.-4      	; 0x79b8 <next_tile_line+0x32>
    79bc:	20 e1       	ldi	r18, 0x10	; 16
    79be:	2a 95       	dec	r18
    79c0:	f1 f7       	brne	.-4      	; 0x79be <next_tile_line+0x38>
    79c2:	10 93 85 00 	sts	0x0085, r17	; 0x800085 <__TEXT_REGION_LENGTH__+0x7e0085>
    79c6:	00 93 84 00 	sts	0x0084, r16	; 0x800084 <__TEXT_REGION_LENGTH__+0x7e0084>
    79ca:	78 94       	sei
    79cc:	00 27       	eor	r16, r16
    79ce:	5e 9d       	mul	r21, r14
    79d0:	5b 31       	cpi	r21, 0x1B	; 27
    79d2:	f1 01       	movw	r30, r2
    79d4:	08 f4       	brcc	.+2      	; 0x79d8 <next_tile_line+0x52>
    79d6:	f2 01       	movw	r30, r4
    79d8:	00 1f       	adc	r16, r16
    79da:	e0 0d       	add	r30, r0
    79dc:	f1 1d       	adc	r31, r1
    79de:	29 2d       	mov	r18, r9
    79e0:	27 70       	andi	r18, 0x07	; 7
    79e2:	11 24       	eor	r1, r1
    79e4:	e2 0f       	add	r30, r18
    79e6:	f1 1d       	adc	r31, r1
    79e8:	4e 9d       	mul	r20, r14
    79ea:	4b 31       	cpi	r20, 0x1B	; 27
    79ec:	a1 01       	movw	r20, r2
    79ee:	08 f4       	brcc	.+2      	; 0x79f2 <next_tile_line+0x6c>
    79f0:	a2 01       	movw	r20, r4
    79f2:	00 1f       	adc	r16, r16
    79f4:	40 0d       	add	r20, r0
    79f6:	51 1d       	adc	r21, r1
    79f8:	1a e1       	ldi	r17, 0x1A	; 26
    79fa:	01 9f       	mul	r16, r17
    79fc:	00 2d       	mov	r16, r0
    79fe:	13 e0       	ldi	r17, 0x03	; 3
    7a00:	21 9f       	mul	r18, r17
    7a02:	11 27       	eor	r17, r17
    7a04:	0d 5a       	subi	r16, 0xAD	; 173
    7a06:	12 4c       	sbci	r17, 0xC2	; 194
    7a08:	00 0e       	add	r0, r16
    7a0a:	11 1e       	adc	r1, r17
    7a0c:	11 27       	eor	r17, r17
    7a0e:	0f 92       	push	r0
    7a10:	1f 92       	push	r1
    7a12:	08 95       	ret

00007a14 <__vector_15>:
    7a14:	18 b9       	out	0x08, r17	; 8
    7a16:	0f 90       	pop	r0
    7a18:	0f 90       	pop	r0
    7a1a:	df 91       	pop	r29
    7a1c:	cf 91       	pop	r28
    7a1e:	03 e1       	ldi	r16, 0x13	; 19
    7a20:	0a 95       	dec	r16
    7a22:	f1 f7       	brne	.-4      	; 0x7a20 <__vector_15+0xc>
    7a24:	00 c0       	rjmp	.+0      	; 0x7a26 <__vector_15+0x12>
    7a26:	63 95       	inc	r22
    7a28:	8a 94       	dec	r8
    7a2a:	f9 f0       	breq	.+62     	; 0x7a6a <text_frame_end>
    7a2c:	68 30       	cpi	r22, 0x08	; 8
    7a2e:	29 f0       	breq	.+10     	; 0x7a3a <next_tile_row>
    7a30:	07 e0       	ldi	r16, 0x07	; 7
    7a32:	0a 95       	dec	r16
    7a34:	f1 f7       	brne	.-4      	; 0x7a32 <__vector_15+0x1e>
    7a36:	00 c0       	rjmp	.+0      	; 0x7a38 <__vector_15+0x24>
    7a38:	a6 cf       	rjmp	.-180    	; 0x7986 <next_tile_line>

00007a3a <next_tile_row>:
    7a3a:	66 27       	eor	r22, r22
    7a3c:	0c 2f       	mov	r16, r28
    7a3e:	07 70       	andi	r16, 0x07	; 7
    7a40:	07 30       	cpi	r16, 0x07	; 7
    7a42:	11 f0       	breq	.+4      	; 0x7a48 <next_tile_row+0xe>
    7a44:	c3 95       	inc	r28
    7a46:	02 c0       	rjmp	.+4      	; 0x7a4c <next_tile_row+0x12>
    7a48:	c8 7f       	andi	r28, 0xF8	; 248
    7a4a:	d3 95       	inc	r29
    7a4c:	8a 95       	dec	r24
    7a4e:	09 f4       	brne	.+2      	; 0x7a52 <next_tile_row+0x18>
    7a50:	e6 01       	movw	r28, r12
    7a52:	3a 95       	dec	r19
    7a54:	09 f4       	brne	.+2      	; 0x7a58 <next_tile_row+0x1e>
    7a56:	67 2f       	mov	r22, r23
    7a58:	09 f4       	brne	.+2      	; 0x7a5c <next_tile_row+0x22>
    7a5a:	e5 01       	movw	r28, r10
    7a5c:	09 f4       	brne	.+2      	; 0x7a60 <next_tile_row+0x26>
    7a5e:	8f 2d       	mov	r24, r15
    7a60:	09 f4       	brne	.+2      	; 0x7a64 <next_tile_row+0x2a>
    7a62:	99 2e       	mov	r9, r25
    7a64:	09 f4       	brne	.+2      	; 0x7a68 <next_tile_row+0x2e>
    7a66:	d3 01       	movw	r26, r6
    7a68:	8e cf       	rjmp	.-228    	; 0x7986 <next_tile_line>

00007a6a <text_frame_end>:
    7a6a:	20 e1       	ldi	r18, 0x10	; 16
    7a6c:	2a 95       	dec	r18
    7a6e:	f1 f7       	brne	.-4      	; 0x7a6c <text_frame_end+0x2>
    7a70:	00 e0       	ldi	r16, 0x00	; 0
    7a72:	00 93 85 00 	sts	0x0085, r16	; 0x800085 <__TEXT_REGION_LENGTH__+0x7e0085>
    7a76:	0c e2       	ldi	r16, 0x2C	; 44
    7a78:	00 93 84 00 	sts	0x0084, r16	; 0x800084 <__TEXT_REGION_LENGTH__+0x7e0084>
    7a7c:	41 d3       	rcall	.+1666   	; 0x8100 <hsync_pulse>
    7a7e:	11 24       	eor	r1, r1
    7a80:	0e 94 25 3f 	call	0x7e4a	; 0x7e4a <RestoreBackground>
    7a84:	e0 91 66 08 	lds	r30, 0x0866	; 0x800866 <sync_flags>
    7a88:	42 e0       	ldi	r20, 0x02	; 2
    7a8a:	e1 60       	ori	r30, 0x01	; 1
    7a8c:	e4 27       	eor	r30, r20
    7a8e:	e0 93 66 08 	sts	0x0866, r30	; 0x800866 <sync_flags>
    7a92:	07 e0       	ldi	r16, 0x07	; 7
    7a94:	00 93 36 00 	sts	0x0036, r16	; 0x800036 <__TEXT_REGION_LENGTH__+0x7e0036>
    7a98:	09 e0       	ldi	r16, 0x09	; 9
    7a9a:	00 93 81 00 	sts	0x0081, r16	; 0x800081 <__TEXT_REGION_LENGTH__+0x7e0081>
    7a9e:	02 e0       	ldi	r16, 0x02	; 2
    7aa0:	00 93 6f 00 	sts	0x006F, r16	; 0x80006f <__TEXT_REGION_LENGTH__+0x7e006f>
    7aa4:	08 95       	ret

00007aa6 <romrom_e>:
    7aa6:	00 c0       	rjmp	.+0      	; 0x7aa8 <romrom_e+0x2>
    7aa8:	05 91       	lpm	r16, Z+
    7aaa:	08 b9       	out	0x08, r16	; 8
    7aac:	00 c0       	rjmp	.+0      	; 0x7aae <romrom_e+0x8>
    7aae:	05 91       	lpm	r16, Z+
    7ab0:	08 b9       	out	0x08, r16	; 8
    7ab2:	00 c0       	rjmp	.+0      	; 0x7ab4 <romrom_e+0xe>
    7ab4:	05 91       	lpm	r16, Z+
    7ab6:	08 b9       	out	0x08, r16	; 8
    7ab8:	00 c0       	rjmp	.+0      	; 0x7aba <romrom_e+0x14>
    7aba:	05 91       	lpm	r16, Z+
    7abc:	08 b9       	out	0x08, r16	; 8
    7abe:	00 c0       	rjmp	.+0      	; 0x7ac0 <romrom_e+0x1a>
    7ac0:	05 91       	lpm	r16, Z+
    7ac2:	08 b9       	out	0x08, r16	; 8
    7ac4:	00 c0       	rjmp	.+0      	; 0x7ac6 <romrom_e+0x20>
    7ac6:	05 91       	lpm	r16, Z+
    7ac8:	08 b9       	out	0x08, r16	; 8
    7aca:	00 c0       	rjmp	.+0      	; 0x7acc <romrom_e+0x26>
    7acc:	05 91       	lpm	r16, Z+
    7ace:	08 b9       	out	0x08, r16	; 8
    7ad0:	00 00       	nop
    7ad2:	05 91       	lpm	r16, Z+
    7ad4:	fa 01       	movw	r30, r20
    7ad6:	08 b9       	out	0x08, r16	; 8
    7ad8:	56 c0       	rjmp	.+172    	; 0x7b86 <romloop_px0>

00007ada <romram_e>:
    7ada:	00 c0       	rjmp	.+0      	; 0x7adc <romram_e+0x2>
    7adc:	05 91       	lpm	r16, Z+
    7ade:	08 b9       	out	0x08, r16	; 8
    7ae0:	00 c0       	rjmp	.+0      	; 0x7ae2 <romram_e+0x8>
    7ae2:	05 91       	lpm	r16, Z+
    7ae4:	08 b9       	out	0x08, r16	; 8
    7ae6:	00 c0       	rjmp	.+0      	; 0x7ae8 <romram_e+0xe>
    7ae8:	05 91       	lpm	r16, Z+
    7aea:	08 b9       	out	0x08, r16	; 8
    7aec:	00 c0       	rjmp	.+0      	; 0x7aee <romram_e+0x14>
    7aee:	05 91       	lpm	r16, Z+
    7af0:	08 b9       	out	0x08, r16	; 8
    7af2:	00 c0       	rjmp	.+0      	; 0x7af4 <romram_e+0x1a>
    7af4:	05 91       	lpm	r16, Z+
    7af6:	08 b9       	out	0x08, r16	; 8
    7af8:	00 c0       	rjmp	.+0      	; 0x7afa <romram_e+0x20>
    7afa:	05 91       	lpm	r16, Z+
    7afc:	08 b9       	out	0x08, r16	; 8
    7afe:	00 c0       	rjmp	.+0      	; 0x7b00 <romram_e+0x26>
    7b00:	05 91       	lpm	r16, Z+
    7b02:	08 b9       	out	0x08, r16	; 8
    7b04:	00 00       	nop
    7b06:	05 91       	lpm	r16, Z+
    7b08:	fa 01       	movw	r30, r20
    7b0a:	08 b9       	out	0x08, r16	; 8
    7b0c:	59 c0       	rjmp	.+178    	; 0x7bc0 <ramloop_px0>

00007b0e <ramrom_e>:
    7b0e:	04 91       	lpm	r16, Z
    7b10:	01 91       	ld	r16, Z+
    7b12:	08 b9       	out	0x08, r16	; 8
    7b14:	04 91       	lpm	r16, Z
    7b16:	01 91       	ld	r16, Z+
    7b18:	08 b9       	out	0x08, r16	; 8
    7b1a:	04 91       	lpm	r16, Z
    7b1c:	01 91       	ld	r16, Z+
    7b1e:	08 b9       	out	0x08, r16	; 8
    7b20:	04 91       	lpm	r16, Z
    7b22:	01 91       	ld	r16, Z+
    7b24:	08 b9       	out	0x08, r16	; 8
    7b26:	04 91       	lpm	r16, Z
    7b28:	01 91       	ld	r16, Z+
    7b2a:	08 b9       	out	0x08, r16	; 8
    7b2c:	04 91       	lpm	r16, Z
    7b2e:	01 91       	ld	r16, Z+
    7b30:	08 b9       	out	0x08, r16	; 8
    7b32:	04 91       	lpm	r16, Z
    7b34:	01 91       	ld	r16, Z+
    7b36:	08 b9       	out	0x08, r16	; 8
    7b38:	00 c0       	rjmp	.+0      	; 0x7b3a <ramrom_e+0x2c>
    7b3a:	01 91       	ld	r16, Z+
    7b3c:	fa 01       	movw	r30, r20
    7b3e:	08 b9       	out	0x08, r16	; 8
    7b40:	22 c0       	rjmp	.+68     	; 0x7b86 <romloop_px0>

00007b42 <ramram_e>:
    7b42:	04 91       	lpm	r16, Z
    7b44:	01 91       	ld	r16, Z+
    7b46:	08 b9       	out	0x08, r16	; 8
    7b48:	04 91       	lpm	r16, Z
    7b4a:	01 91       	ld	r16, Z+
    7b4c:	08 b9       	out	0x08, r16	; 8
    7b4e:	04 91       	lpm	r16, Z
    7b50:	01 91       	ld	r16, Z+
    7b52:	08 b9       	out	0x08, r16	; 8
    7b54:	04 91       	lpm	r16, Z
    7b56:	01 91       	ld	r16, Z+
    7b58:	08 b9       	out	0x08, r16	; 8
    7b5a:	04 91       	lpm	r16, Z
    7b5c:	01 91       	ld	r16, Z+
    7b5e:	08 b9       	out	0x08, r16	; 8
    7b60:	04 91       	lpm	r16, Z
    7b62:	01 91       	ld	r16, Z+
    7b64:	08 b9       	out	0x08, r16	; 8
    7b66:	04 91       	lpm	r16, Z
    7b68:	01 91       	ld	r16, Z+
    7b6a:	08 b9       	out	0x08, r16	; 8
    7b6c:	00 c0       	rjmp	.+0      	; 0x7b6e <ramram_e+0x2c>
    7b6e:	01 91       	ld	r16, Z+
    7b70:	fa 01       	movw	r30, r20
    7b72:	08 b9       	out	0x08, r16	; 8
    7b74:	25 c0       	rjmp	.+74     	; 0x7bc0 <ramloop_px0>

00007b76 <romloop>:
    7b76:	05 91       	lpm	r16, Z+
    7b78:	08 b9       	out	0x08, r16	; 8
    7b7a:	02 0c       	add	r0, r2
    7b7c:	00 00       	nop
    7b7e:	05 91       	lpm	r16, Z+
    7b80:	08 b9       	out	0x08, r16	; 8
    7b82:	13 1c       	adc	r1, r3
    7b84:	f0 01       	movw	r30, r0

00007b86 <romloop_px0>:
    7b86:	05 91       	lpm	r16, Z+
    7b88:	08 b9       	out	0x08, r16	; 8
    7b8a:	00 c0       	rjmp	.+0      	; 0x7b8c <romloop_px0+0x6>
    7b8c:	05 91       	lpm	r16, Z+
    7b8e:	08 b9       	out	0x08, r16	; 8
    7b90:	48 81       	ld	r20, Y
    7b92:	05 91       	lpm	r16, Z+
    7b94:	08 b9       	out	0x08, r16	; 8
    7b96:	c8 5f       	subi	r28, 0xF8	; 248
    7b98:	00 00       	nop
    7b9a:	05 91       	lpm	r16, Z+
    7b9c:	08 b9       	out	0x08, r16	; 8
    7b9e:	4e 9d       	mul	r20, r14
    7ba0:	05 91       	lpm	r16, Z+
    7ba2:	08 b9       	out	0x08, r16	; 8
    7ba4:	4b 31       	cpi	r20, 0x1B	; 27
    7ba6:	00 00       	nop
    7ba8:	05 91       	lpm	r16, Z+
    7baa:	08 b9       	out	0x08, r16	; 8
    7bac:	20 f7       	brcc	.-56     	; 0x7b76 <romloop>
    7bae:	00 00       	nop
    7bb0:	05 91       	lpm	r16, Z+
    7bb2:	08 b9       	out	0x08, r16	; 8
    7bb4:	04 0c       	add	r0, r4
    7bb6:	00 00       	nop
    7bb8:	05 91       	lpm	r16, Z+
    7bba:	08 b9       	out	0x08, r16	; 8
    7bbc:	15 1c       	adc	r1, r5
    7bbe:	f0 01       	movw	r30, r0

00007bc0 <ramloop_px0>:
    7bc0:	00 00       	nop
    7bc2:	01 91       	ld	r16, Z+
    7bc4:	08 b9       	out	0x08, r16	; 8
    7bc6:	48 81       	ld	r20, Y
    7bc8:	00 00       	nop
    7bca:	01 91       	ld	r16, Z+
    7bcc:	08 b9       	out	0x08, r16	; 8
    7bce:	c8 5f       	subi	r28, 0xF8	; 248
    7bd0:	4e 9d       	mul	r20, r14
    7bd2:	01 91       	ld	r16, Z+
    7bd4:	08 b9       	out	0x08, r16	; 8
    7bd6:	04 91       	lpm	r16, Z
    7bd8:	01 91       	ld	r16, Z+
    7bda:	08 b9       	out	0x08, r16	; 8
    7bdc:	04 91       	lpm	r16, Z
    7bde:	01 91       	ld	r16, Z+
    7be0:	08 b9       	out	0x08, r16	; 8
    7be2:	4b 31       	cpi	r20, 0x1B	; 27
    7be4:	00 c0       	rjmp	.+0      	; 0x7be6 <ramloop_px0+0x26>
    7be6:	01 91       	ld	r16, Z+
    7be8:	08 b9       	out	0x08, r16	; 8
    7bea:	50 f4       	brcc	.+20     	; 0x7c00 <ramloop_tr>
    7bec:	00 00       	nop
    7bee:	04 0c       	add	r0, r4
    7bf0:	01 91       	ld	r16, Z+
    7bf2:	08 b9       	out	0x08, r16	; 8
    7bf4:	15 1c       	adc	r1, r5
    7bf6:	00 00       	nop
    7bf8:	01 91       	ld	r16, Z+
    7bfa:	f0 01       	movw	r30, r0
    7bfc:	08 b9       	out	0x08, r16	; 8
    7bfe:	e0 cf       	rjmp	.-64     	; 0x7bc0 <ramloop_px0>

00007c00 <ramloop_tr>:
    7c00:	02 0c       	add	r0, r2
    7c02:	01 91       	ld	r16, Z+
    7c04:	08 b9       	out	0x08, r16	; 8
    7c06:	13 1c       	adc	r1, r3
    7c08:	00 00       	nop
    7c0a:	01 91       	ld	r16, Z+
    7c0c:	f0 01       	movw	r30, r0
    7c0e:	08 b9       	out	0x08, r16	; 8
    7c10:	ba cf       	rjmp	.-140    	; 0x7b86 <romloop_px0>

00007c12 <CopyFlashTile>:
    7c12:	20 e4       	ldi	r18, 0x40	; 64
    7c14:	e0 91 5a 08 	lds	r30, 0x085A	; 0x80085a <tile_table_lo>
    7c18:	f0 91 5b 08 	lds	r31, 0x085B	; 0x80085b <tile_table_hi>
    7c1c:	82 9f       	mul	r24, r18
    7c1e:	e0 0d       	add	r30, r0
    7c20:	f1 1d       	adc	r31, r1
    7c22:	ae e3       	ldi	r26, 0x3E	; 62
    7c24:	b1 e0       	ldi	r27, 0x01	; 1
    7c26:	62 9f       	mul	r22, r18
    7c28:	a0 0d       	add	r26, r0
    7c2a:	b1 1d       	adc	r27, r1
    7c2c:	15 90       	lpm	r1, Z+
    7c2e:	1d 92       	st	X+, r1
    7c30:	15 90       	lpm	r1, Z+
    7c32:	1d 92       	st	X+, r1
    7c34:	15 90       	lpm	r1, Z+
    7c36:	1d 92       	st	X+, r1
    7c38:	15 90       	lpm	r1, Z+
    7c3a:	1d 92       	st	X+, r1
    7c3c:	15 90       	lpm	r1, Z+
    7c3e:	1d 92       	st	X+, r1
    7c40:	15 90       	lpm	r1, Z+
    7c42:	1d 92       	st	X+, r1
    7c44:	15 90       	lpm	r1, Z+
    7c46:	1d 92       	st	X+, r1
    7c48:	15 90       	lpm	r1, Z+
    7c4a:	1d 92       	st	X+, r1
    7c4c:	15 90       	lpm	r1, Z+
    7c4e:	1d 92       	st	X+, r1
    7c50:	15 90       	lpm	r1, Z+
    7c52:	1d 92       	st	X+, r1
    7c54:	15 90       	lpm	r1, Z+
    7c56:	1d 92       	st	X+, r1
    7c58:	15 90       	lpm	r1, Z+
    7c5a:	1d 92       	st	X+, r1
    7c5c:	15 90       	lpm	r1, Z+
    7c5e:	1d 92       	st	X+, r1
    7c60:	15 90       	lpm	r1, Z+
    7c62:	1d 92       	st	X+, r1
    7c64:	15 90       	lpm	r1, Z+
    7c66:	1d 92       	st	X+, r1
    7c68:	15 90       	lpm	r1, Z+
    7c6a:	1d 92       	st	X+, r1
    7c6c:	15 90       	lpm	r1, Z+
    7c6e:	1d 92       	st	X+, r1
    7c70:	15 90       	lpm	r1, Z+
    7c72:	1d 92       	st	X+, r1
    7c74:	15 90       	lpm	r1, Z+
    7c76:	1d 92       	st	X+, r1
    7c78:	15 90       	lpm	r1, Z+
    7c7a:	1d 92       	st	X+, r1
    7c7c:	15 90       	lpm	r1, Z+
    7c7e:	1d 92       	st	X+, r1
    7c80:	15 90       	lpm	r1, Z+
    7c82:	1d 92       	st	X+, r1
    7c84:	15 90       	lpm	r1, Z+
    7c86:	1d 92       	st	X+, r1
    7c88:	15 90       	lpm	r1, Z+
    7c8a:	1d 92       	st	X+, r1
    7c8c:	15 90       	lpm	r1, Z+
    7c8e:	1d 92       	st	X+, r1
    7c90:	15 90       	lpm	r1, Z+
    7c92:	1d 92       	st	X+, r1
    7c94:	15 90       	lpm	r1, Z+
    7c96:	1d 92       	st	X+, r1
    7c98:	15 90       	lpm	r1, Z+
    7c9a:	1d 92       	st	X+, r1
    7c9c:	15 90       	lpm	r1, Z+
    7c9e:	1d 92       	st	X+, r1
    7ca0:	15 90       	lpm	r1, Z+
    7ca2:	1d 92       	st	X+, r1
    7ca4:	15 90       	lpm	r1, Z+
    7ca6:	1d 92       	st	X+, r1
    7ca8:	15 90       	lpm	r1, Z+
    7caa:	1d 92       	st	X+, r1
    7cac:	15 90       	lpm	r1, Z+
    7cae:	1d 92       	st	X+, r1
    7cb0:	15 90       	lpm	r1, Z+
    7cb2:	1d 92       	st	X+, r1
    7cb4:	15 90       	lpm	r1, Z+
    7cb6:	1d 92       	st	X+, r1
    7cb8:	15 90       	lpm	r1, Z+
    7cba:	1d 92       	st	X+, r1
    7cbc:	15 90       	lpm	r1, Z+
    7cbe:	1d 92       	st	X+, r1
    7cc0:	15 90       	lpm	r1, Z+
    7cc2:	1d 92       	st	X+, r1
    7cc4:	15 90       	lpm	r1, Z+
    7cc6:	1d 92       	st	X+, r1
    7cc8:	15 90       	lpm	r1, Z+
    7cca:	1d 92       	st	X+, r1
    7ccc:	15 90       	lpm	r1, Z+
    7cce:	1d 92       	st	X+, r1
    7cd0:	15 90       	lpm	r1, Z+
    7cd2:	1d 92       	st	X+, r1
    7cd4:	15 90       	lpm	r1, Z+
    7cd6:	1d 92       	st	X+, r1
    7cd8:	15 90       	lpm	r1, Z+
    7cda:	1d 92       	st	X+, r1
    7cdc:	15 90       	lpm	r1, Z+
    7cde:	1d 92       	st	X+, r1
    7ce0:	15 90       	lpm	r1, Z+
    7ce2:	1d 92       	st	X+, r1
    7ce4:	15 90       	lpm	r1, Z+
    7ce6:	1d 92       	st	X+, r1
    7ce8:	15 90       	lpm	r1, Z+
    7cea:	1d 92       	st	X+, r1
    7cec:	15 90       	lpm	r1, Z+
    7cee:	1d 92       	st	X+, r1
    7cf0:	15 90       	lpm	r1, Z+
    7cf2:	1d 92       	st	X+, r1
    7cf4:	15 90       	lpm	r1, Z+
    7cf6:	1d 92       	st	X+, r1
    7cf8:	15 90       	lpm	r1, Z+
    7cfa:	1d 92       	st	X+, r1
    7cfc:	15 90       	lpm	r1, Z+
    7cfe:	1d 92       	st	X+, r1
    7d00:	15 90       	lpm	r1, Z+
    7d02:	1d 92       	st	X+, r1
    7d04:	15 90       	lpm	r1, Z+
    7d06:	1d 92       	st	X+, r1
    7d08:	15 90       	lpm	r1, Z+
    7d0a:	1d 92       	st	X+, r1
    7d0c:	15 90       	lpm	r1, Z+
    7d0e:	1d 92       	st	X+, r1
    7d10:	15 90       	lpm	r1, Z+
    7d12:	1d 92       	st	X+, r1
    7d14:	15 90       	lpm	r1, Z+
    7d16:	1d 92       	st	X+, r1
    7d18:	15 90       	lpm	r1, Z+
    7d1a:	1d 92       	st	X+, r1
    7d1c:	15 90       	lpm	r1, Z+
    7d1e:	1d 92       	st	X+, r1
    7d20:	15 90       	lpm	r1, Z+
    7d22:	1d 92       	st	X+, r1
    7d24:	15 90       	lpm	r1, Z+
    7d26:	1d 92       	st	X+, r1
    7d28:	15 90       	lpm	r1, Z+
    7d2a:	1d 92       	st	X+, r1
    7d2c:	11 24       	eor	r1, r1
    7d2e:	08 95       	ret

00007d30 <CopyRamTile>:
    7d30:	20 e4       	ldi	r18, 0x40	; 64
    7d32:	ee e3       	ldi	r30, 0x3E	; 62
    7d34:	f1 e0       	ldi	r31, 0x01	; 1
    7d36:	82 9f       	mul	r24, r18
    7d38:	e0 0d       	add	r30, r0
    7d3a:	f1 1d       	adc	r31, r1
    7d3c:	ae e3       	ldi	r26, 0x3E	; 62
    7d3e:	b1 e0       	ldi	r27, 0x01	; 1
    7d40:	62 9f       	mul	r22, r18
    7d42:	a0 0d       	add	r26, r0
    7d44:	b1 1d       	adc	r27, r1
    7d46:	11 90       	ld	r1, Z+
    7d48:	1d 92       	st	X+, r1
    7d4a:	11 90       	ld	r1, Z+
    7d4c:	1d 92       	st	X+, r1
    7d4e:	11 90       	ld	r1, Z+
    7d50:	1d 92       	st	X+, r1
    7d52:	11 90       	ld	r1, Z+
    7d54:	1d 92       	st	X+, r1
    7d56:	11 90       	ld	r1, Z+
    7d58:	1d 92       	st	X+, r1
    7d5a:	11 90       	ld	r1, Z+
    7d5c:	1d 92       	st	X+, r1
    7d5e:	11 90       	ld	r1, Z+
    7d60:	1d 92       	st	X+, r1
    7d62:	11 90       	ld	r1, Z+
    7d64:	1d 92       	st	X+, r1
    7d66:	11 90       	ld	r1, Z+
    7d68:	1d 92       	st	X+, r1
    7d6a:	11 90       	ld	r1, Z+
    7d6c:	1d 92       	st	X+, r1
    7d6e:	11 90       	ld	r1, Z+
    7d70:	1d 92       	st	X+, r1
    7d72:	11 90       	ld	r1, Z+
    7d74:	1d 92       	st	X+, r1
    7d76:	11 90       	ld	r1, Z+
    7d78:	1d 92       	st	X+, r1
    7d7a:	11 90       	ld	r1, Z+
    7d7c:	1d 92       	st	X+, r1
    7d7e:	11 90       	ld	r1, Z+
    7d80:	1d 92       	st	X+, r1
    7d82:	11 90       	ld	r1, Z+
    7d84:	1d 92       	st	X+, r1
    7d86:	11 90       	ld	r1, Z+
    7d88:	1d 92       	st	X+, r1
    7d8a:	11 90       	ld	r1, Z+
    7d8c:	1d 92       	st	X+, r1
    7d8e:	11 90       	ld	r1, Z+
    7d90:	1d 92       	st	X+, r1
    7d92:	11 90       	ld	r1, Z+
    7d94:	1d 92       	st	X+, r1
    7d96:	11 90       	ld	r1, Z+
    7d98:	1d 92       	st	X+, r1
    7d9a:	11 90       	ld	r1, Z+
    7d9c:	1d 92       	st	X+, r1
    7d9e:	11 90       	ld	r1, Z+
    7da0:	1d 92       	st	X+, r1
    7da2:	11 90       	ld	r1, Z+
    7da4:	1d 92       	st	X+, r1
    7da6:	11 90       	ld	r1, Z+
    7da8:	1d 92       	st	X+, r1
    7daa:	11 90       	ld	r1, Z+
    7dac:	1d 92       	st	X+, r1
    7dae:	11 90       	ld	r1, Z+
    7db0:	1d 92       	st	X+, r1
    7db2:	11 90       	ld	r1, Z+
    7db4:	1d 92       	st	X+, r1
    7db6:	11 90       	ld	r1, Z+
    7db8:	1d 92       	st	X+, r1
    7dba:	11 90       	ld	r1, Z+
    7dbc:	1d 92       	st	X+, r1
    7dbe:	11 90       	ld	r1, Z+
    7dc0:	1d 92       	st	X+, r1
    7dc2:	11 90       	ld	r1, Z+
    7dc4:	1d 92       	st	X+, r1
    7dc6:	11 90       	ld	r1, Z+
    7dc8:	1d 92       	st	X+, r1
    7dca:	11 90       	ld	r1, Z+
    7dcc:	1d 92       	st	X+, r1
    7dce:	11 90       	ld	r1, Z+
    7dd0:	1d 92       	st	X+, r1
    7dd2:	11 90       	ld	r1, Z+
    7dd4:	1d 92       	st	X+, r1
    7dd6:	11 90       	ld	r1, Z+
    7dd8:	1d 92       	st	X+, r1
    7dda:	11 90       	ld	r1, Z+
    7ddc:	1d 92       	st	X+, r1
    7dde:	11 90       	ld	r1, Z+
    7de0:	1d 92       	st	X+, r1
    7de2:	11 90       	ld	r1, Z+
    7de4:	1d 92       	st	X+, r1
    7de6:	11 90       	ld	r1, Z+
    7de8:	1d 92       	st	X+, r1
    7dea:	11 90       	ld	r1, Z+
    7dec:	1d 92       	st	X+, r1
    7dee:	11 90       	ld	r1, Z+
    7df0:	1d 92       	st	X+, r1
    7df2:	11 90       	ld	r1, Z+
    7df4:	1d 92       	st	X+, r1
    7df6:	11 90       	ld	r1, Z+
    7df8:	1d 92       	st	X+, r1
    7dfa:	11 90       	ld	r1, Z+
    7dfc:	1d 92       	st	X+, r1
    7dfe:	11 90       	ld	r1, Z+
    7e00:	1d 92       	st	X+, r1
    7e02:	11 90       	ld	r1, Z+
    7e04:	1d 92       	st	X+, r1
    7e06:	11 90       	ld	r1, Z+
    7e08:	1d 92       	st	X+, r1
    7e0a:	11 90       	ld	r1, Z+
    7e0c:	1d 92       	st	X+, r1
    7e0e:	11 90       	ld	r1, Z+
    7e10:	1d 92       	st	X+, r1
    7e12:	11 90       	ld	r1, Z+
    7e14:	1d 92       	st	X+, r1
    7e16:	11 90       	ld	r1, Z+
    7e18:	1d 92       	st	X+, r1
    7e1a:	11 90       	ld	r1, Z+
    7e1c:	1d 92       	st	X+, r1
    7e1e:	11 90       	ld	r1, Z+
    7e20:	1d 92       	st	X+, r1
    7e22:	11 90       	ld	r1, Z+
    7e24:	1d 92       	st	X+, r1
    7e26:	11 90       	ld	r1, Z+
    7e28:	1d 92       	st	X+, r1
    7e2a:	11 90       	ld	r1, Z+
    7e2c:	1d 92       	st	X+, r1
    7e2e:	11 90       	ld	r1, Z+
    7e30:	1d 92       	st	X+, r1
    7e32:	11 90       	ld	r1, Z+
    7e34:	1d 92       	st	X+, r1
    7e36:	11 90       	ld	r1, Z+
    7e38:	1d 92       	st	X+, r1
    7e3a:	11 90       	ld	r1, Z+
    7e3c:	1d 92       	st	X+, r1
    7e3e:	11 90       	ld	r1, Z+
    7e40:	1d 92       	st	X+, r1
    7e42:	11 90       	ld	r1, Z+
    7e44:	1d 92       	st	X+, r1
    7e46:	11 24       	eor	r1, r1
    7e48:	08 95       	ret

00007e4a <RestoreBackground>:
    7e4a:	e0 91 50 08 	lds	r30, 0x0850	; 0x800850 <user_ram_tiles_c>
    7e4e:	8e 2f       	mov	r24, r30
    7e50:	ee 0f       	add	r30, r30
    7e52:	e8 0f       	add	r30, r24
    7e54:	ff 27       	eor	r31, r31
    7e56:	e2 50       	subi	r30, 0x02	; 2
    7e58:	f8 4f       	sbci	r31, 0xF8	; 248
    7e5a:	00 90 4f 08 	lds	r0, 0x084F	; 0x80084f <free_tile_index>
    7e5e:	80 19       	sub	r24, r0
    7e60:	30 f4       	brcc	.+12     	; 0x7e6e <rbg_exit>

00007e62 <rbg_loop>:
    7e62:	a1 91       	ld	r26, Z+
    7e64:	b1 91       	ld	r27, Z+
    7e66:	01 90       	ld	r0, Z+
    7e68:	0c 92       	st	X, r0
    7e6a:	83 95       	inc	r24
    7e6c:	d1 f7       	brne	.-12     	; 0x7e62 <rbg_loop>

00007e6e <rbg_exit>:
    7e6e:	08 95       	ret

00007e70 <BlitSpritePart>:
    7e70:	98 e0       	ldi	r25, 0x08	; 8
    7e72:	79 9f       	mul	r23, r25
    7e74:	a1 2d       	mov	r26, r1
    7e76:	bb 27       	eor	r27, r27
    7e78:	ae 5a       	subi	r26, 0xAE	; 174
    7e7a:	b7 4f       	sbci	r27, 0xF7	; 247
    7e7c:	ed 91       	ld	r30, X+
    7e7e:	fd 91       	ld	r31, X+

00007e80 <bsp_send>:
    7e80:	90 e4       	ldi	r25, 0x40	; 64
    7e82:	69 9f       	mul	r22, r25
    7e84:	e0 0d       	add	r30, r0
    7e86:	f1 1d       	adc	r31, r1
    7e88:	89 9f       	mul	r24, r25
    7e8a:	d0 01       	movw	r26, r0
    7e8c:	a2 5c       	subi	r26, 0xC2	; 194
    7e8e:	be 4f       	sbci	r27, 0xFE	; 254
    7e90:	90 e0       	ldi	r25, 0x00	; 0
    7e92:	40 fd       	sbrc	r20, 0
    7e94:	09 c0       	rjmp	.+18     	; 0x7ea8 <x_2nd_tile>
    7e96:	82 2f       	mov	r24, r18
    7e98:	48 e0       	ldi	r20, 0x08	; 8
    7e9a:	42 1b       	sub	r20, r18
    7e9c:	70 ff       	sbrs	r23, 0
    7e9e:	0a c0       	rjmp	.+20     	; 0x7eb4 <x_1st_tile_nxf>
    7ea0:	17 96       	adiw	r26, 0x07	; 7

00007ea2 <x_2nd_tile_nxf>:
    7ea2:	e8 0f       	add	r30, r24
    7ea4:	f9 1f       	adc	r31, r25
    7ea6:	08 c0       	rjmp	.+16     	; 0x7eb8 <x_check_end>

00007ea8 <x_2nd_tile>:
    7ea8:	88 e0       	ldi	r24, 0x08	; 8
    7eaa:	82 1b       	sub	r24, r18
    7eac:	42 2f       	mov	r20, r18
    7eae:	70 ff       	sbrs	r23, 0
    7eb0:	f8 cf       	rjmp	.-16     	; 0x7ea2 <x_2nd_tile_nxf>
    7eb2:	11 97       	sbiw	r26, 0x01	; 1

00007eb4 <x_1st_tile_nxf>:
    7eb4:	a2 0f       	add	r26, r18
    7eb6:	b9 1f       	adc	r27, r25

00007eb8 <x_check_end>:
    7eb8:	68 e0       	ldi	r22, 0x08	; 8
    7eba:	28 e0       	ldi	r18, 0x08	; 8
    7ebc:	23 1b       	sub	r18, r19
    7ebe:	50 fd       	sbrc	r21, 0
    7ec0:	09 c0       	rjmp	.+18     	; 0x7ed4 <y_2nd_tile>
    7ec2:	63 9f       	mul	r22, r19
    7ec4:	a0 0d       	add	r26, r0
    7ec6:	b1 1d       	adc	r27, r1
    7ec8:	71 fd       	sbrc	r23, 1
    7eca:	e8 5c       	subi	r30, 0xC8	; 200
    7ecc:	71 fd       	sbrc	r23, 1
    7ece:	ff 4f       	sbci	r31, 0xFF	; 255
    7ed0:	12 2e       	mov	r1, r18
    7ed2:	08 c0       	rjmp	.+16     	; 0x7ee4 <y_check_end>

00007ed4 <y_2nd_tile>:
    7ed4:	13 2e       	mov	r1, r19
    7ed6:	1a 94       	dec	r1
    7ed8:	71 ff       	sbrs	r23, 1
    7eda:	12 2e       	mov	r1, r18
    7edc:	61 9d       	mul	r22, r1
    7ede:	e0 0d       	add	r30, r0
    7ee0:	f1 1d       	adc	r31, r1
    7ee2:	13 2e       	mov	r1, r19

00007ee4 <y_check_end>:
    7ee4:	71 fd       	sbrc	r23, 1
    7ee6:	40 97       	sbiw	r24, 0x10	; 16
    7ee8:	70 fd       	sbrc	r23, 0
    7eea:	05 c0       	rjmp	.+10     	; 0x7ef6 <x_diff_xf>
    7eec:	57 ef       	ldi	r21, 0xF7	; 247
    7eee:	54 0f       	add	r21, r20
    7ef0:	70 e0       	ldi	r23, 0x00	; 0
    7ef2:	61 e0       	ldi	r22, 0x01	; 1
    7ef4:	04 c0       	rjmp	.+8      	; 0x7efe <x_diff_end>

00007ef6 <x_diff_xf>:
    7ef6:	59 ef       	ldi	r21, 0xF9	; 249
    7ef8:	54 1b       	sub	r21, r20
    7efa:	7f ef       	ldi	r23, 0xFF	; 255
    7efc:	6f ef       	ldi	r22, 0xFF	; 255

00007efe <x_diff_end>:
    7efe:	3e ef       	ldi	r19, 0xFE	; 254
    7f00:	04 2e       	mov	r0, r20
    7f02:	46 95       	lsr	r20
    7f04:	30 f4       	brcc	.+12     	; 0x7f12 <x_loop1>
    7f06:	61 f0       	breq	.+24     	; 0x7f20 <x_loopx>

00007f08 <x_loop0>:
    7f08:	25 91       	lpm	r18, Z+
    7f0a:	23 13       	cpse	r18, r19
    7f0c:	2c 93       	st	X, r18
    7f0e:	a6 0f       	add	r26, r22
    7f10:	b7 1f       	adc	r27, r23

00007f12 <x_loop1>:
    7f12:	25 91       	lpm	r18, Z+
    7f14:	23 13       	cpse	r18, r19
    7f16:	2c 93       	st	X, r18
    7f18:	a6 0f       	add	r26, r22
    7f1a:	b7 1f       	adc	r27, r23
    7f1c:	41 50       	subi	r20, 0x01	; 1
    7f1e:	a1 f7       	brne	.-24     	; 0x7f08 <x_loop0>

00007f20 <x_loopx>:
    7f20:	25 91       	lpm	r18, Z+
    7f22:	23 13       	cpse	r18, r19
    7f24:	2c 93       	st	X, r18
    7f26:	1a 94       	dec	r1
    7f28:	49 f0       	breq	.+18     	; 0x7f3c <loop_e>
    7f2a:	e8 0f       	add	r30, r24
    7f2c:	f9 1f       	adc	r31, r25
    7f2e:	a5 1b       	sub	r26, r21
    7f30:	bf 4f       	sbci	r27, 0xFF	; 255
    7f32:	40 2d       	mov	r20, r0
    7f34:	46 95       	lsr	r20
    7f36:	68 f7       	brcc	.-38     	; 0x7f12 <x_loop1>
    7f38:	39 f7       	brne	.-50     	; 0x7f08 <x_loop0>
    7f3a:	f2 cf       	rjmp	.-28     	; 0x7f20 <x_loopx>

00007f3c <loop_e>:
    7f3c:	08 95       	ret

00007f3e <__vector_13>:
    7f3e:	0f 92       	push	r0
    7f40:	1f 92       	push	r1
    7f42:	ef 93       	push	r30
    7f44:	ff 93       	push	r31
    7f46:	ff b7       	in	r31, 0x3f	; 63
    7f48:	e0 91 84 00 	lds	r30, 0x0084	; 0x800084 <__TEXT_REGION_LENGTH__+0x7e0084>
    7f4c:	ff 93       	push	r31
    7f4e:	e2 fd       	sbrc	r30, 2
    7f50:	04 c0       	rjmp	.+8      	; 0x7f5a <__vector_13+0x1c>
    7f52:	e1 fd       	sbrc	r30, 1
    7f54:	02 c0       	rjmp	.+4      	; 0x7f5a <__vector_13+0x1c>
    7f56:	00 00       	nop
    7f58:	00 c0       	rjmp	.+0      	; 0x7f5a <__vector_13+0x1c>
    7f5a:	e0 ff       	sbrs	r30, 0
    7f5c:	00 c0       	rjmp	.+0      	; 0x7f5e <__vector_13+0x20>
    7f5e:	e0 91 65 08 	lds	r30, 0x0865	; 0x800865 <sync_pulse>
    7f62:	ea 95       	dec	r30
    7f64:	e0 93 65 08 	sts	0x0865, r30	; 0x800865 <sync_pulse>
    7f68:	f0 91 64 08 	lds	r31, 0x0864	; 0x800864 <sync_phase>
    7f6c:	f0 fd       	sbrc	r31, 0
    7f6e:	51 c0       	rjmp	.+162    	; 0x8012 <sync_hsync>
    7f70:	ec 30       	cpi	r30, 0x0C	; 12
    7f72:	98 f0       	brcs	.+38     	; 0x7f9a <sync_eq>
    7f74:	f3 e0       	ldi	r31, 0x03	; 3
    7f76:	f0 93 89 00 	sts	0x0089, r31	; 0x800089 <__TEXT_REGION_LENGTH__+0x7e0089>
    7f7a:	fd e8       	ldi	r31, 0x8D	; 141
    7f7c:	f0 93 88 00 	sts	0x0088, r31	; 0x800088 <__TEXT_REGION_LENGTH__+0x7e0088>
    7f80:	e0 fb       	bst	r30, 0
    7f82:	28 98       	cbi	0x05, 0	; 5
    7f84:	26 f4       	brtc	.+8      	; 0x7f8e <sync_pre_eq_no_sound_update>
    7f86:	e1 e0       	ldi	r30, 0x01	; 1
    7f88:	0e 94 91 40 	call	0x8122	; 0x8122 <update_sound>
    7f8c:	b2 c0       	rjmp	.+356    	; 0x80f2 <sync_end>

00007f8e <sync_pre_eq_no_sound_update>:
    7f8e:	e5 e1       	ldi	r30, 0x15	; 21
    7f90:	ea 95       	dec	r30
    7f92:	f1 f7       	brne	.-4      	; 0x7f90 <sync_pre_eq_no_sound_update+0x2>
    7f94:	00 00       	nop
    7f96:	28 9a       	sbi	0x05, 0	; 5
    7f98:	ac c0       	rjmp	.+344    	; 0x80f2 <sync_end>

00007f9a <sync_eq>:
    7f9a:	e6 30       	cpi	r30, 0x06	; 6
    7f9c:	08 f1       	brcs	.+66     	; 0x7fe0 <sync_post_eq>
    7f9e:	00 c0       	rjmp	.+0      	; 0x7fa0 <sync_eq+0x6>
    7fa0:	00 c0       	rjmp	.+0      	; 0x7fa2 <sync_eq+0x8>
    7fa2:	28 98       	cbi	0x05, 0	; 5
    7fa4:	e0 fb       	bst	r30, 0
    7fa6:	e4 e0       	ldi	r30, 0x04	; 4
    7fa8:	16 f4       	brtc	.+4      	; 0x7fae <sync_eq_skip>
    7faa:	0e 94 91 40 	call	0x8122	; 0x8122 <update_sound>

00007fae <sync_eq_skip>:
    7fae:	e4 e0       	ldi	r30, 0x04	; 4
    7fb0:	e0 93 36 00 	sts	0x0036, r30	; 0x800036 <__TEXT_REGION_LENGTH__+0x7e0036>
    7fb4:	e6 e0       	ldi	r30, 0x06	; 6
    7fb6:	e0 93 6f 00 	sts	0x006F, r30	; 0x80006f <__TEXT_REGION_LENGTH__+0x7e006f>
    7fba:	9b c0       	rjmp	.+310    	; 0x80f2 <sync_end>

00007fbc <__vector_14>:
    7fbc:	ef 93       	push	r30
    7fbe:	e0 91 84 00 	lds	r30, 0x0084	; 0x800084 <__TEXT_REGION_LENGTH__+0x7e0084>
    7fc2:	e2 fd       	sbrc	r30, 2
    7fc4:	04 c0       	rjmp	.+8      	; 0x7fce <__vector_14+0x12>
    7fc6:	e1 fd       	sbrc	r30, 1
    7fc8:	02 c0       	rjmp	.+4      	; 0x7fce <__vector_14+0x12>
    7fca:	00 00       	nop
    7fcc:	00 c0       	rjmp	.+0      	; 0x7fce <__vector_14+0x12>
    7fce:	e0 ff       	sbrs	r30, 0
    7fd0:	00 c0       	rjmp	.+0      	; 0x7fd2 <__vector_14+0x16>
    7fd2:	e2 e0       	ldi	r30, 0x02	; 2
    7fd4:	00 00       	nop
    7fd6:	28 9a       	sbi	0x05, 0	; 5
    7fd8:	e0 93 6f 00 	sts	0x006F, r30	; 0x80006f <__TEXT_REGION_LENGTH__+0x7e006f>
    7fdc:	ef 91       	pop	r30
    7fde:	18 95       	reti

00007fe0 <sync_post_eq>:
    7fe0:	00 c0       	rjmp	.+0      	; 0x7fe2 <sync_post_eq+0x2>
    7fe2:	e0 fb       	bst	r30, 0
    7fe4:	28 98       	cbi	0x05, 0	; 5
    7fe6:	26 f4       	brtc	.+8      	; 0x7ff0 <sync_post_eq_no_sound_update>
    7fe8:	e1 e0       	ldi	r30, 0x01	; 1
    7fea:	0e 94 91 40 	call	0x8122	; 0x8122 <update_sound>
    7fee:	05 c0       	rjmp	.+10     	; 0x7ffa <sync_pre_eq_cont>

00007ff0 <sync_post_eq_no_sound_update>:
    7ff0:	e5 e1       	ldi	r30, 0x15	; 21
    7ff2:	ea 95       	dec	r30
    7ff4:	f1 f7       	brne	.-4      	; 0x7ff2 <sync_post_eq_no_sound_update+0x2>
    7ff6:	00 00       	nop
    7ff8:	28 9a       	sbi	0x05, 0	; 5

00007ffa <sync_pre_eq_cont>:
    7ffa:	e0 91 65 08 	lds	r30, 0x0865	; 0x800865 <sync_pulse>
    7ffe:	e0 30       	cpi	r30, 0x00	; 0
    8000:	09 f0       	breq	.+2      	; 0x8004 <sync_pre_eq_cont+0xa>
    8002:	77 c0       	rjmp	.+238    	; 0x80f2 <sync_end>
    8004:	ed ef       	ldi	r30, 0xFD	; 253
    8006:	e0 93 65 08 	sts	0x0865, r30	; 0x800865 <sync_pulse>
    800a:	e1 e0       	ldi	r30, 0x01	; 1
    800c:	e0 93 64 08 	sts	0x0864, r30	; 0x800864 <sync_phase>
    8010:	70 c0       	rjmp	.+224    	; 0x80f2 <sync_end>

00008012 <sync_hsync>:
    8012:	e7 e0       	ldi	r30, 0x07	; 7
    8014:	e0 93 89 00 	sts	0x0089, r30	; 0x800089 <__TEXT_REGION_LENGTH__+0x7e0089>
    8018:	eb e1       	ldi	r30, 0x1B	; 27
    801a:	e0 93 88 00 	sts	0x0088, r30	; 0x800088 <__TEXT_REGION_LENGTH__+0x7e0088>
    801e:	00 c0       	rjmp	.+0      	; 0x8020 <sync_hsync+0xe>
    8020:	28 98       	cbi	0x05, 0	; 5
    8022:	e2 e0       	ldi	r30, 0x02	; 2
    8024:	00 c0       	rjmp	.+0      	; 0x8026 <sync_hsync+0x14>
    8026:	0e 94 91 40 	call	0x8122	; 0x8122 <update_sound>
    802a:	fd ef       	ldi	r31, 0xFD	; 253
    802c:	00 90 6b 08 	lds	r0, 0x086B	; 0x80086b <first_render_line>
    8030:	f0 19       	sub	r31, r0
    8032:	e0 91 65 08 	lds	r30, 0x0865	; 0x800865 <sync_pulse>
    8036:	ef 17       	cp	r30, r31
    8038:	d8 f4       	brcc	.+54     	; 0x8070 <no_render>
    803a:	fd ef       	ldi	r31, 0xFD	; 253
    803c:	00 90 6b 08 	lds	r0, 0x086B	; 0x80086b <first_render_line>
    8040:	f0 19       	sub	r31, r0
    8042:	00 90 6c 08 	lds	r0, 0x086C	; 0x80086c <render_lines_count>
    8046:	f0 19       	sub	r31, r0
    8048:	ef 17       	cp	r30, r31
    804a:	90 f0       	brcs	.+36     	; 0x8070 <no_render>
    804c:	ed e1       	ldi	r30, 0x1D	; 29
    804e:	ff 27       	eor	r31, r31

00008050 <push_loop>:
    8050:	00 80       	ld	r0, Z
    8052:	0f 92       	push	r0
    8054:	ea 95       	dec	r30
    8056:	e1 f7       	brne	.-8      	; 0x8050 <push_loop>
    8058:	0d e0       	ldi	r16, 0x0D	; 13
    805a:	0a 95       	dec	r16
    805c:	f1 f7       	brne	.-4      	; 0x805a <push_loop+0xa>
    805e:	00 c0       	rjmp	.+0      	; 0x8060 <push_loop+0x10>
    8060:	0e 94 56 3c 	call	0x78ac	; 0x78ac <sub_video_mode3>
    8064:	e1 e0       	ldi	r30, 0x01	; 1
    8066:	ff 27       	eor	r31, r31

00008068 <pop_loop>:
    8068:	0f 90       	pop	r0
    806a:	01 92       	st	Z+, r0
    806c:	ee 31       	cpi	r30, 0x1E	; 30
    806e:	e0 f3       	brcs	.-8      	; 0x8068 <pop_loop>

00008070 <no_render>:
    8070:	e0 91 65 08 	lds	r30, 0x0865	; 0x800865 <sync_pulse>
    8074:	e0 30       	cpi	r30, 0x00	; 0
    8076:	09 f0       	breq	.+2      	; 0x807a <no_render+0xa>
    8078:	3c c0       	rjmp	.+120    	; 0x80f2 <sync_end>
    807a:	2f 93       	push	r18
    807c:	3f 93       	push	r19
    807e:	4f 93       	push	r20
    8080:	5f 93       	push	r21
    8082:	6f 93       	push	r22
    8084:	7f 93       	push	r23
    8086:	8f 93       	push	r24
    8088:	9f 93       	push	r25
    808a:	af 93       	push	r26
    808c:	bf 93       	push	r27
    808e:	78 94       	sei
    8090:	11 24       	eor	r1, r1
    8092:	ee 27       	eor	r30, r30
    8094:	e0 93 64 08 	sts	0x0864, r30	; 0x800864 <sync_phase>
    8098:	e2 e1       	ldi	r30, 0x12	; 18
    809a:	e0 93 65 08 	sts	0x0865, r30	; 0x800865 <sync_pulse>
    809e:	80 91 75 08 	lds	r24, 0x0875	; 0x800875 <vsync_counter>
    80a2:	90 91 76 08 	lds	r25, 0x0876	; 0x800876 <vsync_counter+0x1>
    80a6:	01 96       	adiw	r24, 0x01	; 1
    80a8:	80 93 75 08 	sts	0x0875, r24	; 0x800875 <vsync_counter>
    80ac:	90 93 76 08 	sts	0x0876, r25	; 0x800876 <vsync_counter+0x1>
    80b0:	e0 91 67 08 	lds	r30, 0x0867	; 0x800867 <pre_vsync_user_callback>
    80b4:	f0 91 68 08 	lds	r31, 0x0868	; 0x800868 <pre_vsync_user_callback+0x1>
    80b8:	e1 15       	cp	r30, r1
    80ba:	f1 05       	cpc	r31, r1
    80bc:	09 f0       	breq	.+2      	; 0x80c0 <no_render+0x50>
    80be:	09 95       	icall
    80c0:	0e 94 d4 41 	call	0x83a8	; 0x83a8 <ReadControllers>
    80c4:	0e 94 9a 4e 	call	0x9d34	; 0x9d34 <VideoModeVsync>
    80c8:	0e 94 8b 40 	call	0x8116	; 0x8116 <process_music>
    80cc:	11 24       	eor	r1, r1
    80ce:	e0 91 69 08 	lds	r30, 0x0869	; 0x800869 <post_vsync_user_callback>
    80d2:	f0 91 6a 08 	lds	r31, 0x086A	; 0x80086a <post_vsync_user_callback+0x1>
    80d6:	e1 15       	cp	r30, r1
    80d8:	f1 05       	cpc	r31, r1
    80da:	09 f0       	breq	.+2      	; 0x80de <no_render+0x6e>
    80dc:	09 95       	icall
    80de:	bf 91       	pop	r27
    80e0:	af 91       	pop	r26
    80e2:	9f 91       	pop	r25
    80e4:	8f 91       	pop	r24
    80e6:	7f 91       	pop	r23
    80e8:	6f 91       	pop	r22
    80ea:	5f 91       	pop	r21
    80ec:	4f 91       	pop	r20
    80ee:	3f 91       	pop	r19
    80f0:	2f 91       	pop	r18

000080f2 <sync_end>:
    80f2:	ef 91       	pop	r30
    80f4:	ef bf       	out	0x3f, r30	; 63
    80f6:	ff 91       	pop	r31
    80f8:	ef 91       	pop	r30
    80fa:	1f 90       	pop	r1
    80fc:	0f 90       	pop	r0
    80fe:	18 95       	reti

00008100 <hsync_pulse>:
    8100:	28 98       	cbi	0x05, 0	; 5
    8102:	e2 e0       	ldi	r30, 0x02	; 2
    8104:	00 c0       	rjmp	.+0      	; 0x8106 <hsync_pulse+0x6>
    8106:	0e 94 91 40 	call	0x8122	; 0x8122 <update_sound>
    810a:	e0 91 65 08 	lds	r30, 0x0865	; 0x800865 <sync_pulse>
    810e:	ea 95       	dec	r30
    8110:	e0 93 65 08 	sts	0x0865, r30	; 0x800865 <sync_pulse>
    8114:	08 95       	ret

00008116 <process_music>:
	andi r25,1
	lsl r24
	or r24,r25

	sts tr4_params,r24	
	ret
    8116:	e0 91 79 08 	lds	r30, 0x0879	; 0x800879 <sound_enabled>
    811a:	e0 fd       	sbrc	r30, 0
    811c:	0e 94 49 44 	call	0x8892	; 0x8892 <ProcessMusic>
    8120:	08 95       	ret

00008122 <update_sound>:
    8122:	2f 93       	push	r18
    8124:	1f 93       	push	r17
    8126:	0f 93       	push	r16
    8128:	2e 2f       	mov	r18, r30
    812a:	10 91 7d 08 	lds	r17, 0x087D	; 0x80087d <tr1_pos_frac>
    812e:	e0 91 7e 08 	lds	r30, 0x087E	; 0x80087e <tr1_pos_lo>
    8132:	f0 91 7f 08 	lds	r31, 0x087F	; 0x80087f <tr1_pos_hi>
    8136:	00 91 7b 08 	lds	r16, 0x087B	; 0x80087b <tr1_step_lo>
    813a:	10 0f       	add	r17, r16
    813c:	00 91 7c 08 	lds	r16, 0x087C	; 0x80087c <tr1_step_hi>
    8140:	e0 1f       	adc	r30, r16
    8142:	04 91       	lpm	r16, Z
    8144:	e0 93 7e 08 	sts	0x087E, r30	; 0x80087e <tr1_pos_lo>
    8148:	10 93 7d 08 	sts	0x087D, r17	; 0x80087d <tr1_pos_frac>
    814c:	10 91 7a 08 	lds	r17, 0x087A	; 0x80087a <mixer>
    8150:	01 03       	mulsu	r16, r17
    8152:	00 08       	sbc	r0, r0
    8154:	10 91 83 08 	lds	r17, 0x0883	; 0x800883 <tr2_pos_frac>
    8158:	e0 91 84 08 	lds	r30, 0x0884	; 0x800884 <tr2_pos_lo>
    815c:	f0 91 85 08 	lds	r31, 0x0885	; 0x800885 <tr2_pos_hi>
    8160:	00 91 81 08 	lds	r16, 0x0881	; 0x800881 <tr2_step_lo>
    8164:	10 0f       	add	r17, r16
    8166:	00 91 82 08 	lds	r16, 0x0882	; 0x800882 <tr2_step_hi>
    816a:	e0 1f       	adc	r30, r16
    816c:	04 91       	lpm	r16, Z
    816e:	e0 93 84 08 	sts	0x0884, r30	; 0x800884 <tr2_pos_lo>
    8172:	10 93 83 08 	sts	0x0883, r17	; 0x800883 <tr2_pos_frac>
    8176:	f0 01       	movw	r30, r0
    8178:	10 91 80 08 	lds	r17, 0x0880	; 0x800880 <tr2_vol>
    817c:	01 03       	mulsu	r16, r17
    817e:	00 08       	sbc	r0, r0
    8180:	1f 0e       	add	r1, r31
    8182:	10 91 89 08 	lds	r17, 0x0889	; 0x800889 <tr3_pos_frac>
    8186:	20 fd       	sbrc	r18, 0
    8188:	28 9a       	sbi	0x05, 0	; 5
    818a:	0e 1e       	adc	r0, r30
    818c:	e0 91 8a 08 	lds	r30, 0x088A	; 0x80088a <tr3_pos_lo>
    8190:	f0 91 8b 08 	lds	r31, 0x088B	; 0x80088b <tr3_pos_hi>
    8194:	00 91 87 08 	lds	r16, 0x0887	; 0x800887 <tr3_step_lo>
    8198:	10 0f       	add	r17, r16
    819a:	00 91 88 08 	lds	r16, 0x0888	; 0x800888 <tr3_step_hi>
    819e:	e0 1f       	adc	r30, r16
    81a0:	04 91       	lpm	r16, Z
    81a2:	e0 93 8a 08 	sts	0x088A, r30	; 0x80088a <tr3_pos_lo>
    81a6:	10 93 89 08 	sts	0x0889, r17	; 0x800889 <tr3_pos_frac>
    81aa:	f0 01       	movw	r30, r0
    81ac:	10 91 86 08 	lds	r17, 0x0886	; 0x800886 <tr3_vol>
    81b0:	01 03       	mulsu	r16, r17
    81b2:	00 08       	sbc	r0, r0
    81b4:	1f 0e       	add	r1, r31
    81b6:	0e 1e       	adc	r0, r30
    81b8:	00 91 8e 08 	lds	r16, 0x088E	; 0x80088e <tr4_barrel_lo>
    81bc:	10 91 8f 08 	lds	r17, 0x088F	; 0x80088f <tr4_barrel_hi>
    81c0:	f0 91 8c 08 	lds	r31, 0x088C	; 0x80088c <tr4_vol>
    81c4:	f6 95       	lsr	r31
    81c6:	88 94       	clc
    81c8:	00 fd       	sbrc	r16, 0
    81ca:	f1 95       	neg	r31
    81cc:	ee 0b       	sbc	r30, r30
    81ce:	1f 0e       	add	r1, r31
    81d0:	0e 1e       	adc	r0, r30
    81d2:	e0 91 90 08 	lds	r30, 0x0890	; 0x800890 <tr4_divider>
    81d6:	e2 50       	subi	r30, 0x02	; 2
    81d8:	20 f0       	brcs	.+8      	; 0x81e2 <ch4_shift>
    81da:	e4 91       	lpm	r30, Z
    81dc:	e4 91       	lpm	r30, Z
    81de:	e4 91       	lpm	r30, Z
    81e0:	0a c0       	rjmp	.+20     	; 0x81f6 <ch4_end>

000081e2 <ch4_shift>:
    81e2:	e0 2f       	mov	r30, r16
    81e4:	16 95       	lsr	r17
    81e6:	07 95       	ror	r16
    81e8:	e0 27       	eor	r30, r16
    81ea:	e0 fb       	bst	r30, 0
    81ec:	16 f9       	bld	r17, 6
    81ee:	e0 91 8d 08 	lds	r30, 0x088D	; 0x80088d <tr4_params>
    81f2:	e0 ff       	sbrs	r30, 0
    81f4:	06 f9       	bld	r16, 6

000081f6 <ch4_end>:
    81f6:	00 93 8e 08 	sts	0x088E, r16	; 0x80088e <tr4_barrel_lo>
    81fa:	10 93 8f 08 	sts	0x088F, r17	; 0x80088f <tr4_barrel_hi>
    81fe:	e0 93 90 08 	sts	0x0890, r30	; 0x800890 <tr4_divider>
    8202:	10 e0       	ldi	r17, 0x00	; 0
    8204:	e0 91 95 08 	lds	r30, 0x0895	; 0x800895 <tr5_pos_frac>
    8208:	f0 91 93 08 	lds	r31, 0x0893	; 0x800893 <tr5_step_lo>
    820c:	21 fd       	sbrc	r18, 1
    820e:	28 9a       	sbi	0x05, 0	; 5
    8210:	ef 0f       	add	r30, r31
    8212:	e0 93 95 08 	sts	0x0895, r30	; 0x800895 <tr5_pos_frac>
    8216:	e0 91 96 08 	lds	r30, 0x0896	; 0x800896 <tr5_pos_lo>
    821a:	f0 91 97 08 	lds	r31, 0x0897	; 0x800897 <tr5_pos_hi>
    821e:	00 91 94 08 	lds	r16, 0x0894	; 0x800894 <tr5_step_hi>
    8222:	e0 1f       	adc	r30, r16
    8224:	f1 1f       	adc	r31, r17
    8226:	00 91 9a 08 	lds	r16, 0x089A	; 0x80089a <tr5_loop_end_lo>
    822a:	10 91 9b 08 	lds	r17, 0x089B	; 0x80089b <tr5_loop_end_hi>
    822e:	e0 17       	cp	r30, r16
    8230:	f1 07       	cpc	r31, r17
    8232:	18 f4       	brcc	.+6      	; 0x823a <ch5_reset>
    8234:	04 91       	lpm	r16, Z
    8236:	00 c0       	rjmp	.+0      	; 0x8238 <ch4_end+0x42>
    8238:	06 c0       	rjmp	.+12     	; 0x8246 <ch5_nores>

0000823a <ch5_reset>:
    823a:	00 91 98 08 	lds	r16, 0x0898	; 0x800898 <tr5_loop_len_lo>
    823e:	10 91 99 08 	lds	r17, 0x0899	; 0x800899 <tr5_loop_len_hi>
    8242:	e0 1b       	sub	r30, r16
    8244:	f1 0b       	sbc	r31, r17

00008246 <ch5_nores>:
    8246:	e0 93 96 08 	sts	0x0896, r30	; 0x800896 <tr5_pos_lo>
    824a:	f0 93 97 08 	sts	0x0897, r31	; 0x800897 <tr5_pos_hi>
    824e:	04 91       	lpm	r16, Z
    8250:	f0 01       	movw	r30, r0
    8252:	10 91 92 08 	lds	r17, 0x0892	; 0x800892 <tr5_vol>
    8256:	01 03       	mulsu	r16, r17
    8258:	00 08       	sbc	r0, r0
    825a:	1f 0e       	add	r1, r31
    825c:	0e 1e       	adc	r0, r30
    825e:	f0 01       	movw	r30, r0
    8260:	0f 91       	pop	r16
    8262:	1f 91       	pop	r17
    8264:	f0 58       	subi	r31, 0x80	; 128
    8266:	ef 4f       	sbci	r30, 0xFF	; 255
    8268:	1a f4       	brpl	.+6      	; 0x8270 <ch5_nores+0x2a>
    826a:	f0 e0       	ldi	r31, 0x00	; 0
    826c:	00 00       	nop
    826e:	03 c0       	rjmp	.+6      	; 0x8276 <ch5_nores+0x30>
    8270:	e0 30       	cpi	r30, 0x00	; 0
    8272:	09 f0       	breq	.+2      	; 0x8276 <ch5_nores+0x30>
    8274:	ff ef       	ldi	r31, 0xFF	; 255
    8276:	f0 93 b3 00 	sts	0x00B3, r31	; 0x8000b3 <__TEXT_REGION_LENGTH__+0x7e00b3>
    827a:	2f 91       	pop	r18
    827c:	08 95       	ret

0000827e <SetSpritesTileTable>:
    827e:	80 93 52 08 	sts	0x0852, r24	; 0x800852 <sprites_tile_banks>
    8282:	90 93 53 08 	sts	0x0853, r25	; 0x800853 <sprites_tile_banks+0x1>
    8286:	08 95       	ret

00008288 <ClearVram>:
    8288:	e0 e2       	ldi	r30, 0x20	; 32
    828a:	f4 e0       	ldi	r31, 0x04	; 4
    828c:	a0 e0       	ldi	r26, 0x00	; 0
    828e:	bb e0       	ldi	r27, 0x0B	; 11
    8290:	6b e1       	ldi	r22, 0x1B	; 27

00008292 <fill_vram_loop>:
    8292:	6d 93       	st	X+, r22
    8294:	31 97       	sbiw	r30, 0x01	; 1
    8296:	e9 f7       	brne	.-6      	; 0x8292 <fill_vram_loop>
    8298:	11 24       	eor	r1, r1
    829a:	08 95       	ret

0000829c <SetTile>:
    829c:	8f 71       	andi	r24, 0x1F	; 31
    829e:	76 2f       	mov	r23, r22
    82a0:	66 95       	lsr	r22
    82a2:	66 95       	lsr	r22
    82a4:	66 95       	lsr	r22
    82a6:	28 e0       	ldi	r18, 0x08	; 8
    82a8:	82 9f       	mul	r24, r18
    82aa:	d0 01       	movw	r26, r0
    82ac:	a0 50       	subi	r26, 0x00	; 0
    82ae:	b5 4f       	sbci	r27, 0xF5	; 245
    82b0:	b6 0f       	add	r27, r22
    82b2:	77 70       	andi	r23, 0x07	; 7
    82b4:	a7 0f       	add	r26, r23
    82b6:	45 5e       	subi	r20, 0xE5	; 229
    82b8:	4c 93       	st	X, r20
    82ba:	11 24       	eor	r1, r1
    82bc:	08 95       	ret

000082be <SetTileTable>:
    82be:	80 93 5a 08 	sts	0x085A, r24	; 0x80085a <tile_table_lo>
    82c2:	90 93 5b 08 	sts	0x085B, r25	; 0x80085b <tile_table_hi>
    82c6:	08 95       	ret

000082c8 <GetVsyncFlag>:
    82c8:	80 91 66 08 	lds	r24, 0x0866	; 0x800866 <sync_flags>
    82cc:	81 70       	andi	r24, 0x01	; 1
    82ce:	08 95       	ret

000082d0 <ClearVsyncFlag>:
    82d0:	20 91 66 08 	lds	r18, 0x0866	; 0x800866 <sync_flags>
    82d4:	2e 7f       	andi	r18, 0xFE	; 254
    82d6:	20 93 66 08 	sts	0x0866, r18	; 0x800866 <sync_flags>
    82da:	08 95       	ret

000082dc <ReadJoypad>:
    82dc:	88 23       	and	r24, r24
    82de:	29 f4       	brne	.+10     	; 0x82ea <rj_p2>
    82e0:	80 91 6d 08 	lds	r24, 0x086D	; 0x80086d <joypad1_status_lo>
    82e4:	90 91 6e 08 	lds	r25, 0x086E	; 0x80086e <joypad1_status_lo+0x1>
    82e8:	08 95       	ret

000082ea <rj_p2>:
    82ea:	80 91 71 08 	lds	r24, 0x0871	; 0x800871 <joypad2_status_lo>
    82ee:	90 91 72 08 	lds	r25, 0x0872	; 0x800872 <joypad2_status_lo+0x1>
    82f2:	08 95       	ret

000082f4 <SoftReset>:
    82f4:	e0 e6       	ldi	r30, 0x60	; 96
    82f6:	f0 e0       	ldi	r31, 0x00	; 0
    82f8:	80 81       	ld	r24, Z
    82fa:	83 fd       	sbrc	r24, 3
    82fc:	08 95       	ret
    82fe:	88 e1       	ldi	r24, 0x18	; 24
    8300:	98 e0       	ldi	r25, 0x08	; 8
    8302:	f8 94       	cli
    8304:	80 83       	st	Z, r24
    8306:	90 83       	st	Z, r25
    8308:	78 94       	sei
    830a:	ff cf       	rjmp	.-2      	; 0x830a <SoftReset+0x16>

0000830c <WriteEeprom>:
    830c:	f9 99       	sbic	0x1f, 1	; 31
    830e:	fe cf       	rjmp	.-4      	; 0x830c <WriteEeprom>
    8310:	92 bd       	out	0x22, r25	; 34
    8312:	81 bd       	out	0x21, r24	; 33
    8314:	60 bd       	out	0x20, r22	; 32
    8316:	f8 94       	cli
    8318:	fa 9a       	sbi	0x1f, 2	; 31
    831a:	f9 9a       	sbi	0x1f, 1	; 31
    831c:	78 94       	sei
    831e:	08 95       	ret

00008320 <ReadEeprom>:
    8320:	f9 99       	sbic	0x1f, 1	; 31
    8322:	fe cf       	rjmp	.-4      	; 0x8320 <ReadEeprom>
    8324:	92 bd       	out	0x22, r25	; 34
    8326:	81 bd       	out	0x21, r24	; 33
    8328:	f8 94       	cli
    832a:	f8 9a       	sbi	0x1f, 0	; 31
    832c:	80 b5       	in	r24, 0x20	; 32
    832e:	78 94       	sei
    8330:	08 95       	ret

00008332 <SetUserPostVsyncCallback>:
; C callable
; r25:r24 - pointer to C function: void ptr*(void)
;****************************
.section .text.SetUserPostVsyncCallback
SetUserPostVsyncCallback:
	sts post_vsync_user_callback+0,r24
    8332:	80 93 69 08 	sts	0x0869, r24	; 0x800869 <post_vsync_user_callback>
	sts post_vsync_user_callback+1,r25
    8336:	90 93 6a 08 	sts	0x086A, r25	; 0x80086a <post_vsync_user_callback+0x1>
	ret
    833a:	08 95       	ret

0000833c <ReadButtons>:
    833c:	12 9a       	sbi	0x02, 2	; 2
    833e:	c8 95       	lpm
    8340:	c8 95       	lpm
    8342:	c8 95       	lpm
    8344:	c8 95       	lpm
    8346:	12 98       	cbi	0x02, 2	; 2
    8348:	40 e1       	ldi	r20, 0x10	; 16
    834a:	80 e0       	ldi	r24, 0x00	; 0
    834c:	90 e0       	ldi	r25, 0x00	; 0
    834e:	20 e0       	ldi	r18, 0x00	; 0
    8350:	30 e0       	ldi	r19, 0x00	; 0
    8352:	36 95       	lsr	r19
    8354:	27 95       	ror	r18
    8356:	96 95       	lsr	r25
    8358:	87 95       	ror	r24
    835a:	c8 95       	lpm
    835c:	c8 95       	lpm
    835e:	c8 95       	lpm
    8360:	c8 95       	lpm
    8362:	13 98       	cbi	0x02, 3	; 2
    8364:	00 9b       	sbis	0x00, 0	; 0
    8366:	30 68       	ori	r19, 0x80	; 128
    8368:	01 9b       	sbis	0x00, 1	; 0
    836a:	90 68       	ori	r25, 0x80	; 128
    836c:	13 9a       	sbi	0x02, 3	; 2
    836e:	c8 95       	lpm
    8370:	c8 95       	lpm
    8372:	c8 95       	lpm
    8374:	c8 95       	lpm
    8376:	41 50       	subi	r20, 0x01	; 1
    8378:	61 f7       	brne	.-40     	; 0x8352 <ReadButtons+0x16>
    837a:	30 93 6e 08 	sts	0x086E, r19	; 0x80086e <joypad1_status_lo+0x1>
    837e:	20 93 6d 08 	sts	0x086D, r18	; 0x80086d <joypad1_status_lo>
    8382:	90 93 72 08 	sts	0x0872, r25	; 0x800872 <joypad2_status_lo+0x1>
    8386:	80 93 71 08 	sts	0x0871, r24	; 0x800871 <joypad2_status_lo>
    838a:	80 91 6d 08 	lds	r24, 0x086D	; 0x80086d <joypad1_status_lo>
    838e:	90 91 6e 08 	lds	r25, 0x086E	; 0x80086e <joypad1_status_lo+0x1>
    8392:	0f 97       	sbiw	r24, 0x0f	; 15
    8394:	31 f0       	breq	.+12     	; 0x83a2 <ReadButtons+0x66>
    8396:	80 91 71 08 	lds	r24, 0x0871	; 0x800871 <joypad2_status_lo>
    839a:	90 91 72 08 	lds	r25, 0x0872	; 0x800872 <joypad2_status_lo+0x1>
    839e:	0f 97       	sbiw	r24, 0x0f	; 15
    83a0:	11 f4       	brne	.+4      	; 0x83a6 <ReadButtons+0x6a>
    83a2:	0c 94 7a 41 	jmp	0x82f4	; 0x82f4 <SoftReset>
    83a6:	08 95       	ret

000083a8 <ReadControllers>:
    83a8:	10 92 a0 08 	sts	0x08A0, r1	; 0x8008a0 <joypadsConnectionStatus>
    83ac:	00 99       	sbic	0x00, 0	; 0
    83ae:	03 c0       	rjmp	.+6      	; 0x83b6 <ReadControllers+0xe>
    83b0:	81 e0       	ldi	r24, 0x01	; 1
    83b2:	80 93 a0 08 	sts	0x08A0, r24	; 0x8008a0 <joypadsConnectionStatus>
    83b6:	01 99       	sbic	0x00, 1	; 0
    83b8:	05 c0       	rjmp	.+10     	; 0x83c4 <ReadControllers+0x1c>
    83ba:	80 91 a0 08 	lds	r24, 0x08A0	; 0x8008a0 <joypadsConnectionStatus>
    83be:	82 60       	ori	r24, 0x02	; 2
    83c0:	80 93 a0 08 	sts	0x08A0, r24	; 0x8008a0 <joypadsConnectionStatus>
    83c4:	0c 94 9e 41 	jmp	0x833c	; 0x833c <ReadButtons>

000083c8 <FormatEeprom>:
    83c8:	cf 93       	push	r28
    83ca:	df 93       	push	r29
    83cc:	c0 e0       	ldi	r28, 0x00	; 0
    83ce:	d0 e0       	ldi	r29, 0x00	; 0
    83d0:	fe 01       	movw	r30, r28
    83d2:	ee 55       	subi	r30, 0x5E	; 94
    83d4:	ff 4f       	sbci	r31, 0xFF	; 255
    83d6:	64 91       	lpm	r22, Z
    83d8:	ce 01       	movw	r24, r28
    83da:	0e 94 86 41 	call	0x830c	; 0x830c <WriteEeprom>
    83de:	21 96       	adiw	r28, 0x01	; 1
    83e0:	c0 32       	cpi	r28, 0x20	; 32
    83e2:	d1 05       	cpc	r29, r1
    83e4:	a9 f7       	brne	.-22     	; 0x83d0 <FormatEeprom+0x8>
    83e6:	c0 e2       	ldi	r28, 0x20	; 32
    83e8:	d0 e0       	ldi	r29, 0x00	; 0
    83ea:	6f ef       	ldi	r22, 0xFF	; 255
    83ec:	ce 01       	movw	r24, r28
    83ee:	0e 94 86 41 	call	0x830c	; 0x830c <WriteEeprom>
    83f2:	6f ef       	ldi	r22, 0xFF	; 255
    83f4:	ce 01       	movw	r24, r28
    83f6:	01 96       	adiw	r24, 0x01	; 1
    83f8:	0e 94 86 41 	call	0x830c	; 0x830c <WriteEeprom>
    83fc:	a0 96       	adiw	r28, 0x20	; 32
    83fe:	c1 15       	cp	r28, r1
    8400:	88 e0       	ldi	r24, 0x08	; 8
    8402:	d8 07       	cpc	r29, r24
    8404:	91 f7       	brne	.-28     	; 0x83ea <FormatEeprom+0x22>
    8406:	df 91       	pop	r29
    8408:	cf 91       	pop	r28
    840a:	08 95       	ret

0000840c <isEepromFormatted>:
	
//returns true if the EEPROM has been setup to work with the kernel.
bool isEepromFormatted(){
    840c:	cf 93       	push	r28
	unsigned id;
	id=ReadEeprom(0)+(ReadEeprom(1)<<8);
    840e:	80 e0       	ldi	r24, 0x00	; 0
    8410:	90 e0       	ldi	r25, 0x00	; 0
    8412:	0e 94 90 41 	call	0x8320	; 0x8320 <ReadEeprom>
    8416:	c8 2f       	mov	r28, r24
    8418:	81 e0       	ldi	r24, 0x01	; 1
    841a:	90 e0       	ldi	r25, 0x00	; 0
    841c:	0e 94 90 41 	call	0x8320	; 0x8320 <ReadEeprom>
	return (id==EEPROM_SIGNATURE);
    8420:	28 2f       	mov	r18, r24
    8422:	30 e0       	ldi	r19, 0x00	; 0
    8424:	32 2f       	mov	r19, r18
    8426:	22 27       	eor	r18, r18
    8428:	2c 0f       	add	r18, r28
    842a:	31 1d       	adc	r19, r1
    842c:	81 e0       	ldi	r24, 0x01	; 1
    842e:	2a 35       	cpi	r18, 0x5A	; 90
    8430:	35 45       	sbci	r19, 0x55	; 85
    8432:	09 f0       	breq	.+2      	; 0x8436 <isEepromFormatted+0x2a>
    8434:	80 e0       	ldi	r24, 0x00	; 0
}
    8436:	cf 91       	pop	r28
    8438:	08 95       	ret

0000843a <PatchCommand00>:
	songSpeed = speed;
}

u8 GetSongSpeed(){
	return songSpeed;
}
    843a:	fc 01       	movw	r30, r24
    843c:	67 87       	std	Z+15, r22	; 0x0f
    843e:	08 95       	ret

00008440 <PatchCommand01>:
    8440:	ea e7       	ldi	r30, 0x7A	; 122
    8442:	f8 e0       	ldi	r31, 0x08	; 8
    8444:	81 e0       	ldi	r24, 0x01	; 1
    8446:	91 e0       	ldi	r25, 0x01	; 1
    8448:	95 8b       	std	Z+21, r25	; 0x15
    844a:	84 8b       	std	Z+20, r24	; 0x14
    844c:	63 8b       	std	Z+19, r22	; 0x13
    844e:	08 95       	ret

00008450 <PatchCommand05>:
    8450:	fc 01       	movw	r30, r24
    8452:	90 81       	ld	r25, Z
    8454:	9f 75       	andi	r25, 0x5F	; 95
    8456:	90 83       	st	Z, r25
    8458:	08 95       	ret

0000845a <PatchCommand06>:
    845a:	fc 01       	movw	r30, r24
    845c:	90 81       	ld	r25, Z
    845e:	90 64       	ori	r25, 0x40	; 64
    8460:	90 83       	st	Z, r25
    8462:	08 95       	ret

00008464 <PatchCommand07>:
    8464:	fc 01       	movw	r30, r24
    8466:	66 87       	std	Z+14, r22	; 0x0e
    8468:	08 95       	ret

0000846a <PatchCommand09>:
    846a:	fc 01       	movw	r30, r24
    846c:	62 87       	std	Z+10, r22	; 0x0a
    846e:	08 95       	ret

00008470 <PatchCommand10>:
    8470:	fc 01       	movw	r30, r24
    8472:	63 87       	std	Z+11, r22	; 0x0b
    8474:	08 95       	ret

00008476 <PatchCommand11>:
    8476:	cf 93       	push	r28
    8478:	df 93       	push	r29
    847a:	ec 01       	movw	r28, r24
    847c:	26 2f       	mov	r18, r22
    847e:	89 81       	ldd	r24, Y+1	; 0x01
    8480:	90 e0       	ldi	r25, 0x00	; 0
    8482:	fc 01       	movw	r30, r24
    8484:	ee 0f       	add	r30, r30
    8486:	ff 1f       	adc	r31, r31
    8488:	e4 55       	subi	r30, 0x54	; 84
    848a:	f3 47       	sbci	r31, 0x73	; 115
    848c:	45 91       	lpm	r20, Z+
    848e:	54 91       	lpm	r21, Z
    8490:	fc 01       	movw	r30, r24
    8492:	e6 0f       	add	r30, r22
    8494:	f1 1d       	adc	r31, r1
    8496:	67 fd       	sbrc	r22, 7
    8498:	fa 95       	dec	r31
    849a:	ee 0f       	add	r30, r30
    849c:	ff 1f       	adc	r31, r31
    849e:	e4 55       	subi	r30, 0x54	; 84
    84a0:	f3 47       	sbci	r31, 0x73	; 115
    84a2:	85 91       	lpm	r24, Z+
    84a4:	94 91       	lpm	r25, Z
    84a6:	84 1b       	sub	r24, r20
    84a8:	95 0b       	sbc	r25, r21
    84aa:	68 85       	ldd	r22, Y+8	; 0x08
    84ac:	70 e0       	ldi	r23, 0x00	; 0
    84ae:	0e 94 22 68 	call	0xd044	; 0xd044 <__divmodhi4>
    84b2:	61 15       	cp	r22, r1
    84b4:	71 05       	cpc	r23, r1
    84b6:	11 f4       	brne	.+4      	; 0x84bc <PatchCommand11+0x46>
    84b8:	61 e0       	ldi	r22, 0x01	; 1
    84ba:	70 e0       	ldi	r23, 0x00	; 0
    84bc:	ea 81       	ldd	r30, Y+2	; 0x02
    84be:	86 e0       	ldi	r24, 0x06	; 6
    84c0:	e8 9f       	mul	r30, r24
    84c2:	f0 01       	movw	r30, r0
    84c4:	11 24       	eor	r1, r1
    84c6:	e6 58       	subi	r30, 0x86	; 134
    84c8:	f7 4f       	sbci	r31, 0xF7	; 247
    84ca:	81 81       	ldd	r24, Z+1	; 0x01
    84cc:	92 81       	ldd	r25, Z+2	; 0x02
    84ce:	86 0f       	add	r24, r22
    84d0:	97 1f       	adc	r25, r23
    84d2:	92 83       	std	Z+2, r25	; 0x02
    84d4:	81 83       	std	Z+1, r24	; 0x01
    84d6:	7e 83       	std	Y+6, r23	; 0x06
    84d8:	6d 83       	std	Y+5, r22	; 0x05
    84da:	88 81       	ld	r24, Y
    84dc:	88 60       	ori	r24, 0x08	; 8
    84de:	88 83       	st	Y, r24
    84e0:	89 81       	ldd	r24, Y+1	; 0x01
    84e2:	28 0f       	add	r18, r24
    84e4:	2f 83       	std	Y+7, r18	; 0x07
    84e6:	df 91       	pop	r29
    84e8:	cf 91       	pop	r28
    84ea:	08 95       	ret

000084ec <PatchCommand12>:
    84ec:	fc 01       	movw	r30, r24
    84ee:	60 87       	std	Z+8, r22	; 0x08
    84f0:	08 95       	ret

000084f2 <PatchCommand13>:
    84f2:	fc 01       	movw	r30, r24
    84f4:	64 83       	std	Z+4, r22	; 0x04
    84f6:	08 95       	ret

000084f8 <PatchCommand02>:
    84f8:	fc 01       	movw	r30, r24
    84fa:	82 81       	ldd	r24, Z+2	; 0x02
    84fc:	0c 94 39 46 	jmp	0x8c72	; 0x8c72 <SetMixerWave>

00008500 <PatchCommand03>:
    8500:	fc 01       	movw	r30, r24
    8502:	91 81       	ldd	r25, Z+1	; 0x01
    8504:	69 0f       	add	r22, r25
    8506:	61 83       	std	Z+1, r22	; 0x01
    8508:	82 81       	ldd	r24, Z+2	; 0x02
    850a:	0c 94 22 46 	jmp	0x8c44	; 0x8c44 <SetMixerNote>

0000850e <PatchCommand04>:
    850e:	fc 01       	movw	r30, r24
    8510:	91 81       	ldd	r25, Z+1	; 0x01
    8512:	96 1b       	sub	r25, r22
    8514:	69 2f       	mov	r22, r25
    8516:	91 83       	std	Z+1, r25	; 0x01
    8518:	82 81       	ldd	r24, Z+2	; 0x02
    851a:	0c 94 22 46 	jmp	0x8c44	; 0x8c44 <SetMixerNote>

0000851e <PatchCommand08>:
    851e:	1f 93       	push	r17
    8520:	cf 93       	push	r28
    8522:	df 93       	push	r29
    8524:	ec 01       	movw	r28, r24
    8526:	16 2f       	mov	r17, r22
    8528:	8a 81       	ldd	r24, Y+2	; 0x02
    852a:	0e 94 22 46 	call	0x8c44	; 0x8c44 <SetMixerNote>
    852e:	19 83       	std	Y+1, r17	; 0x01
    8530:	88 81       	ld	r24, Y
    8532:	87 7f       	andi	r24, 0xF7	; 247
    8534:	88 83       	st	Y, r24
    8536:	df 91       	pop	r29
    8538:	cf 91       	pop	r28
    853a:	1f 91       	pop	r17
    853c:	08 95       	ret

0000853e <PatchCommand14>:
    853e:	dc 01       	movw	r26, r24
    8540:	14 96       	adiw	r26, 0x04	; 4
    8542:	8c 91       	ld	r24, X
    8544:	14 97       	sbiw	r26, 0x04	; 4
    8546:	88 23       	and	r24, r24
    8548:	19 f1       	breq	.+70     	; 0x8590 <PatchCommand14+0x52>
    854a:	55 96       	adiw	r26, 0x15	; 21
    854c:	2d 91       	ld	r18, X+
    854e:	3c 91       	ld	r19, X
    8550:	56 97       	sbiw	r26, 0x16	; 22
    8552:	66 23       	and	r22, r22
    8554:	79 f0       	breq	.+30     	; 0x8574 <PatchCommand14+0x36>
    8556:	06 2e       	mov	r0, r22
    8558:	00 0c       	add	r0, r0
    855a:	77 0b       	sbc	r23, r23
    855c:	6f 5f       	subi	r22, 0xFF	; 255
    855e:	7f 4f       	sbci	r23, 0xFF	; 255
    8560:	ab 01       	movw	r20, r22
    8562:	44 0f       	add	r20, r20
    8564:	55 1f       	adc	r21, r21
    8566:	64 0f       	add	r22, r20
    8568:	75 1f       	adc	r23, r21
    856a:	26 1b       	sub	r18, r22
    856c:	37 0b       	sbc	r19, r23
    856e:	09 c0       	rjmp	.+18     	; 0x8582 <PatchCommand14+0x44>
    8570:	ef 3f       	cpi	r30, 0xFF	; 255
    8572:	39 f0       	breq	.+14     	; 0x8582 <PatchCommand14+0x44>
    8574:	23 50       	subi	r18, 0x03	; 3
    8576:	31 09       	sbc	r19, r1
    8578:	f9 01       	movw	r30, r18
    857a:	32 97       	sbiw	r30, 0x02	; 2
    857c:	e4 91       	lpm	r30, Z
    857e:	ed 30       	cpi	r30, 0x0D	; 13
    8580:	b9 f7       	brne	.-18     	; 0x8570 <PatchCommand14+0x32>
    8582:	56 96       	adiw	r26, 0x16	; 22
    8584:	3c 93       	st	X, r19
    8586:	2e 93       	st	-X, r18
    8588:	55 97       	sbiw	r26, 0x15	; 21
    858a:	81 50       	subi	r24, 0x01	; 1
    858c:	14 96       	adiw	r26, 0x04	; 4
    858e:	8c 93       	st	X, r24
    8590:	08 95       	ret

00008592 <InitMusicPlayer>:
    8592:	90 93 19 09 	sts	0x0919, r25	; 0x800919 <patchPointers+0x1>
    8596:	80 93 18 09 	sts	0x0918, r24	; 0x800918 <patchPointers>
    859a:	8f e6       	ldi	r24, 0x6F	; 111
    859c:	80 93 1b 09 	sts	0x091B, r24	; 0x80091b <masterVolume>
    85a0:	10 92 78 08 	sts	0x0878, r1	; 0x800878 <playSong>
    85a4:	e3 ea       	ldi	r30, 0xA3	; 163
    85a6:	f8 e0       	ldi	r31, 0x08	; 8
    85a8:	80 e0       	ldi	r24, 0x00	; 0
    85aa:	90 e1       	ldi	r25, 0x10	; 16
    85ac:	3f ef       	ldi	r19, 0xFF	; 255
    85ae:	28 e1       	ldi	r18, 0x18	; 24
    85b0:	82 83       	std	Z+2, r24	; 0x02
    85b2:	90 83       	st	Z, r25
    85b4:	15 86       	std	Z+13, r1	; 0x0d
    85b6:	34 87       	std	Z+12, r19	; 0x0c
    85b8:	10 8a       	std	Z+16, r1	; 0x10
    85ba:	23 87       	std	Z+11, r18	; 0x0b
    85bc:	90 87       	std	Z+8, r25	; 0x08
    85be:	8f 5f       	subi	r24, 0xFF	; 255
    85c0:	77 96       	adiw	r30, 0x17	; 23
    85c2:	85 30       	cpi	r24, 0x05	; 5
    85c4:	a9 f7       	brne	.-22     	; 0x85b0 <InitMusicPlayer+0x1e>
    85c6:	08 95       	ret

000085c8 <StartSong>:
    85c8:	e3 ea       	ldi	r30, 0xA3	; 163
    85ca:	f8 e0       	ldi	r31, 0x08	; 8
    85cc:	3f ef       	ldi	r19, 0xFF	; 255
    85ce:	20 81       	ld	r18, Z
    85d0:	2f 77       	andi	r18, 0x7F	; 127
    85d2:	20 83       	st	Z, r18
    85d4:	33 83       	std	Z+3, r19	; 0x03
    85d6:	77 96       	adiw	r30, 0x17	; 23
    85d8:	29 e0       	ldi	r18, 0x09	; 9
    85da:	e6 31       	cpi	r30, 0x16	; 22
    85dc:	f2 07       	cpc	r31, r18
    85de:	b9 f7       	brne	.-18     	; 0x85ce <StartSong+0x6>
    85e0:	01 96       	adiw	r24, 0x01	; 1
    85e2:	90 93 20 09 	sts	0x0920, r25	; 0x800920 <songPos+0x1>
    85e6:	80 93 1f 09 	sts	0x091F, r24	; 0x80091f <songPos>
    85ea:	90 93 a2 08 	sts	0x08A2, r25	; 0x8008a2 <songStart+0x1>
    85ee:	80 93 a1 08 	sts	0x08A1, r24	; 0x8008a1 <songStart>
    85f2:	90 93 22 09 	sts	0x0922, r25	; 0x800922 <loopStart+0x1>
    85f6:	80 93 21 09 	sts	0x0921, r24	; 0x800921 <loopStart>
    85fa:	10 92 1d 09 	sts	0x091D, r1	; 0x80091d <nextDeltaTime+0x1>
    85fe:	10 92 1c 09 	sts	0x091C, r1	; 0x80091c <nextDeltaTime>
    8602:	10 92 17 09 	sts	0x0917, r1	; 0x800917 <currDeltaTime+0x1>
    8606:	10 92 16 09 	sts	0x0916, r1	; 0x800916 <currDeltaTime>
    860a:	10 92 1e 09 	sts	0x091E, r1	; 0x80091e <songSpeed>
    860e:	10 92 1a 09 	sts	0x091A, r1	; 0x80091a <lastStatus>
    8612:	81 e0       	ldi	r24, 0x01	; 1
    8614:	80 93 78 08 	sts	0x0878, r24	; 0x800878 <playSong>
    8618:	08 95       	ret

0000861a <StopSong>:
    861a:	e3 ea       	ldi	r30, 0xA3	; 163
    861c:	f8 e0       	ldi	r31, 0x08	; 8
    861e:	8a ef       	ldi	r24, 0xFA	; 250
    8620:	87 87       	std	Z+15, r24	; 0x0f
    8622:	86 a3       	std	Z+38, r24	; 0x26
    8624:	85 af       	std	Z+61, r24	; 0x3d
    8626:	80 93 f7 08 	sts	0x08F7, r24	; 0x8008f7 <tracks+0x54>
    862a:	80 93 0e 09 	sts	0x090E, r24	; 0x80090e <tracks+0x6b>
    862e:	10 92 78 08 	sts	0x0878, r1	; 0x800878 <playSong>
    8632:	08 95       	ret

00008634 <ReadVarLen>:


#if MUSIC_ENGINE == MIDI

unsigned int ReadVarLen(const char **songPos)
{
    8634:	dc 01       	movw	r26, r24
    unsigned int value;
    unsigned char c;


    if ( (value = pgm_read_byte((*songPos)++)) & 0x80 )
    8636:	ed 91       	ld	r30, X+
    8638:	fc 91       	ld	r31, X
    863a:	11 97       	sbiw	r26, 0x01	; 1
    863c:	9f 01       	movw	r18, r30
    863e:	2f 5f       	subi	r18, 0xFF	; 255
    8640:	3f 4f       	sbci	r19, 0xFF	; 255
    8642:	11 96       	adiw	r26, 0x01	; 1
    8644:	3c 93       	st	X, r19
    8646:	2e 93       	st	-X, r18
    8648:	e4 91       	lpm	r30, Z
    864a:	e7 fd       	sbrc	r30, 7
    864c:	03 c0       	rjmp	.+6      	; 0x8654 <ReadVarLen+0x20>
    864e:	8e 2f       	mov	r24, r30
    8650:	90 e0       	ldi	r25, 0x00	; 0
    8652:	08 95       	ret
    {
       value &= 0x7F;
    8654:	ef 77       	andi	r30, 0x7F	; 127
    8656:	8e 2f       	mov	r24, r30
    8658:	90 e0       	ldi	r25, 0x00	; 0
       do
       {
         value = (value << 7) + ((c = pgm_read_byte((*songPos)++)) & 0x7F);
    865a:	96 95       	lsr	r25
    865c:	98 2f       	mov	r25, r24
    865e:	88 27       	eor	r24, r24
    8660:	97 95       	ror	r25
    8662:	87 95       	ror	r24
    8664:	2f 5f       	subi	r18, 0xFF	; 255
    8666:	3f 4f       	sbci	r19, 0xFF	; 255
    8668:	f9 01       	movw	r30, r18
    866a:	31 97       	sbiw	r30, 0x01	; 1
    866c:	e4 91       	lpm	r30, Z
    866e:	4e 2f       	mov	r20, r30
    8670:	4f 77       	andi	r20, 0x7F	; 127
    8672:	84 0f       	add	r24, r20
    8674:	91 1d       	adc	r25, r1
       } while (c & 0x80);
    8676:	e7 fd       	sbrc	r30, 7
    8678:	f0 cf       	rjmp	.-32     	; 0x865a <ReadVarLen+0x26>
    867a:	2d 93       	st	X+, r18
    867c:	3c 93       	st	X, r19
    }


    return value;
}
    867e:	08 95       	ret

00008680 <TriggerCommon>:
#endif




void TriggerCommon(Track* track,u8 patch,u8 volume,u8 note){
    8680:	ff 92       	push	r15
    8682:	0f 93       	push	r16
    8684:	1f 93       	push	r17
    8686:	cf 93       	push	r28
    8688:	df 93       	push	r29
    868a:	ec 01       	movw	r28, r24
    868c:	16 2f       	mov	r17, r22
    868e:	02 2f       	mov	r16, r18
		
	bool isFx = (track->flags&TRACK_FLAGS_PRIORITY);
    8690:	88 81       	ld	r24, Y
    8692:	28 2f       	mov	r18, r24
    8694:	20 78       	andi	r18, 0x80	; 128
    8696:	f2 2e       	mov	r15, r18

	track->envelopeStep=0; 
    8698:	1f 86       	std	Y+15, r1	; 0x0f
	track->envelopeVol=0xff; 
    869a:	9f ef       	ldi	r25, 0xFF	; 255
    869c:	9e 87       	std	Y+14, r25	; 0x0e
	track->noteVol=volume;
    869e:	4d 87       	std	Y+13, r20	; 0x0d
	track->patchPlayingTime=0;
    86a0:	1c 8a       	std	Y+20, r1	; 0x14
	track->flags&=(~(TRACK_FLAGS_HOLD_ENV|TRACK_FLAGS_SLIDING));
    86a2:	87 7b       	andi	r24, 0xB7	; 183
    86a4:	88 83       	st	Y, r24
	track->tremoloLevel=0;
    86a6:	1a 86       	std	Y+10, r1	; 0x0a
	track->tremoloPos=0;
    86a8:	19 86       	std	Y+9, r1	; 0x09
	track->note=note;
    86aa:	09 83       	std	Y+1, r16	; 0x01
	track->loopCount=0;
    86ac:	1c 82       	std	Y+4, r1	; 0x04

#if MUSIC_ENGINE == MIDI || MUSIC_ENGINE == STREAM
	track->expressionVol=DEFAULT_EXPRESSION_VOL;
    86ae:	9b 83       	std	Y+3, r25	; 0x03
#endif

	#if SOUND_MIXER == MIXER_TYPE_INLINE

		if(track->channel==3){
    86b0:	8a 81       	ldd	r24, Y+2	; 0x02
    86b2:	83 30       	cpi	r24, 0x03	; 3
    86b4:	69 f4       	brne	.+26     	; 0x86d0 <TriggerCommon+0x50>
			//noise channel		
			if(!isFx) patch=note;			
    86b6:	21 11       	cpse	r18, r1
    86b8:	01 c0       	rjmp	.+2      	; 0x86bc <TriggerCommon+0x3c>
    86ba:	10 2f       	mov	r17, r16
			mixer.channels.type.noise.barrel=0x0101;				
    86bc:	81 e0       	ldi	r24, 0x01	; 1
    86be:	91 e0       	ldi	r25, 0x01	; 1
    86c0:	90 93 8f 08 	sts	0x088F, r25	; 0x80088f <tr4_barrel_hi>
    86c4:	80 93 8e 08 	sts	0x088E, r24	; 0x80088e <tr4_barrel_lo>
			mixer.channels.type.noise.params=1; //default (15bits,no divider)
    86c8:	81 e0       	ldi	r24, 0x01	; 1
    86ca:	80 93 8d 08 	sts	0x088D, r24	; 0x80088d <tr4_params>
    86ce:	36 c0       	rjmp	.+108    	; 0x873c <TriggerCommon+0xbc>

		#if SOUND_CHANNEL_5_ENABLE==1		

		}else if(track->channel==4){
    86d0:	84 30       	cpi	r24, 0x04	; 4
    86d2:	69 f5       	brne	.+90     	; 0x872e <TriggerCommon+0xae>
				//PCM channel					
				mixer.channels.type.pcm.positionFrac=0;
    86d4:	10 92 95 08 	sts	0x0895, r1	; 0x800895 <tr5_pos_frac>
				const char *pos=(const char*)pgm_read_word(&(patchPointers[patch].pcmData));
    86d8:	80 91 18 09 	lds	r24, 0x0918	; 0x800918 <patchPointers>
    86dc:	90 91 19 09 	lds	r25, 0x0919	; 0x800919 <patchPointers+0x1>
    86e0:	e9 e0       	ldi	r30, 0x09	; 9
    86e2:	6e 9f       	mul	r22, r30
    86e4:	80 0d       	add	r24, r0
    86e6:	91 1d       	adc	r25, r1
    86e8:	11 24       	eor	r1, r1
    86ea:	fc 01       	movw	r30, r24
    86ec:	31 96       	adiw	r30, 0x01	; 1
    86ee:	45 91       	lpm	r20, Z+
    86f0:	54 91       	lpm	r21, Z
				mixer.channels.type.pcm.position=pos;				
    86f2:	50 93 97 08 	sts	0x0897, r21	; 0x800897 <tr5_pos_hi>
    86f6:	40 93 96 08 	sts	0x0896, r20	; 0x800896 <tr5_pos_lo>
				mixer.pcmLoopLenght=pgm_read_word(&(patchPointers[patch].loopEnd))-pgm_read_word(&(patchPointers[patch].loopStart));
    86fa:	9c 01       	movw	r18, r24
    86fc:	29 5f       	subi	r18, 0xF9	; 249
    86fe:	3f 4f       	sbci	r19, 0xFF	; 255
    8700:	f9 01       	movw	r30, r18
    8702:	65 91       	lpm	r22, Z+
    8704:	74 91       	lpm	r23, Z
    8706:	05 96       	adiw	r24, 0x05	; 5
    8708:	fc 01       	movw	r30, r24
    870a:	85 91       	lpm	r24, Z+
    870c:	94 91       	lpm	r25, Z
    870e:	68 1b       	sub	r22, r24
    8710:	79 0b       	sbc	r23, r25
    8712:	70 93 99 08 	sts	0x0899, r23	; 0x800899 <tr5_loop_len_hi>
    8716:	60 93 98 08 	sts	0x0898, r22	; 0x800898 <tr5_loop_len_lo>
				mixer.pcmLoopEnd=pos+pgm_read_word(&(patchPointers[patch].loopEnd));
    871a:	f9 01       	movw	r30, r18
    871c:	85 91       	lpm	r24, Z+
    871e:	94 91       	lpm	r25, Z
    8720:	48 0f       	add	r20, r24
    8722:	59 1f       	adc	r21, r25
    8724:	50 93 9b 08 	sts	0x089B, r21	; 0x80089b <tr5_loop_end_hi>
    8728:	40 93 9a 08 	sts	0x089A, r20	; 0x80089a <tr5_loop_end_lo>
    872c:	03 c0       	rjmp	.+6      	; 0x8734 <TriggerCommon+0xb4>
				SetMixerNote(track->channel,note);
		#endif	

		}else{					
			//wave channels					
			SetMixerWave(track->channel,0);//default wave
    872e:	60 e0       	ldi	r22, 0x00	; 0
    8730:	0e 94 39 46 	call	0x8c72	; 0x8c72 <SetMixerWave>
			SetMixerNote(track->channel,note);
    8734:	60 2f       	mov	r22, r16
    8736:	8a 81       	ldd	r24, Y+2	; 0x02
    8738:	0e 94 22 46 	call	0x8c44	; 0x8c44 <SetMixerNote>

		#endif

	#endif //SOUND_MIXER == MIXER_TYPE_INLINE

	if(isFx){
    873c:	ff 20       	and	r15, r15
    873e:	11 f0       	breq	.+4      	; 0x8744 <TriggerCommon+0xc4>
		track->fxPatchNo=patch;
    8740:	19 8b       	std	Y+17, r17	; 0x11
    8742:	01 c0       	rjmp	.+2      	; 0x8746 <TriggerCommon+0xc6>
	}else{
		track->patchNo=patch;	
    8744:	18 8b       	std	Y+16, r17	; 0x10
	}

	const char *pos = (const char*)pgm_read_word(&(patchPointers[patch].cmdStream));
    8746:	e0 91 18 09 	lds	r30, 0x0918	; 0x800918 <patchPointers>
    874a:	f0 91 19 09 	lds	r31, 0x0919	; 0x800919 <patchPointers+0x1>
    874e:	29 e0       	ldi	r18, 0x09	; 9
    8750:	12 9f       	mul	r17, r18
    8752:	e0 0d       	add	r30, r0
    8754:	f1 1d       	adc	r31, r1
    8756:	11 24       	eor	r1, r1
    8758:	33 96       	adiw	r30, 0x03	; 3
    875a:	85 91       	lpm	r24, Z+
    875c:	94 91       	lpm	r25, Z
	if(pos==NULL){
    875e:	00 97       	sbiw	r24, 0x00	; 0
    8760:	19 f4       	brne	.+6      	; 0x8768 <TriggerCommon+0xe8>
		track->patchCommandStreamPos=NULL;
    8762:	1e 8a       	std	Y+22, r1	; 0x16
    8764:	1d 8a       	std	Y+21, r1	; 0x15
    8766:	07 c0       	rjmp	.+14     	; 0x8776 <TriggerCommon+0xf6>
	}else{
		track->patchCurrDeltaTime=0;
    8768:	1b 8a       	std	Y+19, r1	; 0x13
		track->patchNextDeltaTime=pgm_read_byte(pos++);
    876a:	fc 01       	movw	r30, r24
    876c:	24 91       	lpm	r18, Z
    876e:	2a 8b       	std	Y+18, r18	; 0x12
		track->patchCommandStreamPos=pos;
    8770:	01 96       	adiw	r24, 0x01	; 1
    8772:	9e 8b       	std	Y+22, r25	; 0x16
    8774:	8d 8b       	std	Y+21, r24	; 0x15
	}

}
    8776:	df 91       	pop	r29
    8778:	cf 91       	pop	r28
    877a:	1f 91       	pop	r17
    877c:	0f 91       	pop	r16
    877e:	ff 90       	pop	r15
    8780:	08 95       	ret

00008782 <TriggerFx>:

/* Trigger a sound effect.
 * Method allocates the channel based on priority.
 * Retrig: if this fx if already playing on a track, reuse same track.
 */
void TriggerFx(unsigned char patch,unsigned char volume,bool retrig){
    8782:	cf 93       	push	r28
    8784:	df 93       	push	r29
	unsigned char channel;
	
	unsigned char type=(unsigned char)pgm_read_byte(&(patchPointers[patch].type));
    8786:	e0 91 18 09 	lds	r30, 0x0918	; 0x800918 <patchPointers>
    878a:	f0 91 19 09 	lds	r31, 0x0919	; 0x800919 <patchPointers+0x1>
    878e:	99 e0       	ldi	r25, 0x09	; 9
    8790:	89 9f       	mul	r24, r25
    8792:	e0 0d       	add	r30, r0
    8794:	f1 1d       	adc	r31, r1
    8796:	11 24       	eor	r1, r1
    8798:	e4 91       	lpm	r30, Z

	//find the channel to play the fx
	//try to steal voice 2 then 1
	//never steal voice 0, reserve it for lead melodies
	if(type==1 || (type==2 && MIXER_CHAN4_TYPE == 1)){
    879a:	e1 30       	cpi	r30, 0x01	; 1
    879c:	e9 f0       	breq	.+58     	; 0x87d8 <TriggerFx+0x56>
		//noise or PCM channel fx		
		channel=3;
	}else if(type==2){
    879e:	e2 30       	cpi	r30, 0x02	; 2
    87a0:	e9 f0       	breq	.+58     	; 0x87dc <TriggerFx+0x5a>
		channel=4;
	}else if( (tracks[1].flags&TRACK_FLAGS_PRIORITY)==0 || (tracks[1].fxPatchNo==patch && (tracks[1].flags&TRACK_FLAGS_PRIORITY)!=0 && retrig==true)){ //fx already playing
    87a2:	90 91 ba 08 	lds	r25, 0x08BA	; 0x8008ba <tracks+0x17>
    87a6:	97 ff       	sbrs	r25, 7
    87a8:	1b c0       	rjmp	.+54     	; 0x87e0 <TriggerFx+0x5e>
    87aa:	90 91 cb 08 	lds	r25, 0x08CB	; 0x8008cb <tracks+0x28>
    87ae:	89 13       	cpse	r24, r25
    87b0:	02 c0       	rjmp	.+4      	; 0x87b6 <TriggerFx+0x34>
    87b2:	41 11       	cpse	r20, r1
    87b4:	15 c0       	rjmp	.+42     	; 0x87e0 <TriggerFx+0x5e>
		channel=1;
	}else if( (tracks[2].flags&TRACK_FLAGS_PRIORITY)==0 || (tracks[2].fxPatchNo==patch && (tracks[2].flags&TRACK_FLAGS_PRIORITY)!=0 && retrig==true)){ //fx already playing				
    87b6:	90 91 d1 08 	lds	r25, 0x08D1	; 0x8008d1 <tracks+0x2e>
    87ba:	97 ff       	sbrs	r25, 7
    87bc:	13 c0       	rjmp	.+38     	; 0x87e4 <TriggerFx+0x62>
    87be:	90 91 e2 08 	lds	r25, 0x08E2	; 0x8008e2 <tracks+0x3f>
    87c2:	89 13       	cpse	r24, r25
    87c4:	02 c0       	rjmp	.+4      	; 0x87ca <TriggerFx+0x48>
    87c6:	41 11       	cpse	r20, r1
    87c8:	0d c0       	rjmp	.+26     	; 0x87e4 <TriggerFx+0x62>
		channel=2;
	}else{
		//both channels have fx playing, use the oldest one
		if(tracks[1].patchPlayingTime>tracks[2].patchPlayingTime){
    87ca:	20 91 ce 08 	lds	r18, 0x08CE	; 0x8008ce <tracks+0x2b>
    87ce:	90 91 e5 08 	lds	r25, 0x08E5	; 0x8008e5 <tracks+0x42>
    87d2:	92 17       	cp	r25, r18
    87d4:	38 f4       	brcc	.+14     	; 0x87e4 <TriggerFx+0x62>
    87d6:	04 c0       	rjmp	.+8      	; 0x87e0 <TriggerFx+0x5e>
	//find the channel to play the fx
	//try to steal voice 2 then 1
	//never steal voice 0, reserve it for lead melodies
	if(type==1 || (type==2 && MIXER_CHAN4_TYPE == 1)){
		//noise or PCM channel fx		
		channel=3;
    87d8:	c3 e0       	ldi	r28, 0x03	; 3
    87da:	05 c0       	rjmp	.+10     	; 0x87e6 <TriggerFx+0x64>
	}else if(type==2){
		channel=4;
    87dc:	c4 e0       	ldi	r28, 0x04	; 4
    87de:	03 c0       	rjmp	.+6      	; 0x87e6 <TriggerFx+0x64>
	}else if( (tracks[1].flags&TRACK_FLAGS_PRIORITY)==0 || (tracks[1].fxPatchNo==patch && (tracks[1].flags&TRACK_FLAGS_PRIORITY)!=0 && retrig==true)){ //fx already playing
		channel=1;
    87e0:	c1 e0       	ldi	r28, 0x01	; 1
    87e2:	01 c0       	rjmp	.+2      	; 0x87e6 <TriggerFx+0x64>
	}else{
		//both channels have fx playing, use the oldest one
		if(tracks[1].patchPlayingTime>tracks[2].patchPlayingTime){
			channel=1;
		}else{
			channel=2;
    87e4:	c2 e0       	ldi	r28, 0x02	; 2
		}
	}				

	Track* track=&tracks[channel];
	track->flags=TRACK_FLAGS_PRIORITY; //priority=1;
    87e6:	97 e1       	ldi	r25, 0x17	; 23
    87e8:	c9 9f       	mul	r28, r25
    87ea:	e0 01       	movw	r28, r0
    87ec:	11 24       	eor	r1, r1
    87ee:	cd 55       	subi	r28, 0x5D	; 93
    87f0:	d7 4f       	sbci	r29, 0xF7	; 247
    87f2:	90 e8       	ldi	r25, 0x80	; 128
    87f4:	98 83       	st	Y, r25
	track->patchCommandStreamPos = NULL;
    87f6:	1e 8a       	std	Y+22, r1	; 0x16
    87f8:	1d 8a       	std	Y+21, r1	; 0x15
	TriggerCommon(track,patch,volume,80);
    87fa:	20 e5       	ldi	r18, 0x50	; 80
    87fc:	46 2f       	mov	r20, r22
    87fe:	68 2f       	mov	r22, r24
    8800:	ce 01       	movw	r24, r28
    8802:	0e 94 40 43 	call	0x8680	; 0x8680 <TriggerCommon>
	track->flags|=TRACK_FLAGS_PLAYING;
    8806:	88 81       	ld	r24, Y
    8808:	80 62       	ori	r24, 0x20	; 32
    880a:	88 83       	st	Y, r24
}
    880c:	df 91       	pop	r29
    880e:	cf 91       	pop	r28
    8810:	08 95       	ret

00008812 <TriggerNote>:


void TriggerNote(unsigned char channel,unsigned char patch,unsigned char note,unsigned char volume){
    8812:	cf 93       	push	r28
    8814:	df 93       	push	r29
	Track* track=&tracks[channel];

	//allow only other music notes 
	if((track->flags&TRACK_FLAGS_PLAYING)==0 || (track->flags&TRACK_FLAGS_PRIORITY)==0){
    8816:	a8 2f       	mov	r26, r24
    8818:	b0 e0       	ldi	r27, 0x00	; 0
    881a:	97 e1       	ldi	r25, 0x17	; 23
    881c:	89 9f       	mul	r24, r25
    881e:	f0 01       	movw	r30, r0
    8820:	11 24       	eor	r1, r1
    8822:	ed 55       	subi	r30, 0x5D	; 93
    8824:	f7 4f       	sbci	r31, 0xF7	; 247
    8826:	80 81       	ld	r24, Z
    8828:	85 ff       	sbrs	r24, 5
    882a:	02 c0       	rjmp	.+4      	; 0x8830 <TriggerNote+0x1e>
    882c:	87 fd       	sbrc	r24, 7
    882e:	2e c0       	rjmp	.+92     	; 0x888c <TriggerNote+0x7a>
			
		if(volume==0){ //note-off received
    8830:	21 11       	cpse	r18, r1
    8832:	18 c0       	rjmp	.+48     	; 0x8864 <TriggerNote+0x52>

			
			//cut note if there's no envelope & no note hold
			if(track->envelopeStep==0 && !(track->flags&TRACK_FLAGS_HOLD_ENV)){
    8834:	97 e1       	ldi	r25, 0x17	; 23
    8836:	9a 9f       	mul	r25, r26
    8838:	f0 01       	movw	r30, r0
    883a:	9b 9f       	mul	r25, r27
    883c:	f0 0d       	add	r31, r0
    883e:	11 24       	eor	r1, r1
    8840:	ed 55       	subi	r30, 0x5D	; 93
    8842:	f7 4f       	sbci	r31, 0xF7	; 247
    8844:	97 85       	ldd	r25, Z+15	; 0x0f
    8846:	91 11       	cpse	r25, r1
    8848:	02 c0       	rjmp	.+4      	; 0x884e <TriggerNote+0x3c>
    884a:	86 ff       	sbrs	r24, 6
				track->noteVol=0;
    884c:	15 86       	std	Z+13, r1	; 0x0d
			}

			track->flags&=(~TRACK_FLAGS_HOLD_ENV);//patchEnvelopeHold=false;
    884e:	97 e1       	ldi	r25, 0x17	; 23
    8850:	9a 9f       	mul	r25, r26
    8852:	f0 01       	movw	r30, r0
    8854:	9b 9f       	mul	r25, r27
    8856:	f0 0d       	add	r31, r0
    8858:	11 24       	eor	r1, r1
    885a:	ed 55       	subi	r30, 0x5D	; 93
    885c:	f7 4f       	sbci	r31, 0xF7	; 247
    885e:	8f 7b       	andi	r24, 0xBF	; 191
    8860:	80 83       	st	Z, r24
    8862:	14 c0       	rjmp	.+40     	; 0x888c <TriggerNote+0x7a>
    8864:	82 2f       	mov	r24, r18
    8866:	24 2f       	mov	r18, r20
		}else{
		
			track->flags=0;//&=(~TRACK_FLAGS_PRIORITY);// priority=0;
    8868:	97 e1       	ldi	r25, 0x17	; 23
    886a:	9a 9f       	mul	r25, r26
    886c:	e0 01       	movw	r28, r0
    886e:	9b 9f       	mul	r25, r27
    8870:	d0 0d       	add	r29, r0
    8872:	11 24       	eor	r1, r1
    8874:	cd 55       	subi	r28, 0x5D	; 93
    8876:	d7 4f       	sbci	r29, 0xF7	; 247
    8878:	18 82       	st	Y, r1
			track->patchCommandStreamPos = NULL;
    887a:	1e 8a       	std	Y+22, r1	; 0x16
    887c:	1d 8a       	std	Y+21, r1	; 0x15
			TriggerCommon(track,patch,volume,note);
    887e:	48 2f       	mov	r20, r24
    8880:	ce 01       	movw	r24, r28
    8882:	0e 94 40 43 	call	0x8680	; 0x8680 <TriggerCommon>
			track->flags|=TRACK_FLAGS_PLAYING;
    8886:	88 81       	ld	r24, Y
    8888:	80 62       	ori	r24, 0x20	; 32
    888a:	88 83       	st	Y, r24
		}

	}
}
    888c:	df 91       	pop	r29
    888e:	cf 91       	pop	r28
    8890:	08 95       	ret

00008892 <ProcessMusic>:
	}

#endif


void ProcessMusic(void){
    8892:	ef 92       	push	r14
    8894:	ff 92       	push	r15
    8896:	0f 93       	push	r16
    8898:	1f 93       	push	r17
    889a:	cf 93       	push	r28
    889c:	df 93       	push	r29
    889e:	c3 ea       	ldi	r28, 0xA3	; 163
    88a0:	d8 e0       	ldi	r29, 0x08	; 8
    88a2:	0a e7       	ldi	r16, 0x7A	; 122
    88a4:	18 e0       	ldi	r17, 0x08	; 8
    88a6:	98 01       	movw	r18, r16
    88a8:	de 01       	movw	r26, r28
	//process patches envelopes & pitch slides
	for(unsigned char trackNo=0;trackNo<CHANNELS;trackNo++){
		track=&tracks[trackNo];

		//update envelope
		if(track->envelopeStep!=0){
    88aa:	1f 96       	adiw	r26, 0x0f	; 15
    88ac:	8c 91       	ld	r24, X
    88ae:	1f 97       	sbiw	r26, 0x0f	; 15
    88b0:	88 23       	and	r24, r24
    88b2:	a9 f0       	breq	.+42     	; 0x88de <ProcessMusic+0x4c>
			vol=track->envelopeVol+track->envelopeStep;		
    88b4:	1e 96       	adiw	r26, 0x0e	; 14
    88b6:	4c 91       	ld	r20, X
    88b8:	1e 97       	sbiw	r26, 0x0e	; 14
    88ba:	08 2e       	mov	r0, r24
    88bc:	00 0c       	add	r0, r0
    88be:	99 0b       	sbc	r25, r25
    88c0:	84 0f       	add	r24, r20
    88c2:	91 1d       	adc	r25, r1
    88c4:	8f 3f       	cpi	r24, 0xFF	; 255
    88c6:	91 05       	cpc	r25, r1
    88c8:	19 f0       	breq	.+6      	; 0x88d0 <ProcessMusic+0x3e>
    88ca:	14 f0       	brlt	.+4      	; 0x88d0 <ProcessMusic+0x3e>
    88cc:	8f ef       	ldi	r24, 0xFF	; 255
    88ce:	90 e0       	ldi	r25, 0x00	; 0
			if(vol<0){
				vol=0;			
			}else if(vol>0xff){
				vol=0xff;						
			}
			track->envelopeVol=vol;
    88d0:	97 ff       	sbrs	r25, 7
    88d2:	02 c0       	rjmp	.+4      	; 0x88d8 <ProcessMusic+0x46>
    88d4:	80 e0       	ldi	r24, 0x00	; 0
    88d6:	90 e0       	ldi	r25, 0x00	; 0
    88d8:	1e 96       	adiw	r26, 0x0e	; 14
    88da:	8c 93       	st	X, r24
    88dc:	1e 97       	sbiw	r26, 0x0e	; 14
		}

		//if volumes reaches zero and no more patch command, explicitly end playing on track
		//if(vol==0 && track->patchCommandStreamPos==NULL) track->flags&=~(TRACK_FLAGS_PLAYING);

		if(track->flags & TRACK_FLAGS_SLIDING){
    88de:	6c 91       	ld	r22, X
    88e0:	63 ff       	sbrs	r22, 3
    88e2:	26 c0       	rjmp	.+76     	; 0x8930 <ProcessMusic+0x9e>

			mixer.channels.all[trackNo].step+=track->slideStep;
    88e4:	15 96       	adiw	r26, 0x05	; 5
    88e6:	4d 91       	ld	r20, X+
    88e8:	5c 91       	ld	r21, X
    88ea:	16 97       	sbiw	r26, 0x06	; 6
    88ec:	f9 01       	movw	r30, r18
    88ee:	81 81       	ldd	r24, Z+1	; 0x01
    88f0:	92 81       	ldd	r25, Z+2	; 0x02
    88f2:	84 0f       	add	r24, r20
    88f4:	95 1f       	adc	r25, r21
    88f6:	92 83       	std	Z+2, r25	; 0x02
    88f8:	81 83       	std	Z+1, r24	; 0x01
			u16 tStep=pgm_read_word(&(steptable[track->slideNote]));
    88fa:	17 96       	adiw	r26, 0x07	; 7
    88fc:	ec 91       	ld	r30, X
    88fe:	17 97       	sbiw	r26, 0x07	; 7
    8900:	f0 e0       	ldi	r31, 0x00	; 0
    8902:	ee 0f       	add	r30, r30
    8904:	ff 1f       	adc	r31, r31
    8906:	e4 55       	subi	r30, 0x54	; 84
    8908:	f3 47       	sbci	r31, 0x73	; 115
    890a:	e5 90       	lpm	r14, Z+
    890c:	f4 90       	lpm	r15, Z

			if((track->slideStep>0 && mixer.channels.all[trackNo].step>=tStep) || 
    890e:	14 16       	cp	r1, r20
    8910:	15 06       	cpc	r1, r21
    8912:	24 f4       	brge	.+8      	; 0x891c <ProcessMusic+0x8a>
    8914:	8e 15       	cp	r24, r14
    8916:	9f 05       	cpc	r25, r15
    8918:	30 f4       	brcc	.+12     	; 0x8926 <ProcessMusic+0x94>
    891a:	0a c0       	rjmp	.+20     	; 0x8930 <ProcessMusic+0x9e>
    891c:	45 2b       	or	r20, r21
    891e:	41 f0       	breq	.+16     	; 0x8930 <ProcessMusic+0x9e>
				(track->slideStep<0 && mixer.channels.all[trackNo].step<=tStep))
    8920:	e8 16       	cp	r14, r24
    8922:	f9 06       	cpc	r15, r25
    8924:	28 f0       	brcs	.+10     	; 0x8930 <ProcessMusic+0x9e>
			{					
				mixer.channels.all[trackNo].step = tStep;					
    8926:	f9 01       	movw	r30, r18
    8928:	f2 82       	std	Z+2, r15	; 0x02
    892a:	e1 82       	std	Z+1, r14	; 0x01
				track->flags &= ~(TRACK_FLAGS_SLIDING);	
    892c:	67 7f       	andi	r22, 0xF7	; 247
    892e:	6c 93       	st	X, r22
    8930:	57 96       	adiw	r26, 0x17	; 23
    8932:	2a 5f       	subi	r18, 0xFA	; 250
    8934:	3f 4f       	sbci	r19, 0xFF	; 255
	u8 channel;
	Track* track;


	//process patches envelopes & pitch slides
	for(unsigned char trackNo=0;trackNo<CHANNELS;trackNo++){
    8936:	f9 e0       	ldi	r31, 0x09	; 9
    8938:	a6 31       	cpi	r26, 0x16	; 22
    893a:	bf 07       	cpc	r27, r31
    893c:	09 f0       	breq	.+2      	; 0x8940 <ProcessMusic+0xae>
    893e:	b5 cf       	rjmp	.-150    	; 0x88aa <ProcessMusic+0x18>
	}



	//Process song MIDI notes
	if(playSong){
    8940:	80 91 78 08 	lds	r24, 0x0878	; 0x800878 <playSong>
    8944:	88 23       	and	r24, r24
    8946:	09 f4       	brne	.+2      	; 0x894a <ProcessMusic+0xb8>
    8948:	cc c0       	rjmp	.+408    	; 0x8ae2 <ProcessMusic+0x250>
							}else if(c1==CONTROLER_EXPRESSION){
								tracks[channel].expressionVol=c2<<1;
							}else if(c1==CONTROLER_TREMOLO){
								tracks[channel].tremoloLevel=c2<<1;
							}else if(c1==CONTROLER_TREMOLO_RATE){
								tracks[channel].tremoloRate=c2<<1;
    894a:	87 e1       	ldi	r24, 0x17	; 23
    894c:	f8 2e       	mov	r15, r24
	if(playSong){
	
		#if MUSIC_ENGINE == MIDI
			
			//process all simultaneous events
			while(currDeltaTime==nextDeltaTime){
    894e:	80 91 16 09 	lds	r24, 0x0916	; 0x800916 <currDeltaTime>
    8952:	90 91 17 09 	lds	r25, 0x0917	; 0x800917 <currDeltaTime+0x1>
    8956:	20 91 1c 09 	lds	r18, 0x091C	; 0x80091c <nextDeltaTime>
    895a:	30 91 1d 09 	lds	r19, 0x091D	; 0x80091d <nextDeltaTime+0x1>
    895e:	82 17       	cp	r24, r18
    8960:	93 07       	cpc	r25, r19
    8962:	09 f0       	breq	.+2      	; 0x8966 <ProcessMusic+0xd4>
    8964:	b9 c0       	rjmp	.+370    	; 0x8ad8 <ProcessMusic+0x246>

				c1=pgm_read_byte(songPos++);
    8966:	20 91 1f 09 	lds	r18, 0x091F	; 0x80091f <songPos>
    896a:	30 91 20 09 	lds	r19, 0x0920	; 0x800920 <songPos+0x1>
    896e:	b9 01       	movw	r22, r18
    8970:	6f 5f       	subi	r22, 0xFF	; 255
    8972:	7f 4f       	sbci	r23, 0xFF	; 255
    8974:	70 93 20 09 	sts	0x0920, r23	; 0x800920 <songPos+0x1>
    8978:	60 93 1f 09 	sts	0x091F, r22	; 0x80091f <songPos>
    897c:	f9 01       	movw	r30, r18
    897e:	44 91       	lpm	r20, Z
			
				if(c1==0xff){
    8980:	4f 3f       	cpi	r20, 0xFF	; 255
    8982:	79 f5       	brne	.+94     	; 0x89e2 <ProcessMusic+0x150>
					//META data type event

					c1=pgm_read_byte(songPos++);
    8984:	a9 01       	movw	r20, r18
    8986:	4e 5f       	subi	r20, 0xFE	; 254
    8988:	5f 4f       	sbci	r21, 0xFF	; 255
    898a:	50 93 20 09 	sts	0x0920, r21	; 0x800920 <songPos+0x1>
    898e:	40 93 1f 09 	sts	0x091F, r20	; 0x80091f <songPos>
    8992:	fb 01       	movw	r30, r22
    8994:	64 91       	lpm	r22, Z

				
					if(c1==0x2f){ //end of song
    8996:	6f 32       	cpi	r22, 0x2F	; 47
    8998:	19 f4       	brne	.+6      	; 0x89a0 <ProcessMusic+0x10e>
						playSong=false;
    899a:	10 92 78 08 	sts	0x0878, r1	; 0x800878 <playSong>
						break;	
    899e:	9c c0       	rjmp	.+312    	; 0x8ad8 <ProcessMusic+0x246>
					}else if(c1==0x6){ //marker
    89a0:	66 30       	cpi	r22, 0x06	; 6
    89a2:	09 f0       	breq	.+2      	; 0x89a6 <ProcessMusic+0x114>
    89a4:	8c c0       	rjmp	.+280    	; 0x8abe <ProcessMusic+0x22c>
						c1=pgm_read_byte(songPos++); //read len
    89a6:	fa 01       	movw	r30, r20
    89a8:	44 91       	lpm	r20, Z
						c2=pgm_read_byte(songPos++); //read data
    89aa:	c9 01       	movw	r24, r18
    89ac:	04 96       	adiw	r24, 0x04	; 4
    89ae:	90 93 20 09 	sts	0x0920, r25	; 0x800920 <songPos+0x1>
    89b2:	80 93 1f 09 	sts	0x091F, r24	; 0x80091f <songPos>
				
					if(c1==0x2f){ //end of song
						playSong=false;
						break;	
					}else if(c1==0x6){ //marker
						c1=pgm_read_byte(songPos++); //read len
    89b6:	f9 01       	movw	r30, r18
    89b8:	33 96       	adiw	r30, 0x03	; 3
						c2=pgm_read_byte(songPos++); //read data
    89ba:	e4 91       	lpm	r30, Z
						if(c2=='S'){ //loop start
    89bc:	e3 35       	cpi	r30, 0x53	; 83
    89be:	29 f4       	brne	.+10     	; 0x89ca <ProcessMusic+0x138>
							loopStart=songPos;
    89c0:	90 93 22 09 	sts	0x0922, r25	; 0x800922 <loopStart+0x1>
    89c4:	80 93 21 09 	sts	0x0921, r24	; 0x800921 <loopStart>
    89c8:	7a c0       	rjmp	.+244    	; 0x8abe <ProcessMusic+0x22c>
						}else if(c2=='E'){//loop end
    89ca:	e5 34       	cpi	r30, 0x45	; 69
    89cc:	09 f0       	breq	.+2      	; 0x89d0 <ProcessMusic+0x13e>
    89ce:	77 c0       	rjmp	.+238    	; 0x8abe <ProcessMusic+0x22c>
							songPos=loopStart;
    89d0:	80 91 21 09 	lds	r24, 0x0921	; 0x800921 <loopStart>
    89d4:	90 91 22 09 	lds	r25, 0x0922	; 0x800922 <loopStart+0x1>
    89d8:	90 93 20 09 	sts	0x0920, r25	; 0x800920 <songPos+0x1>
    89dc:	80 93 1f 09 	sts	0x091F, r24	; 0x80091f <songPos>
    89e0:	6e c0       	rjmp	.+220    	; 0x8abe <ProcessMusic+0x22c>
					}
				

				}else{

					if(c1&0x80) lastStatus=c1;					
    89e2:	47 fd       	sbrc	r20, 7
    89e4:	40 93 1a 09 	sts	0x091A, r20	; 0x80091a <lastStatus>
					channel=lastStatus&0x0f;
    89e8:	90 91 1a 09 	lds	r25, 0x091A	; 0x80091a <lastStatus>
    89ec:	89 2f       	mov	r24, r25
    89ee:	8f 70       	andi	r24, 0x0F	; 15
				
					//get next data byte		
					if(c1&0x80) c1=pgm_read_byte(songPos++); 
    89f0:	47 ff       	sbrs	r20, 7
    89f2:	08 c0       	rjmp	.+16     	; 0x8a04 <ProcessMusic+0x172>
    89f4:	2e 5f       	subi	r18, 0xFE	; 254
    89f6:	3f 4f       	sbci	r19, 0xFF	; 255
    89f8:	30 93 20 09 	sts	0x0920, r19	; 0x800920 <songPos+0x1>
    89fc:	20 93 1f 09 	sts	0x091F, r18	; 0x80091f <songPos>
    8a00:	fb 01       	movw	r30, r22
    8a02:	44 91       	lpm	r20, Z

					switch(lastStatus&0xf0){
    8a04:	90 7f       	andi	r25, 0xF0	; 240
    8a06:	90 3b       	cpi	r25, 0xB0	; 176
    8a08:	e1 f0       	breq	.+56     	; 0x8a42 <ProcessMusic+0x1b0>
    8a0a:	90 3c       	cpi	r25, 0xC0	; 192
    8a0c:	09 f4       	brne	.+2      	; 0x8a10 <ProcessMusic+0x17e>
    8a0e:	51 c0       	rjmp	.+162    	; 0x8ab2 <ProcessMusic+0x220>
    8a10:	90 39       	cpi	r25, 0x90	; 144
    8a12:	09 f0       	breq	.+2      	; 0x8a16 <ProcessMusic+0x184>
    8a14:	54 c0       	rjmp	.+168    	; 0x8abe <ProcessMusic+0x22c>

						//note-on
						case 0x90:
							//c1 = note						
							c2=pgm_read_byte(songPos++)<<1; //get volume
    8a16:	e0 91 1f 09 	lds	r30, 0x091F	; 0x80091f <songPos>
    8a1a:	f0 91 20 09 	lds	r31, 0x0920	; 0x800920 <songPos+0x1>
    8a1e:	9f 01       	movw	r18, r30
    8a20:	2f 5f       	subi	r18, 0xFF	; 255
    8a22:	3f 4f       	sbci	r19, 0xFF	; 255
    8a24:	30 93 20 09 	sts	0x0920, r19	; 0x800920 <songPos+0x1>
    8a28:	20 93 1f 09 	sts	0x091F, r18	; 0x80091f <songPos>
    8a2c:	24 91       	lpm	r18, Z
						
							if(tracks[channel].flags|TRACK_FLAGS_ALLOCATED){ //allocated==true
								TriggerNote(channel,tracks[channel].patchNo,c1,c2);
    8a2e:	22 0f       	add	r18, r18
    8a30:	f8 9e       	mul	r15, r24
    8a32:	f0 01       	movw	r30, r0
    8a34:	11 24       	eor	r1, r1
    8a36:	ed 55       	subi	r30, 0x5D	; 93
    8a38:	f7 4f       	sbci	r31, 0xF7	; 247
    8a3a:	60 89       	ldd	r22, Z+16	; 0x10
    8a3c:	0e 94 09 44 	call	0x8812	; 0x8812 <TriggerNote>
    8a40:	3e c0       	rjmp	.+124    	; 0x8abe <ProcessMusic+0x22c>
							break;

						//controllers
						case 0xb0:
							///c1 = controller #
							c2=pgm_read_byte(songPos++); //get controller value
    8a42:	e0 91 1f 09 	lds	r30, 0x091F	; 0x80091f <songPos>
    8a46:	f0 91 20 09 	lds	r31, 0x0920	; 0x800920 <songPos+0x1>
    8a4a:	9f 01       	movw	r18, r30
    8a4c:	2f 5f       	subi	r18, 0xFF	; 255
    8a4e:	3f 4f       	sbci	r19, 0xFF	; 255
    8a50:	30 93 20 09 	sts	0x0920, r19	; 0x800920 <songPos+0x1>
    8a54:	20 93 1f 09 	sts	0x091F, r18	; 0x80091f <songPos>
    8a58:	e4 91       	lpm	r30, Z
						
							if(c1==CONTROLER_VOL){
    8a5a:	47 30       	cpi	r20, 0x07	; 7
    8a5c:	49 f4       	brne	.+18     	; 0x8a70 <ProcessMusic+0x1de>
								tracks[channel].trackVol=c2<<1;
    8a5e:	f8 9e       	mul	r15, r24
    8a60:	d0 01       	movw	r26, r0
    8a62:	11 24       	eor	r1, r1
    8a64:	ad 55       	subi	r26, 0x5D	; 93
    8a66:	b7 4f       	sbci	r27, 0xF7	; 247
    8a68:	ee 0f       	add	r30, r30
    8a6a:	1c 96       	adiw	r26, 0x0c	; 12
    8a6c:	ec 93       	st	X, r30
    8a6e:	27 c0       	rjmp	.+78     	; 0x8abe <ProcessMusic+0x22c>
							}else if(c1==CONTROLER_EXPRESSION){
    8a70:	4b 30       	cpi	r20, 0x0B	; 11
    8a72:	49 f4       	brne	.+18     	; 0x8a86 <ProcessMusic+0x1f4>
								tracks[channel].expressionVol=c2<<1;
    8a74:	f8 9e       	mul	r15, r24
    8a76:	d0 01       	movw	r26, r0
    8a78:	11 24       	eor	r1, r1
    8a7a:	ad 55       	subi	r26, 0x5D	; 93
    8a7c:	b7 4f       	sbci	r27, 0xF7	; 247
    8a7e:	ee 0f       	add	r30, r30
    8a80:	13 96       	adiw	r26, 0x03	; 3
    8a82:	ec 93       	st	X, r30
    8a84:	1c c0       	rjmp	.+56     	; 0x8abe <ProcessMusic+0x22c>
							}else if(c1==CONTROLER_TREMOLO){
    8a86:	4c 35       	cpi	r20, 0x5C	; 92
    8a88:	49 f4       	brne	.+18     	; 0x8a9c <ProcessMusic+0x20a>
								tracks[channel].tremoloLevel=c2<<1;
    8a8a:	f8 9e       	mul	r15, r24
    8a8c:	d0 01       	movw	r26, r0
    8a8e:	11 24       	eor	r1, r1
    8a90:	ad 55       	subi	r26, 0x5D	; 93
    8a92:	b7 4f       	sbci	r27, 0xF7	; 247
    8a94:	ee 0f       	add	r30, r30
    8a96:	1a 96       	adiw	r26, 0x0a	; 10
    8a98:	ec 93       	st	X, r30
    8a9a:	11 c0       	rjmp	.+34     	; 0x8abe <ProcessMusic+0x22c>
							}else if(c1==CONTROLER_TREMOLO_RATE){
    8a9c:	44 36       	cpi	r20, 0x64	; 100
    8a9e:	79 f4       	brne	.+30     	; 0x8abe <ProcessMusic+0x22c>
								tracks[channel].tremoloRate=c2<<1;
    8aa0:	f8 9e       	mul	r15, r24
    8aa2:	d0 01       	movw	r26, r0
    8aa4:	11 24       	eor	r1, r1
    8aa6:	ad 55       	subi	r26, 0x5D	; 93
    8aa8:	b7 4f       	sbci	r27, 0xF7	; 247
    8aaa:	ee 0f       	add	r30, r30
    8aac:	1b 96       	adiw	r26, 0x0b	; 11
    8aae:	ec 93       	st	X, r30
    8ab0:	06 c0       	rjmp	.+12     	; 0x8abe <ProcessMusic+0x22c>
							break;

						//program change
						case 0xc0:
							// c1 = patch #						
							tracks[channel].patchNo=c1;
    8ab2:	f8 9e       	mul	r15, r24
    8ab4:	f0 01       	movw	r30, r0
    8ab6:	11 24       	eor	r1, r1
    8ab8:	ed 55       	subi	r30, 0x5D	; 93
    8aba:	f7 4f       	sbci	r31, 0xF7	; 247
    8abc:	40 8b       	std	Z+16, r20	; 0x10


				}//end if(c1==0xff)

				//read next delta time
				nextDeltaTime=ReadVarLen(&songPos);			
    8abe:	8f e1       	ldi	r24, 0x1F	; 31
    8ac0:	99 e0       	ldi	r25, 0x09	; 9
    8ac2:	0e 94 1a 43 	call	0x8634	; 0x8634 <ReadVarLen>
    8ac6:	90 93 1d 09 	sts	0x091D, r25	; 0x80091d <nextDeltaTime+0x1>
    8aca:	80 93 1c 09 	sts	0x091C, r24	; 0x80091c <nextDeltaTime>
				currDeltaTime=0;
    8ace:	10 92 17 09 	sts	0x0917, r1	; 0x800917 <currDeltaTime+0x1>
    8ad2:	10 92 16 09 	sts	0x0916, r1	; 0x800916 <currDeltaTime>
    8ad6:	3b cf       	rjmp	.-394    	; 0x894e <ProcessMusic+0xbc>
					}
				#endif

			}//end while
		
			currDeltaTime++;
    8ad8:	01 96       	adiw	r24, 0x01	; 1
    8ada:	90 93 17 09 	sts	0x0917, r25	; 0x800917 <currDeltaTime+0x1>
    8ade:	80 93 16 09 	sts	0x0916, r24	; 0x800916 <currDeltaTime>
					tmp-=128; //convert to unsigned

					tVol=(track->tremoloLevel*tmp)+0x100;
					tVol>>=8;
					
					uVol=(uVol*(0xff-tVol))+0x100;
    8ae2:	ee 24       	eor	r14, r14
    8ae4:	ea 94       	dec	r14
    8ae6:	f1 2c       	mov	r15, r1
	//
	for(unsigned char trackNo=0;trackNo<CHANNELS;trackNo++){
		track=&tracks[trackNo];

		//process patch command stream
		if((track->flags & TRACK_FLAGS_PLAYING) && (track->patchCommandStreamPos!=NULL) && ((track->flags & TRACK_FLAGS_HOLD_ENV)==0)){
    8ae8:	88 81       	ld	r24, Y
    8aea:	85 ff       	sbrs	r24, 5
    8aec:	37 c0       	rjmp	.+110    	; 0x8b5c <ProcessMusic+0x2ca>
    8aee:	2d 89       	ldd	r18, Y+21	; 0x15
    8af0:	3e 89       	ldd	r19, Y+22	; 0x16
    8af2:	23 2b       	or	r18, r19
    8af4:	09 f4       	brne	.+2      	; 0x8af8 <ProcessMusic+0x266>
    8af6:	32 c0       	rjmp	.+100    	; 0x8b5c <ProcessMusic+0x2ca>
    8af8:	86 fd       	sbrc	r24, 6
    8afa:	30 c0       	rjmp	.+96     	; 0x8b5c <ProcessMusic+0x2ca>

			//process all simultaneous events
			while(track->patchCurrDeltaTime==track->patchNextDeltaTime){
    8afc:	9b 89       	ldd	r25, Y+19	; 0x13
    8afe:	8a 89       	ldd	r24, Y+18	; 0x12
    8b00:	98 13       	cpse	r25, r24
    8b02:	2a c0       	rjmp	.+84     	; 0x8b58 <ProcessMusic+0x2c6>

				c1=pgm_read_byte(track->patchCommandStreamPos++);
    8b04:	ed 89       	ldd	r30, Y+21	; 0x15
    8b06:	fe 89       	ldd	r31, Y+22	; 0x16
    8b08:	bf 01       	movw	r22, r30
    8b0a:	6f 5f       	subi	r22, 0xFF	; 255
    8b0c:	7f 4f       	sbci	r23, 0xFF	; 255
    8b0e:	7e 8b       	std	Y+22, r23	; 0x16
    8b10:	6d 8b       	std	Y+21, r22	; 0x15
    8b12:	84 91       	lpm	r24, Z
				if(c1==PATCH_END){
    8b14:	8f 3f       	cpi	r24, 0xFF	; 255
    8b16:	31 f4       	brne	.+12     	; 0x8b24 <ProcessMusic+0x292>
					//end of stream!
					track->flags&=(~TRACK_FLAGS_PRIORITY);// priority=0;
    8b18:	88 81       	ld	r24, Y
    8b1a:	8f 77       	andi	r24, 0x7F	; 127
    8b1c:	88 83       	st	Y, r24
					track->patchCommandStreamPos=NULL;
    8b1e:	1e 8a       	std	Y+22, r1	; 0x16
    8b20:	1d 8a       	std	Y+21, r1	; 0x15
					break;
    8b22:	1a c0       	rjmp	.+52     	; 0x8b58 <ProcessMusic+0x2c6>

				}else{
					c2=pgm_read_byte(track->patchCommandStreamPos++);
    8b24:	32 96       	adiw	r30, 0x02	; 2
    8b26:	fe 8b       	std	Y+22, r31	; 0x16
    8b28:	ed 8b       	std	Y+21, r30	; 0x15
    8b2a:	fb 01       	movw	r30, r22
    8b2c:	64 91       	lpm	r22, Z
					//invoke patch command function
					((PatchCommand)pgm_read_word(&patchCommands[c1]))(track,c2);
    8b2e:	e8 2f       	mov	r30, r24
    8b30:	f0 e0       	ldi	r31, 0x00	; 0
    8b32:	ee 0f       	add	r30, r30
    8b34:	ff 1f       	adc	r31, r31
    8b36:	ee 53       	subi	r30, 0x3E	; 62
    8b38:	ff 4f       	sbci	r31, 0xFF	; 255
    8b3a:	25 91       	lpm	r18, Z+
    8b3c:	34 91       	lpm	r19, Z
    8b3e:	ce 01       	movw	r24, r28
    8b40:	f9 01       	movw	r30, r18
    8b42:	09 95       	icall
				}

				//read next delta time
				track->patchNextDeltaTime=pgm_read_byte(track->patchCommandStreamPos++);
    8b44:	ed 89       	ldd	r30, Y+21	; 0x15
    8b46:	fe 89       	ldd	r31, Y+22	; 0x16
    8b48:	cf 01       	movw	r24, r30
    8b4a:	01 96       	adiw	r24, 0x01	; 1
    8b4c:	9e 8b       	std	Y+22, r25	; 0x16
    8b4e:	8d 8b       	std	Y+21, r24	; 0x15
    8b50:	e4 91       	lpm	r30, Z
    8b52:	ea 8b       	std	Y+18, r30	; 0x12
				track->patchCurrDeltaTime=0;
    8b54:	1b 8a       	std	Y+19, r1	; 0x13
    8b56:	d2 cf       	rjmp	.-92     	; 0x8afc <ProcessMusic+0x26a>
			}

			track->patchCurrDeltaTime++;
    8b58:	9f 5f       	subi	r25, 0xFF	; 255
    8b5a:	9b 8b       	std	Y+19, r25	; 0x13
		}

		if(track->flags & TRACK_FLAGS_PLAYING){
    8b5c:	98 81       	ld	r25, Y
    8b5e:	95 ff       	sbrs	r25, 5
    8b60:	5e c0       	rjmp	.+188    	; 0x8c1e <ProcessMusic+0x38c>

			if(track->patchPlayingTime<0xff){
    8b62:	8c 89       	ldd	r24, Y+20	; 0x14
    8b64:	8f 3f       	cpi	r24, 0xFF	; 255
    8b66:	11 f0       	breq	.+4      	; 0x8b6c <ProcessMusic+0x2da>
				track->patchPlayingTime++;
    8b68:	8f 5f       	subi	r24, 0xFF	; 255
    8b6a:	8c 8b       	std	Y+20, r24	; 0x14
			}

			//compute final frame volume
			if(track->flags&TRACK_FLAGS_PRIORITY){
    8b6c:	97 fd       	sbrc	r25, 7
    8b6e:	02 c0       	rjmp	.+4      	; 0x8b74 <ProcessMusic+0x2e2>
				//if an FX, use full track volume.
				trackVol=0xff;
			}else{
				//if regular note, apply MIDI track volume
				trackVol= track->trackVol;
    8b70:	9c 85       	ldd	r25, Y+12	; 0x0c
    8b72:	01 c0       	rjmp	.+2      	; 0x8b76 <ProcessMusic+0x2e4>
			}

			//compute final frame volume
			if(track->flags&TRACK_FLAGS_PRIORITY){
				//if an FX, use full track volume.
				trackVol=0xff;
    8b74:	9f ef       	ldi	r25, 0xFF	; 255
			}else{
				//if regular note, apply MIDI track volume
				trackVol= track->trackVol;
			}
			if(track->noteVol!=0 && track->envelopeVol!=0 && trackVol!=0 && masterVolume!=0){
    8b76:	8d 85       	ldd	r24, Y+13	; 0x0d
    8b78:	49 85       	ldd	r20, Y+9	; 0x09
    8b7a:	88 23       	and	r24, r24
    8b7c:	09 f4       	brne	.+2      	; 0x8b80 <ProcessMusic+0x2ee>
    8b7e:	49 c0       	rjmp	.+146    	; 0x8c12 <ProcessMusic+0x380>
    8b80:	6e 85       	ldd	r22, Y+14	; 0x0e
    8b82:	66 23       	and	r22, r22
    8b84:	09 f4       	brne	.+2      	; 0x8b88 <ProcessMusic+0x2f6>
    8b86:	45 c0       	rjmp	.+138    	; 0x8c12 <ProcessMusic+0x380>
    8b88:	99 23       	and	r25, r25
    8b8a:	09 f4       	brne	.+2      	; 0x8b8e <ProcessMusic+0x2fc>
    8b8c:	42 c0       	rjmp	.+132    	; 0x8c12 <ProcessMusic+0x380>
    8b8e:	50 91 1b 09 	lds	r21, 0x091B	; 0x80091b <masterVolume>
    8b92:	55 23       	and	r21, r21
    8b94:	09 f4       	brne	.+2      	; 0x8b98 <ProcessMusic+0x306>
    8b96:	3d c0       	rjmp	.+122    	; 0x8c12 <ProcessMusic+0x380>

				uVol=(track->noteVol*trackVol)+0x100;
    8b98:	89 9f       	mul	r24, r25
    8b9a:	c0 01       	movw	r24, r0
    8b9c:	11 24       	eor	r1, r1
    8b9e:	93 95       	inc	r25
				uVol>>=8;
				
				uVol=(uVol*track->envelopeVol)+0x100;
    8ba0:	89 2f       	mov	r24, r25
    8ba2:	99 27       	eor	r25, r25
    8ba4:	68 9f       	mul	r22, r24
    8ba6:	90 01       	movw	r18, r0
    8ba8:	69 9f       	mul	r22, r25
    8baa:	30 0d       	add	r19, r0
    8bac:	11 24       	eor	r1, r1
    8bae:	33 95       	inc	r19
				uVol>>=8;
				
				#if MUSIC_ENGINE == MIDI
					uVol=(uVol*track->expressionVol)+0x100;
    8bb0:	23 2f       	mov	r18, r19
    8bb2:	33 27       	eor	r19, r19
    8bb4:	6b 81       	ldd	r22, Y+3	; 0x03
    8bb6:	62 9f       	mul	r22, r18
    8bb8:	c0 01       	movw	r24, r0
    8bba:	63 9f       	mul	r22, r19
    8bbc:	90 0d       	add	r25, r0
    8bbe:	11 24       	eor	r1, r1
    8bc0:	93 95       	inc	r25
					uVol>>=8;
				#endif
				
				uVol=(uVol*masterVolume)+0x100;
    8bc2:	89 2f       	mov	r24, r25
    8bc4:	99 27       	eor	r25, r25
    8bc6:	58 9f       	mul	r21, r24
    8bc8:	90 01       	movw	r18, r0
    8bca:	59 9f       	mul	r21, r25
    8bcc:	30 0d       	add	r19, r0
    8bce:	11 24       	eor	r1, r1
    8bd0:	33 95       	inc	r19
				uVol>>=8;
    8bd2:	23 2f       	mov	r18, r19
    8bd4:	33 27       	eor	r19, r19

				if(track->tremoloLevel>0){
    8bd6:	8a 85       	ldd	r24, Y+10	; 0x0a
    8bd8:	88 23       	and	r24, r24
    8bda:	e9 f0       	breq	.+58     	; 0x8c16 <ProcessMusic+0x384>
					#if (INCLUDE_DEFAULT_WAVES != 0)
						tmp=pgm_read_byte(&(waves[track->tremoloPos]));
    8bdc:	e4 2f       	mov	r30, r20
    8bde:	f0 e0       	ldi	r31, 0x00	; 0
    8be0:	e0 50       	subi	r30, 0x00	; 0
    8be2:	f2 47       	sbci	r31, 0x72	; 114
    8be4:	e4 91       	lpm	r30, Z
					#else
						tmp=0;
					#endif
					tmp-=128; //convert to unsigned
    8be6:	e0 58       	subi	r30, 0x80	; 128

					tVol=(track->tremoloLevel*tmp)+0x100;
    8be8:	8e 9f       	mul	r24, r30
    8bea:	f0 01       	movw	r30, r0
    8bec:	11 24       	eor	r1, r1
    8bee:	f3 95       	inc	r31
					tVol>>=8;
					
					uVol=(uVol*(0xff-tVol))+0x100;
    8bf0:	ef 2f       	mov	r30, r31
    8bf2:	ff 27       	eor	r31, r31
    8bf4:	b7 01       	movw	r22, r14
    8bf6:	6e 1b       	sub	r22, r30
    8bf8:	7f 0b       	sbc	r23, r31
    8bfa:	62 9f       	mul	r22, r18
    8bfc:	c0 01       	movw	r24, r0
    8bfe:	63 9f       	mul	r22, r19
    8c00:	90 0d       	add	r25, r0
    8c02:	72 9f       	mul	r23, r18
    8c04:	90 0d       	add	r25, r0
    8c06:	11 24       	eor	r1, r1
    8c08:	9c 01       	movw	r18, r24
    8c0a:	33 95       	inc	r19
					uVol>>=8;
    8c0c:	23 2f       	mov	r18, r19
    8c0e:	33 27       	eor	r19, r19
    8c10:	02 c0       	rjmp	.+4      	; 0x8c16 <ProcessMusic+0x384>
				}

			
			}else{
				uVol=0;
    8c12:	20 e0       	ldi	r18, 0x00	; 0
    8c14:	30 e0       	ldi	r19, 0x00	; 0
			}	

			track->tremoloPos+=track->tremoloRate;	
    8c16:	8b 85       	ldd	r24, Y+11	; 0x0b
    8c18:	48 0f       	add	r20, r24
    8c1a:	49 87       	std	Y+9, r20	; 0x09
    8c1c:	02 c0       	rjmp	.+4      	; 0x8c22 <ProcessMusic+0x390>

		}else{
			uVol=0;
    8c1e:	20 e0       	ldi	r18, 0x00	; 0
    8c20:	30 e0       	ldi	r19, 0x00	; 0
		}
		
		mixer.channels.all[trackNo].volume=(uVol&0xff);
    8c22:	f8 01       	movw	r30, r16
    8c24:	20 83       	st	Z, r18
    8c26:	67 96       	adiw	r28, 0x17	; 23
    8c28:	0a 5f       	subi	r16, 0xFA	; 250
    8c2a:	1f 4f       	sbci	r17, 0xFF	; 255


	//
	// Process patches command streams & final volume
	//
	for(unsigned char trackNo=0;trackNo<CHANNELS;trackNo++){
    8c2c:	f9 e0       	ldi	r31, 0x09	; 9
    8c2e:	c6 31       	cpi	r28, 0x16	; 22
    8c30:	df 07       	cpc	r29, r31
    8c32:	09 f0       	breq	.+2      	; 0x8c36 <ProcessMusic+0x3a4>
    8c34:	59 cf       	rjmp	.-334    	; 0x8ae8 <ProcessMusic+0x256>
		}
		
		mixer.channels.all[trackNo].volume=(uVol&0xff);
	}
	
}
    8c36:	df 91       	pop	r29
    8c38:	cf 91       	pop	r28
    8c3a:	1f 91       	pop	r17
    8c3c:	0f 91       	pop	r16
    8c3e:	ff 90       	pop	r15
    8c40:	ef 90       	pop	r14
    8c42:	08 95       	ret

00008c44 <SetMixerNote>:
    8c44:	99 27       	eor	r25, r25
    8c46:	77 27       	eor	r23, r23
    8c48:	83 30       	cpi	r24, 0x03	; 3
    8c4a:	09 f4       	brne	.+2      	; 0x8c4e <set_note_waves>
    8c4c:	08 95       	ret

00008c4e <set_note_waves>:
    8c4e:	ec ea       	ldi	r30, 0xAC	; 172
    8c50:	fc e8       	ldi	r31, 0x8C	; 140
    8c52:	66 0f       	add	r22, r22
    8c54:	77 1f       	adc	r23, r23
    8c56:	e6 0f       	add	r30, r22
    8c58:	f7 1f       	adc	r31, r23
    8c5a:	a5 91       	lpm	r26, Z+
    8c5c:	b4 91       	lpm	r27, Z
    8c5e:	ea e7       	ldi	r30, 0x7A	; 122
    8c60:	f8 e0       	ldi	r31, 0x08	; 8
    8c62:	26 e0       	ldi	r18, 0x06	; 6
    8c64:	28 9f       	mul	r18, r24
    8c66:	e0 0d       	add	r30, r0
    8c68:	f1 1d       	adc	r31, r1
    8c6a:	a1 83       	std	Z+1, r26	; 0x01
    8c6c:	b2 83       	std	Z+2, r27	; 0x02
    8c6e:	11 24       	eor	r1, r1
    8c70:	08 95       	ret

00008c72 <SetMixerWave>:
;         Noise channel: 0xfe=7 bit lfsr, 0xff=15 bit lfsr
;                 
;***********************
.section .text.SetMixerWave
SetMixerWave:
	clr r25
    8c72:	99 27       	eor	r25, r25
	clr r23
    8c74:	77 27       	eor	r23, r23

#if (INCLUDE_DEFAULT_WAVES != 0)
	ldi ZL,lo8(mixerStruct)
    8c76:	ea e7       	ldi	r30, 0x7A	; 122
	ldi ZH,hi8(mixerStruct)
    8c78:	f8 e0       	ldi	r31, 0x08	; 8
	ldi r18,CHANNEL_STRUCT_SIZE
    8c7a:	26 e0       	ldi	r18, 0x06	; 6
	mul r18,r24	
    8c7c:	28 9f       	mul	r18, r24
	add ZL,r0
    8c7e:	e0 0d       	add	r30, r0
	adc ZH,r1
    8c80:	f1 1d       	adc	r31, r1
#endif

#if MIXER_CHAN4_TYPE == 0
	cpi r22,0xfe	;7bit lfsr
    8c82:	6e 3f       	cpi	r22, 0xFE	; 254
	brne smw1
    8c84:	31 f4       	brne	.+12     	; 0x8c92 <smw1>
	lds r22,tr4_params
    8c86:	60 91 8d 08 	lds	r22, 0x088D	; 0x80088d <tr4_params>
	andi r22,0xfe;
    8c8a:	6e 7f       	andi	r22, 0xFE	; 254
	sts tr4_params,r22
    8c8c:	60 93 8d 08 	sts	0x088D, r22	; 0x80088d <tr4_params>
	rjmp esmw	
    8c90:	0b c0       	rjmp	.+22     	; 0x8ca8 <esmw>

00008c92 <smw1>:
smw1:
	cpi r22,0xff	;15bit lfsr
    8c92:	6f 3f       	cpi	r22, 0xFF	; 255
	brne smw2
    8c94:	31 f4       	brne	.+12     	; 0x8ca2 <smw2>
	lds r22,tr4_params
    8c96:	60 91 8d 08 	lds	r22, 0x088D	; 0x80088d <tr4_params>
	ori r22,0xfe;
    8c9a:	6e 6f       	ori	r22, 0xFE	; 254
	sts tr4_params,r22	
    8c9c:	60 93 8d 08 	sts	0x088D, r22	; 0x80088d <tr4_params>
	rjmp esmw
    8ca0:	03 c0       	rjmp	.+6      	; 0x8ca8 <esmw>

00008ca2 <smw2>:
smw2:
#endif

#if (INCLUDE_DEFAULT_WAVES != 0)
	ldi r23,hi8(waves)
    8ca2:	7e e8       	ldi	r23, 0x8E	; 142
	add r23,r22
    8ca4:	76 0f       	add	r23, r22
	std Z+samplepos_hi,r23 ;store path No
    8ca6:	75 83       	std	Z+5, r23	; 0x05

00008ca8 <esmw>:
#endif

esmw:
	clr r1	
    8ca8:	11 24       	eor	r1, r1
	ret
    8caa:	08 95       	ret

00008cac <steptable>:
    8cac:	22 00       	.word	0x0022	; ????
    8cae:	24 00       	.word	0x0024	; ????
    8cb0:	26 00       	.word	0x0026	; ????
    8cb2:	28 00       	.word	0x0028	; ????
    8cb4:	2b 00       	.word	0x002b	; ????
    8cb6:	2d 00       	.word	0x002d	; ????
    8cb8:	30 00       	.word	0x0030	; ????
    8cba:	33 00       	.word	0x0033	; ????
    8cbc:	36 00       	.word	0x0036	; ????
    8cbe:	39 00       	.word	0x0039	; ????
    8cc0:	3d 00       	.word	0x003d	; ????
    8cc2:	40 00       	.word	0x0040	; ????
    8cc4:	44 00       	.word	0x0044	; ????
    8cc6:	48 00       	.word	0x0048	; ????
    8cc8:	4c 00       	.word	0x004c	; ????
    8cca:	51 00       	.word	0x0051	; ????
    8ccc:	56 00       	.word	0x0056	; ????
    8cce:	5b 00       	.word	0x005b	; ????
    8cd0:	60 00       	.word	0x0060	; ????
    8cd2:	66 00       	.word	0x0066	; ????
    8cd4:	6c 00       	.word	0x006c	; ????
    8cd6:	73 00       	.word	0x0073	; ????
    8cd8:	79 00       	.word	0x0079	; ????
    8cda:	81 00       	.word	0x0081	; ????
    8cdc:	88 00       	.word	0x0088	; ????
    8cde:	90 00       	.word	0x0090	; ????
    8ce0:	99 00       	.word	0x0099	; ????
    8ce2:	a2 00       	.word	0x00a2	; ????
    8ce4:	ac 00       	.word	0x00ac	; ????
    8ce6:	b6 00       	.word	0x00b6	; ????
    8ce8:	c1 00       	.word	0x00c1	; ????
    8cea:	cc 00       	.word	0x00cc	; ????
    8cec:	d8 00       	.word	0x00d8	; ????
    8cee:	e5 00       	.word	0x00e5	; ????
    8cf0:	f3 00       	.word	0x00f3	; ????
    8cf2:	01 01       	movw	r0, r2
    8cf4:	10 01       	movw	r2, r0
    8cf6:	21 01       	movw	r4, r2
    8cf8:	32 01       	movw	r6, r4
    8cfa:	44 01       	movw	r8, r8
    8cfc:	57 01       	movw	r10, r14
    8cfe:	6c 01       	movw	r12, r24
    8d00:	81 01       	movw	r16, r2
    8d02:	98 01       	movw	r18, r16
    8d04:	b0 01       	movw	r22, r0
    8d06:	ca 01       	movw	r24, r20
    8d08:	e5 01       	movw	r28, r10
    8d0a:	02 02       	muls	r16, r18
    8d0c:	21 02       	muls	r18, r17
    8d0e:	41 02       	muls	r20, r17
    8d10:	64 02       	muls	r22, r20
    8d12:	88 02       	muls	r24, r24
    8d14:	ae 02       	muls	r26, r30
    8d16:	d7 02       	muls	r29, r23
    8d18:	03 03       	mulsu	r16, r19
    8d1a:	30 03       	mulsu	r19, r16
    8d1c:	61 03       	mulsu	r22, r17
    8d1e:	94 03       	fmuls	r17, r20
    8d20:	cb 03       	fmulsu	r20, r19
    8d22:	05 04       	cpc	r0, r5
    8d24:	42 04       	cpc	r4, r2
    8d26:	83 04       	cpc	r8, r3
    8d28:	c7 04       	cpc	r12, r7
    8d2a:	10 05       	cpc	r17, r0
    8d2c:	5d 05       	cpc	r21, r13
    8d2e:	af 05       	cpc	r26, r15
    8d30:	05 06       	cpc	r0, r21
    8d32:	61 06       	cpc	r6, r17
    8d34:	c2 06       	cpc	r12, r18
    8d36:	29 07       	cpc	r18, r25
    8d38:	96 07       	cpc	r25, r22
    8d3a:	09 08       	sbc	r0, r9
    8d3c:	83 08       	sbc	r8, r3
    8d3e:	05 09       	sbc	r16, r5
    8d40:	8e 09       	sbc	r24, r14
    8d42:	20 0a       	sbc	r2, r16
    8d44:	ba 0a       	sbc	r11, r26
    8d46:	5d 0b       	sbc	r21, r29
    8d48:	0a 0c       	add	r0, r10
    8d4a:	c1 0c       	add	r12, r1
    8d4c:	84 0d       	add	r24, r4
    8d4e:	51 0e       	add	r5, r17
    8d50:	2b 0f       	add	r18, r27
    8d52:	12 10       	cpse	r1, r2
    8d54:	07 11       	cpse	r16, r7
    8d56:	0a 12       	cpse	r0, r26
    8d58:	1d 13       	cpse	r17, r29
    8d5a:	40 14       	cp	r4, r0
    8d5c:	74 15       	cp	r23, r4
    8d5e:	ba 16       	cp	r11, r26
    8d60:	14 18       	sub	r1, r4
    8d62:	83 19       	sub	r24, r3
    8d64:	07 1b       	sub	r16, r23
    8d66:	a3 1c       	adc	r10, r3
    8d68:	57 1e       	adc	r5, r23
    8d6a:	24 20       	and	r2, r4
    8d6c:	0e 22       	and	r0, r30
    8d6e:	14 24       	eor	r1, r4
    8d70:	39 26       	eor	r3, r25
    8d72:	7f 28       	or	r7, r15
    8d74:	e8 2a       	or	r14, r24
    8d76:	75 2d       	mov	r23, r5
    8d78:	29 30       	cpi	r18, 0x09	; 9
    8d7a:	06 33       	cpi	r16, 0x36	; 54
    8d7c:	0f 36       	cpi	r16, 0x6F	; 111
    8d7e:	45 39       	cpi	r20, 0x95	; 149
    8d80:	ad 3c       	cpi	r26, 0xCD	; 205
    8d82:	49 40       	sbci	r20, 0x09	; 9
    8d84:	1b 44       	sbci	r17, 0x4B	; 75
    8d86:	28 48       	sbci	r18, 0x88	; 136
    8d88:	73 4c       	sbci	r23, 0xC3	; 195
    8d8a:	fe 50       	subi	r31, 0x0E	; 14
    8d8c:	cf 55       	subi	r28, 0x5F	; 95
    8d8e:	ea 5a       	subi	r30, 0xAA	; 170
    8d90:	51 60       	ori	r21, 0x01	; 1
    8d92:	0c 66       	ori	r16, 0x6C	; 108
    8d94:	1d 6c       	ori	r17, 0xCD	; 205
    8d96:	8b 72       	andi	r24, 0x2B	; 43
    8d98:	5a 79       	andi	r21, 0x9A	; 154
    8d9a:	92 80       	ldd	r9, Z+2	; 0x02
    8d9c:	37 88       	ldd	r3, Z+23	; 0x17
    8d9e:	50 90 e5 98 	lds	r5, 0x98E5	; 0x8098e5 <_end+0x89e5>
    8da2:	fd a1       	ldd	r31, Y+37	; 0x25
    8da4:	9f ab       	std	Y+55, r25	; 0x37
    8da6:	d3 b5       	in	r29, 0x23	; 35
    8da8:	a3 c0       	rjmp	.+326    	; 0x8ef0 <waves+0xf0>
	...

00008e00 <waves>:
    8e00:	00 03       	mulsu	r16, r16
    8e02:	06 09       	sbc	r16, r6
    8e04:	0c 10       	cpse	r0, r12
    8e06:	13 16       	cp	r1, r19
    8e08:	19 1c       	adc	r1, r9
    8e0a:	1f 22       	and	r1, r31
    8e0c:	25 28       	or	r2, r5
    8e0e:	2b 2e       	mov	r2, r27
    8e10:	31 33       	cpi	r19, 0x31	; 49
    8e12:	36 39       	cpi	r19, 0x96	; 150
    8e14:	3c 3f       	cpi	r19, 0xFC	; 252
    8e16:	41 44       	sbci	r20, 0x41	; 65
    8e18:	47 49       	sbci	r20, 0x97	; 151
    8e1a:	4c 4e       	sbci	r20, 0xEC	; 236
    8e1c:	51 53       	subi	r21, 0x31	; 49
    8e1e:	55 58       	subi	r21, 0x85	; 133
    8e20:	5a 5c       	subi	r21, 0xCA	; 202
    8e22:	5e 60       	ori	r21, 0x0E	; 14
    8e24:	62 64       	ori	r22, 0x42	; 66
    8e26:	66 68       	ori	r22, 0x86	; 134
    8e28:	6a 6b       	ori	r22, 0xBA	; 186
    8e2a:	6d 6f       	ori	r22, 0xFD	; 253
    8e2c:	70 71       	andi	r23, 0x10	; 16
    8e2e:	73 74       	andi	r23, 0x43	; 67
    8e30:	75 76       	andi	r23, 0x65	; 101
    8e32:	78 79       	andi	r23, 0x98	; 152
    8e34:	7a 7a       	andi	r23, 0xAA	; 170
    8e36:	7b 7c       	andi	r23, 0xCB	; 203
    8e38:	7d 7d       	andi	r23, 0xDD	; 221
    8e3a:	7e 7e       	andi	r23, 0xEE	; 238
    8e3c:	7e 7f       	andi	r23, 0xFE	; 254
    8e3e:	7f 7f       	andi	r23, 0xFF	; 255
    8e40:	7f 7f       	andi	r23, 0xFF	; 255
    8e42:	7f 7f       	andi	r23, 0xFF	; 255
    8e44:	7e 7e       	andi	r23, 0xEE	; 238
    8e46:	7e 7d       	andi	r23, 0xDE	; 222
    8e48:	7d 7c       	andi	r23, 0xCD	; 205
    8e4a:	7b 7a       	andi	r23, 0xAB	; 171
    8e4c:	7a 79       	andi	r23, 0x9A	; 154
    8e4e:	78 76       	andi	r23, 0x68	; 104
    8e50:	75 74       	andi	r23, 0x45	; 69
    8e52:	73 71       	andi	r23, 0x13	; 19
    8e54:	70 6f       	ori	r23, 0xF0	; 240
    8e56:	6d 6b       	ori	r22, 0xBD	; 189
    8e58:	6a 68       	ori	r22, 0x8A	; 138
    8e5a:	66 64       	ori	r22, 0x46	; 70
    8e5c:	62 60       	ori	r22, 0x02	; 2
    8e5e:	5e 5c       	subi	r21, 0xCE	; 206
    8e60:	5a 58       	subi	r21, 0x8A	; 138
    8e62:	55 53       	subi	r21, 0x35	; 53
    8e64:	51 4e       	sbci	r21, 0xE1	; 225
    8e66:	4c 49       	sbci	r20, 0x9C	; 156
    8e68:	47 44       	sbci	r20, 0x47	; 71
    8e6a:	41 3f       	cpi	r20, 0xF1	; 241
    8e6c:	3c 39       	cpi	r19, 0x9C	; 156
    8e6e:	36 33       	cpi	r19, 0x36	; 54
    8e70:	31 2e       	mov	r3, r17
    8e72:	2b 28       	or	r2, r11
    8e74:	25 22       	and	r2, r21
    8e76:	1f 1c       	adc	r1, r15
    8e78:	19 16       	cp	r1, r25
    8e7a:	13 10       	cpse	r1, r3
    8e7c:	0c 09       	sbc	r16, r12
    8e7e:	06 03       	mulsu	r16, r22
    8e80:	00 fd       	sbrc	r16, 0
    8e82:	fa f7       	brpl	.-2      	; 0x8e82 <waves+0x82>
    8e84:	f4 f0       	brlt	.+60     	; 0x8ec2 <waves+0xc2>
    8e86:	ed ea       	ldi	r30, 0xAD	; 173
    8e88:	e7 e4       	ldi	r30, 0x47	; 71
    8e8a:	e1 de       	rcall	.-574    	; 0x8c4e <set_note_waves>
    8e8c:	db d8       	rcall	.-3658   	; 0x8044 <sync_hsync+0x32>
    8e8e:	d5 d2       	rcall	.+1450   	; 0x943a <waves+0x63a>
    8e90:	cf cd       	rjmp	.-1122   	; 0x8a30 <ProcessMusic+0x19e>
    8e92:	ca c7       	rjmp	.+3988   	; 0x9e28 <drawplayer+0xc4>
    8e94:	c4 c1       	rjmp	.+904    	; 0x921e <waves+0x41e>
    8e96:	bf bc       	out	0x2f, r11	; 47
    8e98:	b9 b7       	in	r27, 0x39	; 57
    8e9a:	b4 b2       	in	r11, 0x14	; 20
    8e9c:	af ad       	ldd	r26, Y+63	; 0x3f
    8e9e:	ab a8       	ldd	r10, Y+51	; 0x33
    8ea0:	a6 a4       	ldd	r10, Z+46	; 0x2e
    8ea2:	a2 a0       	ldd	r10, Z+34	; 0x22
    8ea4:	9e 9c       	mul	r9, r14
    8ea6:	9a 98       	cbi	0x13, 2	; 19
    8ea8:	96 95       	lsr	r25
    8eaa:	93 91       	.word	0x9193	; ????
    8eac:	90 8f       	std	Z+24, r25	; 0x18
    8eae:	8d 8c       	ldd	r8, Y+29	; 0x1d
    8eb0:	8b 8a       	std	Y+19, r8	; 0x13
    8eb2:	88 87       	std	Y+8, r24	; 0x08
    8eb4:	86 86       	std	Z+14, r8	; 0x0e
    8eb6:	85 84       	ldd	r8, Z+13	; 0x0d
    8eb8:	83 83       	std	Z+3, r24	; 0x03
    8eba:	82 82       	std	Z+2, r8	; 0x02
    8ebc:	82 81       	ldd	r24, Z+2	; 0x02
    8ebe:	81 81       	ldd	r24, Z+1	; 0x01
    8ec0:	81 81       	ldd	r24, Z+1	; 0x01
    8ec2:	81 81       	ldd	r24, Z+1	; 0x01
    8ec4:	82 82       	std	Z+2, r8	; 0x02
    8ec6:	82 83       	std	Z+2, r24	; 0x02
    8ec8:	83 84       	ldd	r8, Z+11	; 0x0b
    8eca:	85 86       	std	Z+13, r8	; 0x0d
    8ecc:	86 87       	std	Z+14, r24	; 0x0e
    8ece:	88 8a       	std	Y+16, r8	; 0x10
    8ed0:	8b 8c       	ldd	r8, Y+27	; 0x1b
    8ed2:	8d 8f       	std	Y+29, r24	; 0x1d
    8ed4:	90 91 93 95 	lds	r25, 0x9593	; 0x809593 <_end+0x8693>
    8ed8:	96 98       	cbi	0x12, 6	; 18
    8eda:	9a 9c       	mul	r9, r10
    8edc:	9e a0       	ldd	r9, Y+38	; 0x26
    8ede:	a2 a4       	ldd	r10, Z+42	; 0x2a
    8ee0:	a6 a8       	ldd	r10, Z+54	; 0x36
    8ee2:	ab ad       	ldd	r26, Y+59	; 0x3b
    8ee4:	af b2       	in	r10, 0x1f	; 31
    8ee6:	b4 b7       	in	r27, 0x34	; 52
    8ee8:	b9 bc       	out	0x29, r11	; 41
    8eea:	bf c1       	rjmp	.+894    	; 0x926a <waves+0x46a>
    8eec:	c4 c7       	rjmp	.+3976   	; 0x9e76 <drawplayer+0x112>
    8eee:	ca cd       	rjmp	.-1132   	; 0x8a84 <ProcessMusic+0x1f2>
    8ef0:	cf d2       	rcall	.+1438   	; 0x9490 <waves+0x690>
    8ef2:	d5 d8       	rcall	.-3670   	; 0x809e <no_render+0x2e>
    8ef4:	db de       	rcall	.-586    	; 0x8cac <steptable>
    8ef6:	e1 e4       	ldi	r30, 0x41	; 65
    8ef8:	e7 ea       	ldi	r30, 0xA7	; 167
    8efa:	ed f0       	brhs	.+58     	; 0x8f36 <waves+0x136>
    8efc:	f4 f7       	brge	.-4      	; 0x8efa <waves+0xfa>
    8efe:	fa fd       	.word	0xfdfa	; ????
    8f00:	80 81       	ld	r24, Z
    8f02:	82 83       	std	Z+2, r24	; 0x02
    8f04:	84 85       	ldd	r24, Z+12	; 0x0c
    8f06:	86 87       	std	Z+14, r24	; 0x0e
    8f08:	88 89       	ldd	r24, Y+16	; 0x10
    8f0a:	8a 8b       	std	Y+18, r24	; 0x12
    8f0c:	8c 8d       	ldd	r24, Y+28	; 0x1c
    8f0e:	8e 8f       	std	Y+30, r24	; 0x1e
    8f10:	90 91 92 93 	lds	r25, 0x9392	; 0x809392 <_end+0x8492>
    8f14:	94 95       	.word	0x9594	; ????
    8f16:	96 97       	sbiw	r26, 0x26	; 38
    8f18:	98 99       	sbic	0x13, 0	; 19
    8f1a:	9a 9b       	sbis	0x13, 2	; 19
    8f1c:	9c 9d       	mul	r25, r12
    8f1e:	9e 9f       	mul	r25, r30
    8f20:	a0 a1       	ldd	r26, Z+32	; 0x20
    8f22:	a2 a3       	std	Z+34, r26	; 0x22
    8f24:	a4 a5       	ldd	r26, Z+44	; 0x2c
    8f26:	a6 a7       	std	Z+46, r26	; 0x2e
    8f28:	a8 a9       	ldd	r26, Y+48	; 0x30
    8f2a:	aa ab       	std	Y+50, r26	; 0x32
    8f2c:	ac ad       	ldd	r26, Y+60	; 0x3c
    8f2e:	ae af       	std	Y+62, r26	; 0x3e
    8f30:	b0 b1       	in	r27, 0x00	; 0
    8f32:	b2 b3       	in	r27, 0x12	; 18
    8f34:	b4 b5       	in	r27, 0x24	; 36
    8f36:	b6 b7       	in	r27, 0x36	; 54
    8f38:	b8 b9       	out	0x08, r27	; 8
    8f3a:	ba bb       	out	0x1a, r27	; 26
    8f3c:	bc bd       	out	0x2c, r27	; 44
    8f3e:	be bf       	out	0x3e, r27	; 62
    8f40:	c0 c1       	rjmp	.+896    	; 0x92c2 <waves+0x4c2>
    8f42:	c2 c3       	rjmp	.+1924   	; 0x96c8 <waves+0x8c8>
    8f44:	c4 c5       	rjmp	.+2952   	; 0x9ace <MapSprite2+0x3e>
    8f46:	c6 c7       	rjmp	.+3980   	; 0x9ed4 <drawplayer2+0x44>
    8f48:	c8 c9       	rjmp	.-3184   	; 0x82da <ClearVsyncFlag+0xa>
    8f4a:	ca cb       	rjmp	.-2156   	; 0x86e0 <TriggerCommon+0x60>
    8f4c:	cc cd       	rjmp	.-1128   	; 0x8ae6 <ProcessMusic+0x254>
    8f4e:	ce cf       	rjmp	.-100    	; 0x8eec <waves+0xec>
    8f50:	d0 d1       	rcall	.+928    	; 0x92f2 <waves+0x4f2>
    8f52:	d2 d3       	rcall	.+1956   	; 0x96f8 <waves+0x8f8>
    8f54:	d4 d5       	rcall	.+2984   	; 0x9afe <MapSprite2+0x6e>
    8f56:	d6 d7       	rcall	.+4012   	; 0x9f04 <drawplayer2+0x74>
    8f58:	d8 d9       	rcall	.-3152   	; 0x830a <SoftReset+0x16>
    8f5a:	da db       	rcall	.-2124   	; 0x8710 <TriggerCommon+0x90>
    8f5c:	dc dd       	rcall	.-1096   	; 0x8b16 <ProcessMusic+0x284>
    8f5e:	de df       	rcall	.-68     	; 0x8f1c <waves+0x11c>
    8f60:	e0 e1       	ldi	r30, 0x10	; 16
    8f62:	e2 e3       	ldi	r30, 0x32	; 50
    8f64:	e4 e5       	ldi	r30, 0x54	; 84
    8f66:	e6 e7       	ldi	r30, 0x76	; 118
    8f68:	e8 e9       	ldi	r30, 0x98	; 152
    8f6a:	ea eb       	ldi	r30, 0xBA	; 186
    8f6c:	ec ed       	ldi	r30, 0xDC	; 220
    8f6e:	ee ef       	ldi	r30, 0xFE	; 254
    8f70:	f0 f1       	brcs	.+124    	; 0x8fee <waves+0x1ee>
    8f72:	f2 f3       	brmi	.-4      	; 0x8f70 <waves+0x170>
    8f74:	f4 f5       	brge	.+124    	; 0x8ff2 <waves+0x1f2>
    8f76:	f6 f7       	brtc	.-4      	; 0x8f74 <waves+0x174>
    8f78:	f8 f9       	.word	0xf9f8	; ????
    8f7a:	fa fb       	.word	0xfbfa	; ????
    8f7c:	fc fd       	.word	0xfdfc	; ????
    8f7e:	fe ff       	.word	0xfffe	; ????
    8f80:	00 01       	movw	r0, r0
    8f82:	02 03       	mulsu	r16, r18
    8f84:	04 05       	cpc	r16, r4
    8f86:	06 07       	cpc	r16, r22
    8f88:	08 09       	sbc	r16, r8
    8f8a:	0a 0b       	sbc	r16, r26
    8f8c:	0c 0d       	add	r16, r12
    8f8e:	0e 0f       	add	r16, r30
    8f90:	10 11       	cpse	r17, r0
    8f92:	12 13       	cpse	r17, r18
    8f94:	14 15       	cp	r17, r4
    8f96:	16 17       	cp	r17, r22
    8f98:	18 19       	sub	r17, r8
    8f9a:	1a 1b       	sub	r17, r26
    8f9c:	1c 1d       	adc	r17, r12
    8f9e:	1e 1f       	adc	r17, r30
    8fa0:	20 21       	and	r18, r0
    8fa2:	22 23       	and	r18, r18
    8fa4:	24 25       	eor	r18, r4
    8fa6:	26 27       	eor	r18, r22
    8fa8:	28 29       	or	r18, r8
    8faa:	2a 2b       	or	r18, r26
    8fac:	2c 2d       	mov	r18, r12
    8fae:	2e 2f       	mov	r18, r30
    8fb0:	30 31       	cpi	r19, 0x10	; 16
    8fb2:	32 33       	cpi	r19, 0x32	; 50
    8fb4:	34 35       	cpi	r19, 0x54	; 84
    8fb6:	36 37       	cpi	r19, 0x76	; 118
    8fb8:	38 39       	cpi	r19, 0x98	; 152
    8fba:	3a 3b       	cpi	r19, 0xBA	; 186
    8fbc:	3c 3d       	cpi	r19, 0xDC	; 220
    8fbe:	3e 3f       	cpi	r19, 0xFE	; 254
    8fc0:	40 41       	sbci	r20, 0x10	; 16
    8fc2:	42 43       	sbci	r20, 0x32	; 50
    8fc4:	44 45       	sbci	r20, 0x54	; 84
    8fc6:	46 47       	sbci	r20, 0x76	; 118
    8fc8:	48 49       	sbci	r20, 0x98	; 152
    8fca:	4a 4b       	sbci	r20, 0xBA	; 186
    8fcc:	4c 4d       	sbci	r20, 0xDC	; 220
    8fce:	4e 4f       	sbci	r20, 0xFE	; 254
    8fd0:	50 51       	subi	r21, 0x10	; 16
    8fd2:	52 53       	subi	r21, 0x32	; 50
    8fd4:	54 55       	subi	r21, 0x54	; 84
    8fd6:	56 57       	subi	r21, 0x76	; 118
    8fd8:	58 59       	subi	r21, 0x98	; 152
    8fda:	5a 5b       	subi	r21, 0xBA	; 186
    8fdc:	5c 5d       	subi	r21, 0xDC	; 220
    8fde:	5e 5f       	subi	r21, 0xFE	; 254
    8fe0:	60 61       	ori	r22, 0x10	; 16
    8fe2:	62 63       	ori	r22, 0x32	; 50
    8fe4:	64 65       	ori	r22, 0x54	; 84
    8fe6:	66 67       	ori	r22, 0x76	; 118
    8fe8:	68 69       	ori	r22, 0x98	; 152
    8fea:	6a 6b       	ori	r22, 0xBA	; 186
    8fec:	6c 6d       	ori	r22, 0xDC	; 220
    8fee:	6e 6f       	ori	r22, 0xFE	; 254
    8ff0:	70 71       	andi	r23, 0x10	; 16
    8ff2:	72 73       	andi	r23, 0x32	; 50
    8ff4:	74 75       	andi	r23, 0x54	; 84
    8ff6:	76 77       	andi	r23, 0x76	; 118
    8ff8:	78 79       	andi	r23, 0x98	; 152
    8ffa:	7a 7b       	andi	r23, 0xBA	; 186
    8ffc:	7c 7d       	andi	r23, 0xDC	; 220
    8ffe:	7e 7f       	andi	r23, 0xFE	; 254
    9000:	00 02       	muls	r16, r16
    9002:	04 06       	cpc	r0, r20
    9004:	08 0a       	sbc	r0, r24
    9006:	0c 0e       	add	r0, r28
    9008:	10 12       	cpse	r1, r16
    900a:	14 16       	cp	r1, r20
    900c:	18 1a       	sub	r1, r24
    900e:	1c 1e       	adc	r1, r28
    9010:	20 22       	and	r2, r16
    9012:	24 26       	eor	r2, r20
    9014:	28 2a       	or	r2, r24
    9016:	2c 2e       	mov	r2, r28
    9018:	30 32       	cpi	r19, 0x20	; 32
    901a:	34 36       	cpi	r19, 0x64	; 100
    901c:	38 3a       	cpi	r19, 0xA8	; 168
    901e:	3c 3e       	cpi	r19, 0xEC	; 236
    9020:	40 42       	sbci	r20, 0x20	; 32
    9022:	44 46       	sbci	r20, 0x64	; 100
    9024:	48 4a       	sbci	r20, 0xA8	; 168
    9026:	4c 4e       	sbci	r20, 0xEC	; 236
    9028:	50 52       	subi	r21, 0x20	; 32
    902a:	54 56       	subi	r21, 0x64	; 100
    902c:	58 5a       	subi	r21, 0xA8	; 168
    902e:	5c 5e       	subi	r21, 0xEC	; 236
    9030:	60 62       	ori	r22, 0x20	; 32
    9032:	64 66       	ori	r22, 0x64	; 100
    9034:	68 6a       	ori	r22, 0xA8	; 168
    9036:	6c 6e       	ori	r22, 0xEC	; 236
    9038:	70 72       	andi	r23, 0x20	; 32
    903a:	74 76       	andi	r23, 0x64	; 100
    903c:	78 7a       	andi	r23, 0xA8	; 168
    903e:	7c 7e       	andi	r23, 0xEC	; 236
    9040:	7f 7d       	andi	r23, 0xDF	; 223
    9042:	7b 79       	andi	r23, 0x9B	; 155
    9044:	77 75       	andi	r23, 0x57	; 87
    9046:	73 71       	andi	r23, 0x13	; 19
    9048:	6f 6d       	ori	r22, 0xDF	; 223
    904a:	6b 69       	ori	r22, 0x9B	; 155
    904c:	67 65       	ori	r22, 0x57	; 87
    904e:	63 61       	ori	r22, 0x13	; 19
    9050:	5f 5d       	subi	r21, 0xDF	; 223
    9052:	5b 59       	subi	r21, 0x9B	; 155
    9054:	57 55       	subi	r21, 0x57	; 87
    9056:	53 51       	subi	r21, 0x13	; 19
    9058:	4f 4d       	sbci	r20, 0xDF	; 223
    905a:	4b 49       	sbci	r20, 0x9B	; 155
    905c:	47 45       	sbci	r20, 0x57	; 87
    905e:	43 41       	sbci	r20, 0x13	; 19
    9060:	3f 3d       	cpi	r19, 0xDF	; 223
    9062:	3b 39       	cpi	r19, 0x9B	; 155
    9064:	37 35       	cpi	r19, 0x57	; 87
    9066:	33 31       	cpi	r19, 0x13	; 19
    9068:	2f 2d       	mov	r18, r15
    906a:	2b 29       	or	r18, r11
    906c:	27 25       	eor	r18, r7
    906e:	23 21       	and	r18, r3
    9070:	1f 1d       	adc	r17, r15
    9072:	1b 19       	sub	r17, r11
    9074:	17 15       	cp	r17, r7
    9076:	13 11       	cpse	r17, r3
    9078:	0f 0d       	add	r16, r15
    907a:	0b 09       	sbc	r16, r11
    907c:	07 05       	cpc	r16, r7
    907e:	03 01       	movw	r0, r6
    9080:	ff fd       	.word	0xfdff	; ????
    9082:	fb f9       	.word	0xf9fb	; ????
    9084:	f7 f5       	brid	.+124    	; 0x9102 <waves+0x302>
    9086:	f3 f1       	brvs	.+124    	; 0x9104 <waves+0x304>
    9088:	ef ed       	ldi	r30, 0xDF	; 223
    908a:	eb e9       	ldi	r30, 0x9B	; 155
    908c:	e7 e5       	ldi	r30, 0x57	; 87
    908e:	e3 e1       	ldi	r30, 0x13	; 19
    9090:	df dd       	rcall	.-1090   	; 0x8c50 <set_note_waves+0x2>
    9092:	db d9       	rcall	.-3146   	; 0x844a <PatchCommand01+0xa>
    9094:	d7 d5       	rcall	.+2990   	; 0x9c44 <DisplayLogo+0x14>
    9096:	d3 d1       	rcall	.+934    	; 0x943e <waves+0x63e>
    9098:	cf cd       	rjmp	.-1122   	; 0x8c38 <ProcessMusic+0x3a6>
    909a:	cb c9       	rjmp	.-3178   	; 0x8432 <isEepromFormatted+0x26>
    909c:	c7 c5       	rjmp	.+2958   	; 0x9c2c <WaitVsync+0x2a>
    909e:	c3 c1       	rjmp	.+902    	; 0x9426 <waves+0x626>
    90a0:	bf bd       	out	0x2f, r27	; 47
    90a2:	bb b9       	out	0x0b, r27	; 11
    90a4:	b7 b5       	in	r27, 0x27	; 39
    90a6:	b3 b1       	in	r27, 0x03	; 3
    90a8:	af ad       	ldd	r26, Y+63	; 0x3f
    90aa:	ab a9       	ldd	r26, Y+51	; 0x33
    90ac:	a7 a5       	ldd	r26, Z+47	; 0x2f
    90ae:	a3 a1       	ldd	r26, Z+35	; 0x23
    90b0:	9f 9d       	mul	r25, r15
    90b2:	9b 99       	sbic	0x13, 3	; 19
    90b4:	97 95       	ror	r25
    90b6:	93 91       	.word	0x9193	; ????
    90b8:	8f 8d       	ldd	r24, Y+31	; 0x1f
    90ba:	8b 89       	ldd	r24, Y+19	; 0x13
    90bc:	87 85       	ldd	r24, Z+15	; 0x0f
    90be:	83 81       	ldd	r24, Z+3	; 0x03
    90c0:	80 82       	st	Z, r8
    90c2:	84 86       	std	Z+12, r8	; 0x0c
    90c4:	88 8a       	std	Y+16, r8	; 0x10
    90c6:	8c 8e       	std	Y+28, r8	; 0x1c
    90c8:	90 92 94 96 	sts	0x9694, r9	; 0x809694 <_end+0x8794>
    90cc:	98 9a       	sbi	0x13, 0	; 19
    90ce:	9c 9e       	mul	r9, r28
    90d0:	a0 a2       	std	Z+32, r10	; 0x20
    90d2:	a4 a6       	std	Z+44, r10	; 0x2c
    90d4:	a8 aa       	std	Y+48, r10	; 0x30
    90d6:	ac ae       	std	Y+60, r10	; 0x3c
    90d8:	b0 b2       	in	r11, 0x10	; 16
    90da:	b4 b6       	in	r11, 0x34	; 52
    90dc:	b8 ba       	out	0x18, r11	; 24
    90de:	bc be       	out	0x3c, r11	; 60
    90e0:	c0 c2       	rjmp	.+1408   	; 0x9662 <waves+0x862>
    90e2:	c4 c6       	rjmp	.+3464   	; 0x9e6c <drawplayer+0x108>
    90e4:	c8 ca       	rjmp	.-2672   	; 0x8676 <ReadVarLen+0x42>
    90e6:	cc ce       	rjmp	.-616    	; 0x8e80 <waves+0x80>
    90e8:	d0 d2       	rcall	.+1440   	; 0x968a <waves+0x88a>
    90ea:	d4 d6       	rcall	.+3496   	; 0x9e94 <drawplayer2+0x4>
    90ec:	d8 da       	rcall	.-2640   	; 0x869e <TriggerCommon+0x1e>
    90ee:	dc de       	rcall	.-584    	; 0x8ea8 <waves+0xa8>
    90f0:	e0 e2       	ldi	r30, 0x20	; 32
    90f2:	e4 e6       	ldi	r30, 0x64	; 100
    90f4:	e8 ea       	ldi	r30, 0xA8	; 168
    90f6:	ec ee       	ldi	r30, 0xEC	; 236
    90f8:	f0 f2       	brcs	.-68     	; 0x90b6 <waves+0x2b6>
    90fa:	f4 f6       	brge	.-68     	; 0x90b8 <waves+0x2b8>
    90fc:	f8 fa       	.word	0xfaf8	; ????
    90fe:	fc fe       	.word	0xfefc	; ????
    9100:	7f 7f       	andi	r23, 0xFF	; 255
    9102:	7f 7f       	andi	r23, 0xFF	; 255
    9104:	7f 7f       	andi	r23, 0xFF	; 255
    9106:	7f 7f       	andi	r23, 0xFF	; 255
    9108:	7f 7f       	andi	r23, 0xFF	; 255
    910a:	7f 7f       	andi	r23, 0xFF	; 255
    910c:	7f 7f       	andi	r23, 0xFF	; 255
    910e:	7f 7f       	andi	r23, 0xFF	; 255
    9110:	7f 7f       	andi	r23, 0xFF	; 255
    9112:	7f 7f       	andi	r23, 0xFF	; 255
    9114:	7f 7f       	andi	r23, 0xFF	; 255
    9116:	7f 7f       	andi	r23, 0xFF	; 255
    9118:	7f 7f       	andi	r23, 0xFF	; 255
    911a:	7f 7f       	andi	r23, 0xFF	; 255
    911c:	7f 7f       	andi	r23, 0xFF	; 255
    911e:	7f 7f       	andi	r23, 0xFF	; 255
    9120:	7f 7f       	andi	r23, 0xFF	; 255
    9122:	7f 7f       	andi	r23, 0xFF	; 255
    9124:	7f 7f       	andi	r23, 0xFF	; 255
    9126:	7f 7f       	andi	r23, 0xFF	; 255
    9128:	7f 7f       	andi	r23, 0xFF	; 255
    912a:	7f 7f       	andi	r23, 0xFF	; 255
    912c:	7f 7f       	andi	r23, 0xFF	; 255
    912e:	7f 7f       	andi	r23, 0xFF	; 255
    9130:	7f 7f       	andi	r23, 0xFF	; 255
    9132:	7f 7f       	andi	r23, 0xFF	; 255
    9134:	7f 7f       	andi	r23, 0xFF	; 255
    9136:	7f 7f       	andi	r23, 0xFF	; 255
    9138:	7f 7f       	andi	r23, 0xFF	; 255
    913a:	7f 7f       	andi	r23, 0xFF	; 255
    913c:	7f 7f       	andi	r23, 0xFF	; 255
    913e:	7f 7f       	andi	r23, 0xFF	; 255
    9140:	80 80       	ld	r8, Z
    9142:	80 80       	ld	r8, Z
    9144:	80 80       	ld	r8, Z
    9146:	80 80       	ld	r8, Z
    9148:	80 80       	ld	r8, Z
    914a:	80 80       	ld	r8, Z
    914c:	80 80       	ld	r8, Z
    914e:	80 80       	ld	r8, Z
    9150:	80 80       	ld	r8, Z
    9152:	80 80       	ld	r8, Z
    9154:	80 80       	ld	r8, Z
    9156:	80 80       	ld	r8, Z
    9158:	80 80       	ld	r8, Z
    915a:	80 80       	ld	r8, Z
    915c:	80 80       	ld	r8, Z
    915e:	80 80       	ld	r8, Z
    9160:	80 80       	ld	r8, Z
    9162:	80 80       	ld	r8, Z
    9164:	80 80       	ld	r8, Z
    9166:	80 80       	ld	r8, Z
    9168:	80 80       	ld	r8, Z
    916a:	80 80       	ld	r8, Z
    916c:	80 80       	ld	r8, Z
    916e:	80 80       	ld	r8, Z
    9170:	80 80       	ld	r8, Z
    9172:	80 80       	ld	r8, Z
    9174:	80 80       	ld	r8, Z
    9176:	80 80       	ld	r8, Z
    9178:	80 80       	ld	r8, Z
    917a:	80 80       	ld	r8, Z
    917c:	80 80       	ld	r8, Z
    917e:	80 80       	ld	r8, Z
    9180:	80 80       	ld	r8, Z
    9182:	80 80       	ld	r8, Z
    9184:	80 80       	ld	r8, Z
    9186:	80 80       	ld	r8, Z
    9188:	80 80       	ld	r8, Z
    918a:	80 80       	ld	r8, Z
    918c:	80 80       	ld	r8, Z
    918e:	80 80       	ld	r8, Z
    9190:	80 80       	ld	r8, Z
    9192:	80 80       	ld	r8, Z
    9194:	80 80       	ld	r8, Z
    9196:	80 80       	ld	r8, Z
    9198:	80 80       	ld	r8, Z
    919a:	80 80       	ld	r8, Z
    919c:	80 80       	ld	r8, Z
    919e:	80 80       	ld	r8, Z
    91a0:	80 80       	ld	r8, Z
    91a2:	80 80       	ld	r8, Z
    91a4:	80 80       	ld	r8, Z
    91a6:	80 80       	ld	r8, Z
    91a8:	80 80       	ld	r8, Z
    91aa:	80 80       	ld	r8, Z
    91ac:	80 80       	ld	r8, Z
    91ae:	80 80       	ld	r8, Z
    91b0:	80 80       	ld	r8, Z
    91b2:	80 80       	ld	r8, Z
    91b4:	80 80       	ld	r8, Z
    91b6:	80 80       	ld	r8, Z
    91b8:	80 80       	ld	r8, Z
    91ba:	80 80       	ld	r8, Z
    91bc:	80 80       	ld	r8, Z
    91be:	80 80       	ld	r8, Z
    91c0:	80 80       	ld	r8, Z
    91c2:	80 80       	ld	r8, Z
    91c4:	80 80       	ld	r8, Z
    91c6:	80 80       	ld	r8, Z
    91c8:	80 80       	ld	r8, Z
    91ca:	80 80       	ld	r8, Z
    91cc:	80 80       	ld	r8, Z
    91ce:	80 80       	ld	r8, Z
    91d0:	80 80       	ld	r8, Z
    91d2:	80 80       	ld	r8, Z
    91d4:	80 80       	ld	r8, Z
    91d6:	80 80       	ld	r8, Z
    91d8:	80 80       	ld	r8, Z
    91da:	80 80       	ld	r8, Z
    91dc:	80 80       	ld	r8, Z
    91de:	80 80       	ld	r8, Z
    91e0:	80 80       	ld	r8, Z
    91e2:	80 80       	ld	r8, Z
    91e4:	80 80       	ld	r8, Z
    91e6:	80 80       	ld	r8, Z
    91e8:	80 80       	ld	r8, Z
    91ea:	80 80       	ld	r8, Z
    91ec:	80 80       	ld	r8, Z
    91ee:	80 80       	ld	r8, Z
    91f0:	80 80       	ld	r8, Z
    91f2:	80 80       	ld	r8, Z
    91f4:	80 80       	ld	r8, Z
    91f6:	80 80       	ld	r8, Z
    91f8:	80 80       	ld	r8, Z
    91fa:	80 80       	ld	r8, Z
    91fc:	80 80       	ld	r8, Z
    91fe:	80 80       	ld	r8, Z
    9200:	7f 7f       	andi	r23, 0xFF	; 255
    9202:	7f 7f       	andi	r23, 0xFF	; 255
    9204:	7f 7f       	andi	r23, 0xFF	; 255
    9206:	7f 7f       	andi	r23, 0xFF	; 255
    9208:	7f 7f       	andi	r23, 0xFF	; 255
    920a:	7f 7f       	andi	r23, 0xFF	; 255
    920c:	7f 7f       	andi	r23, 0xFF	; 255
    920e:	7f 7f       	andi	r23, 0xFF	; 255
    9210:	7f 7f       	andi	r23, 0xFF	; 255
    9212:	7f 7f       	andi	r23, 0xFF	; 255
    9214:	7f 7f       	andi	r23, 0xFF	; 255
    9216:	7f 7f       	andi	r23, 0xFF	; 255
    9218:	7f 7f       	andi	r23, 0xFF	; 255
    921a:	7f 7f       	andi	r23, 0xFF	; 255
    921c:	7f 7f       	andi	r23, 0xFF	; 255
    921e:	7f 7f       	andi	r23, 0xFF	; 255
    9220:	7f 7f       	andi	r23, 0xFF	; 255
    9222:	7f 7f       	andi	r23, 0xFF	; 255
    9224:	7f 7f       	andi	r23, 0xFF	; 255
    9226:	7f 7f       	andi	r23, 0xFF	; 255
    9228:	7f 7f       	andi	r23, 0xFF	; 255
    922a:	7f 7f       	andi	r23, 0xFF	; 255
    922c:	7f 7f       	andi	r23, 0xFF	; 255
    922e:	7f 7f       	andi	r23, 0xFF	; 255
    9230:	7f 7f       	andi	r23, 0xFF	; 255
    9232:	7f 7f       	andi	r23, 0xFF	; 255
    9234:	7f 7f       	andi	r23, 0xFF	; 255
    9236:	7f 7f       	andi	r23, 0xFF	; 255
    9238:	7f 7f       	andi	r23, 0xFF	; 255
    923a:	7f 7f       	andi	r23, 0xFF	; 255
    923c:	7f 7f       	andi	r23, 0xFF	; 255
    923e:	7f 7f       	andi	r23, 0xFF	; 255
    9240:	7f 7f       	andi	r23, 0xFF	; 255
    9242:	7f 7f       	andi	r23, 0xFF	; 255
    9244:	7f 7f       	andi	r23, 0xFF	; 255
    9246:	7f 7f       	andi	r23, 0xFF	; 255
    9248:	7f 7f       	andi	r23, 0xFF	; 255
    924a:	7f 7f       	andi	r23, 0xFF	; 255
    924c:	7f 7f       	andi	r23, 0xFF	; 255
    924e:	7f 7f       	andi	r23, 0xFF	; 255
    9250:	7f 7f       	andi	r23, 0xFF	; 255
    9252:	7f 7f       	andi	r23, 0xFF	; 255
    9254:	7f 7f       	andi	r23, 0xFF	; 255
    9256:	7f 7f       	andi	r23, 0xFF	; 255
    9258:	7f 7f       	andi	r23, 0xFF	; 255
    925a:	7f 7f       	andi	r23, 0xFF	; 255
    925c:	7f 7f       	andi	r23, 0xFF	; 255
    925e:	7f 7f       	andi	r23, 0xFF	; 255
    9260:	7f 7f       	andi	r23, 0xFF	; 255
    9262:	7f 7f       	andi	r23, 0xFF	; 255
    9264:	7f 7f       	andi	r23, 0xFF	; 255
    9266:	7f 7f       	andi	r23, 0xFF	; 255
    9268:	7f 7f       	andi	r23, 0xFF	; 255
    926a:	7f 7f       	andi	r23, 0xFF	; 255
    926c:	7f 7f       	andi	r23, 0xFF	; 255
    926e:	7f 7f       	andi	r23, 0xFF	; 255
    9270:	7f 7f       	andi	r23, 0xFF	; 255
    9272:	7f 7f       	andi	r23, 0xFF	; 255
    9274:	7f 7f       	andi	r23, 0xFF	; 255
    9276:	7f 7f       	andi	r23, 0xFF	; 255
    9278:	7f 7f       	andi	r23, 0xFF	; 255
    927a:	7f 7f       	andi	r23, 0xFF	; 255
    927c:	7f 7f       	andi	r23, 0xFF	; 255
    927e:	7f 7f       	andi	r23, 0xFF	; 255
    9280:	80 80       	ld	r8, Z
    9282:	80 80       	ld	r8, Z
    9284:	80 80       	ld	r8, Z
    9286:	80 80       	ld	r8, Z
    9288:	80 80       	ld	r8, Z
    928a:	80 80       	ld	r8, Z
    928c:	80 80       	ld	r8, Z
    928e:	80 80       	ld	r8, Z
    9290:	80 80       	ld	r8, Z
    9292:	80 80       	ld	r8, Z
    9294:	80 80       	ld	r8, Z
    9296:	80 80       	ld	r8, Z
    9298:	80 80       	ld	r8, Z
    929a:	80 80       	ld	r8, Z
    929c:	80 80       	ld	r8, Z
    929e:	80 80       	ld	r8, Z
    92a0:	80 80       	ld	r8, Z
    92a2:	80 80       	ld	r8, Z
    92a4:	80 80       	ld	r8, Z
    92a6:	80 80       	ld	r8, Z
    92a8:	80 80       	ld	r8, Z
    92aa:	80 80       	ld	r8, Z
    92ac:	80 80       	ld	r8, Z
    92ae:	80 80       	ld	r8, Z
    92b0:	80 80       	ld	r8, Z
    92b2:	80 80       	ld	r8, Z
    92b4:	80 80       	ld	r8, Z
    92b6:	80 80       	ld	r8, Z
    92b8:	80 80       	ld	r8, Z
    92ba:	80 80       	ld	r8, Z
    92bc:	80 80       	ld	r8, Z
    92be:	80 80       	ld	r8, Z
    92c0:	80 80       	ld	r8, Z
    92c2:	80 80       	ld	r8, Z
    92c4:	80 80       	ld	r8, Z
    92c6:	80 80       	ld	r8, Z
    92c8:	80 80       	ld	r8, Z
    92ca:	80 80       	ld	r8, Z
    92cc:	80 80       	ld	r8, Z
    92ce:	80 80       	ld	r8, Z
    92d0:	80 80       	ld	r8, Z
    92d2:	80 80       	ld	r8, Z
    92d4:	80 80       	ld	r8, Z
    92d6:	80 80       	ld	r8, Z
    92d8:	80 80       	ld	r8, Z
    92da:	80 80       	ld	r8, Z
    92dc:	80 80       	ld	r8, Z
    92de:	80 80       	ld	r8, Z
    92e0:	80 80       	ld	r8, Z
    92e2:	80 80       	ld	r8, Z
    92e4:	80 80       	ld	r8, Z
    92e6:	80 80       	ld	r8, Z
    92e8:	80 80       	ld	r8, Z
    92ea:	80 80       	ld	r8, Z
    92ec:	80 80       	ld	r8, Z
    92ee:	80 80       	ld	r8, Z
    92f0:	80 80       	ld	r8, Z
    92f2:	80 80       	ld	r8, Z
    92f4:	80 80       	ld	r8, Z
    92f6:	80 80       	ld	r8, Z
    92f8:	80 80       	ld	r8, Z
    92fa:	80 80       	ld	r8, Z
    92fc:	80 80       	ld	r8, Z
    92fe:	80 80       	ld	r8, Z
    9300:	7f 7f       	andi	r23, 0xFF	; 255
    9302:	7f 7f       	andi	r23, 0xFF	; 255
    9304:	7f 7f       	andi	r23, 0xFF	; 255
    9306:	7f 7f       	andi	r23, 0xFF	; 255
    9308:	7f 7f       	andi	r23, 0xFF	; 255
    930a:	7f 7f       	andi	r23, 0xFF	; 255
    930c:	7f 7f       	andi	r23, 0xFF	; 255
    930e:	7f 7f       	andi	r23, 0xFF	; 255
    9310:	7f 7f       	andi	r23, 0xFF	; 255
    9312:	7f 7f       	andi	r23, 0xFF	; 255
    9314:	7f 7f       	andi	r23, 0xFF	; 255
    9316:	7f 7f       	andi	r23, 0xFF	; 255
    9318:	7f 7f       	andi	r23, 0xFF	; 255
    931a:	7f 7f       	andi	r23, 0xFF	; 255
    931c:	7f 7f       	andi	r23, 0xFF	; 255
    931e:	7f 7f       	andi	r23, 0xFF	; 255
    9320:	7f 7f       	andi	r23, 0xFF	; 255
    9322:	7f 7f       	andi	r23, 0xFF	; 255
    9324:	7f 7f       	andi	r23, 0xFF	; 255
    9326:	7f 7f       	andi	r23, 0xFF	; 255
    9328:	7f 7f       	andi	r23, 0xFF	; 255
    932a:	7f 7f       	andi	r23, 0xFF	; 255
    932c:	7f 7f       	andi	r23, 0xFF	; 255
    932e:	7f 7f       	andi	r23, 0xFF	; 255
    9330:	7f 7f       	andi	r23, 0xFF	; 255
    9332:	7f 7f       	andi	r23, 0xFF	; 255
    9334:	7f 7f       	andi	r23, 0xFF	; 255
    9336:	7f 7f       	andi	r23, 0xFF	; 255
    9338:	7f 7f       	andi	r23, 0xFF	; 255
    933a:	7f 7f       	andi	r23, 0xFF	; 255
    933c:	7f 7f       	andi	r23, 0xFF	; 255
    933e:	7f 7f       	andi	r23, 0xFF	; 255
    9340:	7f 7f       	andi	r23, 0xFF	; 255
    9342:	7f 7f       	andi	r23, 0xFF	; 255
    9344:	7f 7f       	andi	r23, 0xFF	; 255
    9346:	7f 7f       	andi	r23, 0xFF	; 255
    9348:	7f 7f       	andi	r23, 0xFF	; 255
    934a:	7f 7f       	andi	r23, 0xFF	; 255
    934c:	7f 7f       	andi	r23, 0xFF	; 255
    934e:	7f 7f       	andi	r23, 0xFF	; 255
    9350:	7f 7f       	andi	r23, 0xFF	; 255
    9352:	7f 7f       	andi	r23, 0xFF	; 255
    9354:	7f 7f       	andi	r23, 0xFF	; 255
    9356:	7f 7f       	andi	r23, 0xFF	; 255
    9358:	7f 7f       	andi	r23, 0xFF	; 255
    935a:	7f 7f       	andi	r23, 0xFF	; 255
    935c:	7f 7f       	andi	r23, 0xFF	; 255
    935e:	7f 7f       	andi	r23, 0xFF	; 255
    9360:	7f 7f       	andi	r23, 0xFF	; 255
    9362:	7f 7f       	andi	r23, 0xFF	; 255
    9364:	7f 7f       	andi	r23, 0xFF	; 255
    9366:	7f 7f       	andi	r23, 0xFF	; 255
    9368:	7f 7f       	andi	r23, 0xFF	; 255
    936a:	7f 7f       	andi	r23, 0xFF	; 255
    936c:	7f 7f       	andi	r23, 0xFF	; 255
    936e:	7f 7f       	andi	r23, 0xFF	; 255
    9370:	7f 7f       	andi	r23, 0xFF	; 255
    9372:	7f 7f       	andi	r23, 0xFF	; 255
    9374:	7f 7f       	andi	r23, 0xFF	; 255
    9376:	7f 7f       	andi	r23, 0xFF	; 255
    9378:	7f 7f       	andi	r23, 0xFF	; 255
    937a:	7f 7f       	andi	r23, 0xFF	; 255
    937c:	7f 7f       	andi	r23, 0xFF	; 255
    937e:	7f 7f       	andi	r23, 0xFF	; 255
    9380:	7f 7f       	andi	r23, 0xFF	; 255
    9382:	7f 7f       	andi	r23, 0xFF	; 255
    9384:	7f 7f       	andi	r23, 0xFF	; 255
    9386:	7f 7f       	andi	r23, 0xFF	; 255
    9388:	7f 7f       	andi	r23, 0xFF	; 255
    938a:	7f 7f       	andi	r23, 0xFF	; 255
    938c:	7f 7f       	andi	r23, 0xFF	; 255
    938e:	7f 7f       	andi	r23, 0xFF	; 255
    9390:	7f 7f       	andi	r23, 0xFF	; 255
    9392:	7f 7f       	andi	r23, 0xFF	; 255
    9394:	7f 7f       	andi	r23, 0xFF	; 255
    9396:	7f 7f       	andi	r23, 0xFF	; 255
    9398:	7f 7f       	andi	r23, 0xFF	; 255
    939a:	7f 7f       	andi	r23, 0xFF	; 255
    939c:	7f 7f       	andi	r23, 0xFF	; 255
    939e:	7f 7f       	andi	r23, 0xFF	; 255
    93a0:	7f 7f       	andi	r23, 0xFF	; 255
    93a2:	7f 7f       	andi	r23, 0xFF	; 255
    93a4:	7f 7f       	andi	r23, 0xFF	; 255
    93a6:	7f 7f       	andi	r23, 0xFF	; 255
    93a8:	7f 7f       	andi	r23, 0xFF	; 255
    93aa:	7f 7f       	andi	r23, 0xFF	; 255
    93ac:	7f 7f       	andi	r23, 0xFF	; 255
    93ae:	7f 7f       	andi	r23, 0xFF	; 255
    93b0:	7f 7f       	andi	r23, 0xFF	; 255
    93b2:	7f 7f       	andi	r23, 0xFF	; 255
    93b4:	7f 7f       	andi	r23, 0xFF	; 255
    93b6:	7f 7f       	andi	r23, 0xFF	; 255
    93b8:	7f 7f       	andi	r23, 0xFF	; 255
    93ba:	7f 7f       	andi	r23, 0xFF	; 255
    93bc:	7f 7f       	andi	r23, 0xFF	; 255
    93be:	7f 7f       	andi	r23, 0xFF	; 255
    93c0:	80 80       	ld	r8, Z
    93c2:	80 80       	ld	r8, Z
    93c4:	80 80       	ld	r8, Z
    93c6:	80 80       	ld	r8, Z
    93c8:	80 80       	ld	r8, Z
    93ca:	80 80       	ld	r8, Z
    93cc:	80 80       	ld	r8, Z
    93ce:	80 80       	ld	r8, Z
    93d0:	80 80       	ld	r8, Z
    93d2:	80 80       	ld	r8, Z
    93d4:	80 80       	ld	r8, Z
    93d6:	80 80       	ld	r8, Z
    93d8:	80 80       	ld	r8, Z
    93da:	80 80       	ld	r8, Z
    93dc:	80 80       	ld	r8, Z
    93de:	80 80       	ld	r8, Z
    93e0:	80 80       	ld	r8, Z
    93e2:	80 80       	ld	r8, Z
    93e4:	80 80       	ld	r8, Z
    93e6:	80 80       	ld	r8, Z
    93e8:	80 80       	ld	r8, Z
    93ea:	80 80       	ld	r8, Z
    93ec:	80 80       	ld	r8, Z
    93ee:	80 80       	ld	r8, Z
    93f0:	80 80       	ld	r8, Z
    93f2:	80 80       	ld	r8, Z
    93f4:	80 80       	ld	r8, Z
    93f6:	80 80       	ld	r8, Z
    93f8:	80 80       	ld	r8, Z
    93fa:	80 80       	ld	r8, Z
    93fc:	80 80       	ld	r8, Z
    93fe:	80 80       	ld	r8, Z
    9400:	03 09       	sbc	r16, r3
    9402:	13 1e       	adc	r1, r19
    9404:	28 31       	cpi	r18, 0x18	; 24
    9406:	3a 40       	sbci	r19, 0x0A	; 10
    9408:	46 4c       	sbci	r20, 0xC6	; 198
    940a:	50 54       	subi	r21, 0x40	; 64
    940c:	58 5b       	subi	r21, 0xB8	; 184
    940e:	5e 61       	ori	r21, 0x1E	; 30
    9410:	63 65       	ori	r22, 0x53	; 83
    9412:	67 69       	ori	r22, 0x97	; 151
    9414:	6b 6c       	ori	r22, 0xCB	; 203
    9416:	6e 6f       	ori	r22, 0xFE	; 254
    9418:	70 71       	andi	r23, 0x10	; 16
    941a:	72 73       	andi	r23, 0x32	; 50
    941c:	74 75       	andi	r23, 0x54	; 84
    941e:	76 77       	andi	r23, 0x76	; 118
    9420:	77 78       	andi	r23, 0x87	; 135
    9422:	79 79       	andi	r23, 0x99	; 153
    9424:	7a 7a       	andi	r23, 0xAA	; 170
    9426:	7b 7b       	andi	r23, 0xBB	; 187
    9428:	7c 7c       	andi	r23, 0xCC	; 204
    942a:	7c 7d       	andi	r23, 0xDC	; 220
    942c:	7d 7d       	andi	r23, 0xDD	; 221
    942e:	7e 7e       	andi	r23, 0xEE	; 238
    9430:	7e 7e       	andi	r23, 0xEE	; 238
    9432:	7f 7f       	andi	r23, 0xFF	; 255
    9434:	7f 7f       	andi	r23, 0xFF	; 255
    9436:	7f 7f       	andi	r23, 0xFF	; 255
    9438:	7f 7f       	andi	r23, 0xFF	; 255
    943a:	7f 7f       	andi	r23, 0xFF	; 255
    943c:	7f 7f       	andi	r23, 0xFF	; 255
    943e:	7f 7f       	andi	r23, 0xFF	; 255
    9440:	7f 7f       	andi	r23, 0xFF	; 255
    9442:	7f 7f       	andi	r23, 0xFF	; 255
    9444:	7f 7f       	andi	r23, 0xFF	; 255
    9446:	7f 7f       	andi	r23, 0xFF	; 255
    9448:	7f 7f       	andi	r23, 0xFF	; 255
    944a:	7f 7f       	andi	r23, 0xFF	; 255
    944c:	7f 7e       	andi	r23, 0xEF	; 239
    944e:	7e 7e       	andi	r23, 0xEE	; 238
    9450:	7e 7d       	andi	r23, 0xDE	; 222
    9452:	7d 7d       	andi	r23, 0xDD	; 221
    9454:	7c 7c       	andi	r23, 0xCC	; 204
    9456:	7c 7b       	andi	r23, 0xBC	; 188
    9458:	7b 7a       	andi	r23, 0xAB	; 171
    945a:	7a 79       	andi	r23, 0x9A	; 154
    945c:	79 78       	andi	r23, 0x89	; 137
    945e:	77 77       	andi	r23, 0x77	; 119
    9460:	76 75       	andi	r23, 0x56	; 86
    9462:	74 73       	andi	r23, 0x34	; 52
    9464:	72 71       	andi	r23, 0x12	; 18
    9466:	70 6f       	ori	r23, 0xF0	; 240
    9468:	6e 6c       	ori	r22, 0xCE	; 206
    946a:	6b 69       	ori	r22, 0x9B	; 155
    946c:	67 65       	ori	r22, 0x57	; 87
    946e:	63 61       	ori	r22, 0x13	; 19
    9470:	5e 5b       	subi	r21, 0xBE	; 190
    9472:	58 54       	subi	r21, 0x48	; 72
    9474:	50 4c       	sbci	r21, 0xC0	; 192
    9476:	46 40       	sbci	r20, 0x06	; 6
    9478:	3a 31       	cpi	r19, 0x1A	; 26
    947a:	28 1e       	adc	r2, r24
    947c:	13 09       	sbc	r17, r3
    947e:	03 00       	.word	0x0003	; ????
    9480:	c6 cc       	rjmp	.-1652   	; 0x8e0e <waves+0xe>
    9482:	d5 db       	rcall	.-2134   	; 0x8c2e <ProcessMusic+0x39c>
    9484:	df e3       	ldi	r29, 0x3F	; 63
    9486:	e5 e7       	ldi	r30, 0x75	; 117
    9488:	e9 ea       	ldi	r30, 0xA9	; 169
    948a:	eb ec       	ldi	r30, 0xCB	; 203
    948c:	ed ee       	ldi	r30, 0xED	; 237
    948e:	ef ef       	ldi	r30, 0xFF	; 255
    9490:	f0 f0       	brcs	.+60     	; 0x94ce <waves+0x6ce>
    9492:	f0 f1       	brcs	.+124    	; 0x9510 <waves+0x710>
    9494:	f1 f1       	breq	.+124    	; 0x9512 <waves+0x712>
    9496:	f1 f2       	breq	.-68     	; 0x9454 <waves+0x654>
    9498:	f2 f2       	brmi	.-68     	; 0x9456 <waves+0x656>
    949a:	f2 f2       	brmi	.-68     	; 0x9458 <waves+0x658>
    949c:	f2 f2       	brmi	.-68     	; 0x945a <waves+0x65a>
    949e:	f2 f3       	brmi	.-4      	; 0x949c <waves+0x69c>
    94a0:	f3 f3       	brvs	.-4      	; 0x949e <waves+0x69e>
    94a2:	f3 f3       	brvs	.-4      	; 0x94a0 <waves+0x6a0>
    94a4:	f3 f3       	brvs	.-4      	; 0x94a2 <waves+0x6a2>
    94a6:	f3 f3       	brvs	.-4      	; 0x94a4 <waves+0x6a4>
    94a8:	f3 f3       	brvs	.-4      	; 0x94a6 <waves+0x6a6>
    94aa:	f3 f3       	brvs	.-4      	; 0x94a8 <waves+0x6a8>
    94ac:	f3 f3       	brvs	.-4      	; 0x94aa <waves+0x6aa>
    94ae:	f3 f3       	brvs	.-4      	; 0x94ac <waves+0x6ac>
    94b0:	f3 f3       	brvs	.-4      	; 0x94ae <waves+0x6ae>
    94b2:	f3 f3       	brvs	.-4      	; 0x94b0 <waves+0x6b0>
    94b4:	f3 f3       	brvs	.-4      	; 0x94b2 <waves+0x6b2>
    94b6:	f3 f3       	brvs	.-4      	; 0x94b4 <waves+0x6b4>
    94b8:	f3 f3       	brvs	.-4      	; 0x94b6 <waves+0x6b6>
    94ba:	f3 f3       	brvs	.-4      	; 0x94b8 <waves+0x6b8>
    94bc:	f3 f3       	brvs	.-4      	; 0x94ba <waves+0x6ba>
    94be:	f3 f3       	brvs	.-4      	; 0x94bc <waves+0x6bc>
    94c0:	f3 f3       	brvs	.-4      	; 0x94be <waves+0x6be>
    94c2:	f3 f3       	brvs	.-4      	; 0x94c0 <waves+0x6c0>
    94c4:	f3 f3       	brvs	.-4      	; 0x94c2 <waves+0x6c2>
    94c6:	f3 f3       	brvs	.-4      	; 0x94c4 <waves+0x6c4>
    94c8:	f3 f3       	brvs	.-4      	; 0x94c6 <waves+0x6c6>
    94ca:	f3 f3       	brvs	.-4      	; 0x94c8 <waves+0x6c8>
    94cc:	f3 f3       	brvs	.-4      	; 0x94ca <waves+0x6ca>
    94ce:	f3 f3       	brvs	.-4      	; 0x94cc <waves+0x6cc>
    94d0:	f3 f3       	brvs	.-4      	; 0x94ce <waves+0x6ce>
    94d2:	f3 f3       	brvs	.-4      	; 0x94d0 <waves+0x6d0>
    94d4:	f3 f3       	brvs	.-4      	; 0x94d2 <waves+0x6d2>
    94d6:	f3 f3       	brvs	.-4      	; 0x94d4 <waves+0x6d4>
    94d8:	f3 f3       	brvs	.-4      	; 0x94d6 <waves+0x6d6>
    94da:	f3 f3       	brvs	.-4      	; 0x94d8 <waves+0x6d8>
    94dc:	f3 f3       	brvs	.-4      	; 0x94da <waves+0x6da>
    94de:	f3 f3       	brvs	.-4      	; 0x94dc <waves+0x6dc>
    94e0:	f2 f2       	brmi	.-68     	; 0x949e <waves+0x69e>
    94e2:	f2 f2       	brmi	.-68     	; 0x94a0 <waves+0x6a0>
    94e4:	f2 f2       	brmi	.-68     	; 0x94a2 <waves+0x6a2>
    94e6:	f2 f2       	brmi	.-68     	; 0x94a4 <waves+0x6a4>
    94e8:	f1 f1       	breq	.+124    	; 0x9566 <waves+0x766>
    94ea:	f1 f1       	breq	.+124    	; 0x9568 <waves+0x768>
    94ec:	f0 f0       	brcs	.+60     	; 0x952a <waves+0x72a>
    94ee:	f0 ef       	ldi	r31, 0xF0	; 240
    94f0:	ef ee       	ldi	r30, 0xEF	; 239
    94f2:	ed ec       	ldi	r30, 0xCD	; 205
    94f4:	eb ea       	ldi	r30, 0xAB	; 171
    94f6:	e9 e7       	ldi	r30, 0x79	; 121
    94f8:	e5 e3       	ldi	r30, 0x35	; 53
    94fa:	df db       	rcall	.-2114   	; 0x8cba <steptable+0xe>
    94fc:	d5 cc       	rjmp	.-1622   	; 0x8ea8 <waves+0xa8>
    94fe:	c6 00       	.word	0x00c6	; ????
    9500:	00 28       	or	r0, r0
    9502:	3d 42       	sbci	r19, 0x2D	; 45
    9504:	30 2d       	mov	r19, r0
    9506:	2c 2b       	or	r18, r28
    9508:	2c 2d       	mov	r18, r12
    950a:	2e 2f       	mov	r18, r30
    950c:	30 32       	cpi	r19, 0x20	; 32
    950e:	33 35       	cpi	r19, 0x53	; 83
    9510:	37 39       	cpi	r19, 0x97	; 151
    9512:	3b 3d       	cpi	r19, 0xDB	; 219
    9514:	3f 41       	sbci	r19, 0x1F	; 31
    9516:	43 45       	sbci	r20, 0x53	; 83
    9518:	48 4a       	sbci	r20, 0xA8	; 168
    951a:	4c 4e       	sbci	r20, 0xEC	; 236
    951c:	50 53       	subi	r21, 0x30	; 48
    951e:	55 57       	subi	r21, 0x75	; 117
    9520:	59 5b       	subi	r21, 0xB9	; 185
    9522:	5d 5f       	subi	r21, 0xFD	; 253
    9524:	61 63       	ori	r22, 0x31	; 49
    9526:	65 67       	ori	r22, 0x75	; 117
    9528:	69 6b       	ori	r22, 0xB9	; 185
    952a:	6c 6e       	ori	r22, 0xEC	; 236
    952c:	70 71       	andi	r23, 0x10	; 16
    952e:	73 74       	andi	r23, 0x43	; 67
    9530:	75 77       	andi	r23, 0x75	; 117
    9532:	78 79       	andi	r23, 0x98	; 152
    9534:	7a 7b       	andi	r23, 0xBA	; 186
    9536:	7c 7d       	andi	r23, 0xDC	; 220
    9538:	7d 7e       	andi	r23, 0xED	; 237
    953a:	7e 7f       	andi	r23, 0xFE	; 254
    953c:	7f 7f       	andi	r23, 0xFF	; 255
    953e:	7f 7f       	andi	r23, 0xFF	; 255
    9540:	7f 7f       	andi	r23, 0xFF	; 255
    9542:	7f 7f       	andi	r23, 0xFF	; 255
    9544:	7f 7f       	andi	r23, 0xFF	; 255
    9546:	7e 7e       	andi	r23, 0xEE	; 238
    9548:	7d 7d       	andi	r23, 0xDD	; 221
    954a:	7c 7b       	andi	r23, 0xBC	; 188
    954c:	7a 79       	andi	r23, 0x9A	; 154
    954e:	78 77       	andi	r23, 0x78	; 120
    9550:	75 74       	andi	r23, 0x45	; 69
    9552:	73 71       	andi	r23, 0x13	; 19
    9554:	70 6e       	ori	r23, 0xE0	; 224
    9556:	6c 6b       	ori	r22, 0xBC	; 188
    9558:	69 67       	ori	r22, 0x79	; 121
    955a:	65 63       	ori	r22, 0x35	; 53
    955c:	61 5f       	subi	r22, 0xF1	; 241
    955e:	5d 5b       	subi	r21, 0xBD	; 189
    9560:	59 57       	subi	r21, 0x79	; 121
    9562:	55 53       	subi	r21, 0x35	; 53
    9564:	50 4e       	sbci	r21, 0xE0	; 224
    9566:	4c 4a       	sbci	r20, 0xAC	; 172
    9568:	48 45       	sbci	r20, 0x58	; 88
    956a:	43 41       	sbci	r20, 0x13	; 19
    956c:	3f 3d       	cpi	r19, 0xDF	; 223
    956e:	3b 39       	cpi	r19, 0x9B	; 155
    9570:	37 35       	cpi	r19, 0x57	; 87
    9572:	33 32       	cpi	r19, 0x23	; 35
    9574:	30 2f       	mov	r19, r16
    9576:	2e 2d       	mov	r18, r14
    9578:	2c 2b       	or	r18, r28
    957a:	2c 2d       	mov	r18, r12
    957c:	30 42       	sbci	r19, 0x20	; 32
    957e:	3d 28       	or	r3, r13
    9580:	00 e9       	ldi	r16, 0x90	; 144
    9582:	e5 fe       	sbrs	r14, 5
    9584:	d4 d7       	rcall	.+4008   	; 0xa52e <checkBanana+0xc6>
    9586:	d7 d7       	rcall	.+4014   	; 0xa536 <checkBanana+0xce>
    9588:	d6 d4       	rcall	.+2476   	; 0x9f36 <drawplayer2+0xa6>
    958a:	d2 d0       	rcall	.+420    	; 0x9730 <waves+0x930>
    958c:	ce cc       	rjmp	.-1636   	; 0x8f2a <waves+0x12a>
    958e:	ca c8       	rjmp	.-3692   	; 0x8724 <TriggerCommon+0xa4>
    9590:	c6 c3       	rjmp	.+1932   	; 0x9d1e <ProcessFading+0x34>
    9592:	c1 bf       	out	0x31, r28	; 49
    9594:	bd ba       	out	0x1d, r11	; 29
    9596:	b8 b6       	in	r11, 0x38	; 56
    9598:	b4 b1       	in	r27, 0x04	; 4
    959a:	af ad       	ldd	r26, Y+63	; 0x3f
    959c:	ab a9       	ldd	r26, Y+51	; 0x33
    959e:	a7 a5       	ldd	r26, Z+47	; 0x2f
    95a0:	a3 a1       	ldd	r26, Z+35	; 0x23
    95a2:	9f 9e       	mul	r9, r31
    95a4:	9c 9a       	sbi	0x13, 4	; 19
    95a6:	99 97       	sbiw	r26, 0x29	; 41
    95a8:	95 94       	asr	r9
    95aa:	93 91       	.word	0x9193	; ????
    95ac:	90 8f       	std	Z+24, r25	; 0x18
    95ae:	8d 8c       	ldd	r8, Y+29	; 0x1d
    95b0:	8b 8a       	std	Y+19, r8	; 0x13
    95b2:	89 88       	ldd	r8, Y+17	; 0x11
    95b4:	88 87       	std	Y+8, r24	; 0x08
    95b6:	86 85       	ldd	r24, Z+14	; 0x0e
    95b8:	85 84       	ldd	r8, Z+13	; 0x0d
    95ba:	84 84       	ldd	r8, Z+12	; 0x0c
    95bc:	83 83       	std	Z+3, r24	; 0x03
    95be:	83 83       	std	Z+3, r24	; 0x03
    95c0:	83 83       	std	Z+3, r24	; 0x03
    95c2:	83 83       	std	Z+3, r24	; 0x03
    95c4:	83 84       	ldd	r8, Z+11	; 0x0b
    95c6:	84 84       	ldd	r8, Z+12	; 0x0c
    95c8:	85 85       	ldd	r24, Z+13	; 0x0d
    95ca:	86 87       	std	Z+14, r24	; 0x0e
    95cc:	88 88       	ldd	r8, Y+16	; 0x10
    95ce:	89 8a       	std	Y+17, r8	; 0x11
    95d0:	8b 8c       	ldd	r8, Y+27	; 0x1b
    95d2:	8d 8f       	std	Y+29, r24	; 0x1d
    95d4:	90 91 93 94 	lds	r25, 0x9493	; 0x809493 <_end+0x8593>
    95d8:	95 97       	sbiw	r26, 0x25	; 37
    95da:	99 9a       	sbi	0x13, 1	; 19
    95dc:	9c 9e       	mul	r9, r28
    95de:	9f a1       	ldd	r25, Y+39	; 0x27
    95e0:	a3 a5       	ldd	r26, Z+43	; 0x2b
    95e2:	a7 a9       	ldd	r26, Z+55	; 0x37
    95e4:	ab ad       	ldd	r26, Y+59	; 0x3b
    95e6:	af b1       	in	r26, 0x0f	; 15
    95e8:	b4 b6       	in	r11, 0x34	; 52
    95ea:	b8 ba       	out	0x18, r11	; 24
    95ec:	bd bf       	out	0x3d, r27	; 61
    95ee:	c1 c3       	rjmp	.+1922   	; 0x9d72 <drawplayer+0xe>
    95f0:	c6 c8       	rjmp	.-3700   	; 0x877e <TriggerCommon+0xfe>
    95f2:	ca cc       	rjmp	.-1644   	; 0x8f88 <waves+0x188>
    95f4:	ce d0       	rcall	.+412    	; 0x9792 <waves+0x992>
    95f6:	d2 d4       	rcall	.+2468   	; 0x9f9c <drawplayer2+0x10c>
    95f8:	d6 d7       	rcall	.+4012   	; 0xa5a6 <printheadline+0x3e>
    95fa:	d7 d7       	rcall	.+4014   	; 0xa5aa <printheadline+0x42>
    95fc:	d4 fe       	sbrs	r13, 4
    95fe:	e5 e9       	ldi	r30, 0x95	; 149
    9600:	f9 f8       	.word	0xf8f9	; ????
    9602:	f9 f5       	brne	.+126    	; 0x9682 <waves+0x882>
    9604:	eb e1       	ldi	r30, 0x1B	; 27
    9606:	dd de       	rcall	.-582    	; 0x93c2 <waves+0x5c2>
    9608:	e0 e2       	ldi	r30, 0x20	; 32
    960a:	e4 e5       	ldi	r30, 0x54	; 84
    960c:	e6 e5       	ldi	r30, 0x56	; 86
    960e:	e4 e2       	ldi	r30, 0x24	; 36
    9610:	de d9       	rcall	.-3140   	; 0x89ce <ProcessMusic+0x13c>
    9612:	d2 ca       	rjmp	.-2652   	; 0x8bb8 <ProcessMusic+0x326>
    9614:	c1 b7       	in	r28, 0x31	; 49
    9616:	ac a2       	std	Y+36, r10	; 0x24
    9618:	99 91       	ld	r25, Y+
    961a:	8a 86       	std	Y+10, r8	; 0x0a
    961c:	83 81       	ldd	r24, Z+3	; 0x03
    961e:	80 80       	ld	r8, Z
    9620:	81 82       	std	Z+1, r8	; 0x01
    9622:	83 85       	ldd	r24, Z+11	; 0x0b
    9624:	86 88       	ldd	r8, Z+22	; 0x16
    9626:	8a 8c       	ldd	r8, Y+26	; 0x1a
    9628:	8d 8f       	std	Y+29, r24	; 0x1d
    962a:	90 92 93 95 	sts	0x9593, r9	; 0x809593 <_end+0x8693>
    962e:	96 97       	sbiw	r26, 0x26	; 38
    9630:	98 99       	sbic	0x13, 0	; 19
    9632:	9a 9b       	sbis	0x13, 2	; 19
    9634:	9b 9c       	mul	r9, r11
    9636:	9d 9d       	mul	r25, r13
    9638:	9d 9e       	mul	r9, r29
    963a:	9e 9e       	mul	r9, r30
    963c:	9f 9f       	mul	r25, r31
    963e:	9f 9f       	mul	r25, r31
    9640:	9f 9f       	mul	r25, r31
    9642:	9f 9e       	mul	r9, r31
    9644:	9e 9e       	mul	r9, r30
    9646:	9d 9d       	mul	r25, r13
    9648:	9d 9c       	mul	r9, r13
    964a:	9b 9b       	sbis	0x13, 3	; 19
    964c:	9a 99       	sbic	0x13, 2	; 19
    964e:	98 97       	sbiw	r26, 0x28	; 40
    9650:	96 95       	lsr	r25
    9652:	93 92       	.word	0x9293	; ????
    9654:	90 8f       	std	Z+24, r25	; 0x18
    9656:	8d 8c       	ldd	r8, Y+29	; 0x1d
    9658:	8a 88       	ldd	r8, Y+18	; 0x12
    965a:	86 85       	ldd	r24, Z+14	; 0x0e
    965c:	83 82       	std	Z+3, r8	; 0x03
    965e:	81 80       	ldd	r8, Z+1	; 0x01
    9660:	80 81       	ld	r24, Z
    9662:	83 86       	std	Z+11, r8	; 0x0b
    9664:	8a 91       	ld	r24, -Y
    9666:	99 a2       	std	Y+33, r9	; 0x21
    9668:	ac b7       	in	r26, 0x3c	; 60
    966a:	c1 ca       	rjmp	.-2686   	; 0x8bee <ProcessMusic+0x35c>
    966c:	d2 d9       	rcall	.-3164   	; 0x8a12 <ProcessMusic+0x180>
    966e:	de e2       	ldi	r29, 0x2E	; 46
    9670:	e4 e5       	ldi	r30, 0x54	; 84
    9672:	e6 e5       	ldi	r30, 0x56	; 86
    9674:	e4 e2       	ldi	r30, 0x24	; 36
    9676:	e0 de       	rcall	.-576    	; 0x9438 <waves+0x638>
    9678:	dd e1       	ldi	r29, 0x1D	; 29
    967a:	eb f5       	brvc	.+122    	; 0x96f6 <waves+0x8f6>
    967c:	f9 f8       	.word	0xf8f9	; ????
    967e:	f9 00       	.word	0x00f9	; ????
    9680:	07 08       	sbc	r0, r7
    9682:	07 0b       	sbc	r16, r23
    9684:	15 1f       	adc	r17, r21
    9686:	23 22       	and	r2, r19
    9688:	20 1e       	adc	r2, r16
    968a:	1c 1b       	sub	r17, r28
    968c:	1a 1b       	sub	r17, r26
    968e:	1c 1e       	adc	r1, r28
    9690:	22 27       	eor	r18, r18
    9692:	2e 36       	cpi	r18, 0x6E	; 110
    9694:	3f 49       	sbci	r19, 0x9F	; 159
    9696:	54 5e       	subi	r21, 0xE4	; 228
    9698:	67 6f       	ori	r22, 0xF7	; 247
    969a:	76 7a       	andi	r23, 0xA6	; 166
    969c:	7e 7f       	andi	r23, 0xFE	; 254
    969e:	7f 7f       	andi	r23, 0xFF	; 255
    96a0:	7f 7e       	andi	r23, 0xEF	; 239
    96a2:	7d 7b       	andi	r23, 0xBD	; 189
    96a4:	7a 78       	andi	r23, 0x8A	; 138
    96a6:	76 74       	andi	r23, 0x46	; 70
    96a8:	73 71       	andi	r23, 0x13	; 19
    96aa:	70 6e       	ori	r23, 0xE0	; 224
    96ac:	6d 6b       	ori	r22, 0xBD	; 189
    96ae:	6a 69       	ori	r22, 0x9A	; 154
    96b0:	68 67       	ori	r22, 0x78	; 120
    96b2:	66 65       	ori	r22, 0x56	; 86
    96b4:	65 64       	ori	r22, 0x45	; 69
    96b6:	64 63       	ori	r22, 0x34	; 52
    96b8:	63 62       	ori	r22, 0x23	; 35
    96ba:	62 62       	ori	r22, 0x22	; 34
    96bc:	61 61       	ori	r22, 0x11	; 17
    96be:	61 61       	ori	r22, 0x11	; 17
    96c0:	61 61       	ori	r22, 0x11	; 17
    96c2:	61 62       	ori	r22, 0x21	; 33
    96c4:	62 62       	ori	r22, 0x22	; 34
    96c6:	63 63       	ori	r22, 0x33	; 51
    96c8:	63 64       	ori	r22, 0x43	; 67
    96ca:	65 65       	ori	r22, 0x55	; 85
    96cc:	66 67       	ori	r22, 0x76	; 118
    96ce:	68 69       	ori	r22, 0x98	; 152
    96d0:	6a 6b       	ori	r22, 0xBA	; 186
    96d2:	6d 6e       	ori	r22, 0xED	; 237
    96d4:	70 71       	andi	r23, 0x10	; 16
    96d6:	73 74       	andi	r23, 0x43	; 67
    96d8:	76 78       	andi	r23, 0x86	; 134
    96da:	7a 7b       	andi	r23, 0xBA	; 186
    96dc:	7d 7e       	andi	r23, 0xED	; 237
    96de:	7f 7f       	andi	r23, 0xFF	; 255
    96e0:	7f 7f       	andi	r23, 0xFF	; 255
    96e2:	7e 7a       	andi	r23, 0xAE	; 174
    96e4:	76 6f       	ori	r23, 0xF6	; 246
    96e6:	67 5e       	subi	r22, 0xE7	; 231
    96e8:	54 49       	sbci	r21, 0x94	; 148
    96ea:	3f 36       	cpi	r19, 0x6F	; 111
    96ec:	2e 27       	eor	r18, r30
    96ee:	22 1e       	adc	r2, r18
    96f0:	1c 1b       	sub	r17, r28
    96f2:	1a 1b       	sub	r17, r26
    96f4:	1c 1e       	adc	r1, r28
    96f6:	20 22       	and	r2, r16
    96f8:	23 1f       	adc	r18, r19
    96fa:	15 0b       	sbc	r17, r21
    96fc:	07 08       	sbc	r0, r7
    96fe:	07 00       	.word	0x0007	; ????
    9700:	1f 31       	cpi	r17, 0x1F	; 31
    9702:	3d 44       	sbci	r19, 0x4D	; 77
    9704:	4e 53       	subi	r20, 0x3E	; 62
    9706:	54 56       	subi	r21, 0x64	; 100
    9708:	5a 5f       	subi	r21, 0xFA	; 250
    970a:	64 69       	ori	r22, 0x94	; 148
    970c:	6e 74       	andi	r22, 0x4E	; 78
    970e:	76 79       	andi	r23, 0x96	; 150
    9710:	7c 7f       	andi	r23, 0xFC	; 252
    9712:	7f 7f       	andi	r23, 0xFF	; 255
    9714:	7f 7f       	andi	r23, 0xFF	; 255
    9716:	7f 7f       	andi	r23, 0xFF	; 255
    9718:	7f 7f       	andi	r23, 0xFF	; 255
    971a:	7f 7f       	andi	r23, 0xFF	; 255
    971c:	7f 7f       	andi	r23, 0xFF	; 255
    971e:	7f 7f       	andi	r23, 0xFF	; 255
    9720:	7f 7f       	andi	r23, 0xFF	; 255
    9722:	7f 7f       	andi	r23, 0xFF	; 255
    9724:	7f 7f       	andi	r23, 0xFF	; 255
    9726:	7f 7f       	andi	r23, 0xFF	; 255
    9728:	7f 7f       	andi	r23, 0xFF	; 255
    972a:	7f 7f       	andi	r23, 0xFF	; 255
    972c:	7f 7f       	andi	r23, 0xFF	; 255
    972e:	7f 7f       	andi	r23, 0xFF	; 255
    9730:	7f 7f       	andi	r23, 0xFF	; 255
    9732:	7f 7f       	andi	r23, 0xFF	; 255
    9734:	7f 7f       	andi	r23, 0xFF	; 255
    9736:	7f 7f       	andi	r23, 0xFF	; 255
    9738:	7f 7f       	andi	r23, 0xFF	; 255
    973a:	7f 7f       	andi	r23, 0xFF	; 255
    973c:	7f 7f       	andi	r23, 0xFF	; 255
    973e:	7f 7f       	andi	r23, 0xFF	; 255
    9740:	7f 7f       	andi	r23, 0xFF	; 255
    9742:	7f 7f       	andi	r23, 0xFF	; 255
    9744:	7f 7f       	andi	r23, 0xFF	; 255
    9746:	7f 7f       	andi	r23, 0xFF	; 255
    9748:	7f 7f       	andi	r23, 0xFF	; 255
    974a:	7f 7f       	andi	r23, 0xFF	; 255
    974c:	7f 7f       	andi	r23, 0xFF	; 255
    974e:	7f 7f       	andi	r23, 0xFF	; 255
    9750:	7f 7f       	andi	r23, 0xFF	; 255
    9752:	7f 7f       	andi	r23, 0xFF	; 255
    9754:	7f 7f       	andi	r23, 0xFF	; 255
    9756:	7f 7f       	andi	r23, 0xFF	; 255
    9758:	7f 7f       	andi	r23, 0xFF	; 255
    975a:	7f 7f       	andi	r23, 0xFF	; 255
    975c:	7f 7f       	andi	r23, 0xFF	; 255
    975e:	7f 7f       	andi	r23, 0xFF	; 255
    9760:	7f 7f       	andi	r23, 0xFF	; 255
    9762:	7f 7f       	andi	r23, 0xFF	; 255
    9764:	7f 7f       	andi	r23, 0xFF	; 255
    9766:	7f 7f       	andi	r23, 0xFF	; 255
    9768:	7f 7f       	andi	r23, 0xFF	; 255
    976a:	7f 7f       	andi	r23, 0xFF	; 255
    976c:	7f 7f       	andi	r23, 0xFF	; 255
    976e:	7f 7f       	andi	r23, 0xFF	; 255
    9770:	7f 7f       	andi	r23, 0xFF	; 255
    9772:	7f 7f       	andi	r23, 0xFF	; 255
    9774:	7f 7f       	andi	r23, 0xFF	; 255
    9776:	7f 7f       	andi	r23, 0xFF	; 255
    9778:	7f 7f       	andi	r23, 0xFF	; 255
    977a:	7f 7c       	andi	r23, 0xCF	; 207
    977c:	78 71       	andi	r23, 0x18	; 24
    977e:	68 4c       	sbci	r22, 0xC8	; 200
    9780:	2c 1c       	adc	r2, r12
    9782:	12 0c       	add	r1, r2
    9784:	0a 0b       	sbc	r16, r26
    9786:	0a 05       	cpc	r16, r10
    9788:	fd f3       	brhs	.-2      	; 0x9788 <waves+0x988>
    978a:	e9 df       	rcall	.-46     	; 0x975e <waves+0x95e>
    978c:	d4 ca       	rjmp	.-2648   	; 0x8d36 <steptable+0x8a>
    978e:	c0 b7       	in	r28, 0x30	; 48
    9790:	ae a6       	std	Y+46, r10	; 0x2e
    9792:	9e 97       	sbiw	r26, 0x2e	; 46
    9794:	91 8b       	std	Z+17, r25	; 0x11
    9796:	86 85       	ldd	r24, Z+14	; 0x0e
    9798:	82 80       	ldd	r8, Z+2	; 0x02
    979a:	80 80       	ld	r8, Z
    979c:	80 80       	ld	r8, Z
    979e:	80 80       	ld	r8, Z
    97a0:	80 80       	ld	r8, Z
    97a2:	80 80       	ld	r8, Z
    97a4:	80 80       	ld	r8, Z
    97a6:	80 80       	ld	r8, Z
    97a8:	80 80       	ld	r8, Z
    97aa:	80 80       	ld	r8, Z
    97ac:	80 80       	ld	r8, Z
    97ae:	80 80       	ld	r8, Z
    97b0:	80 80       	ld	r8, Z
    97b2:	80 80       	ld	r8, Z
    97b4:	80 80       	ld	r8, Z
    97b6:	80 80       	ld	r8, Z
    97b8:	80 80       	ld	r8, Z
    97ba:	80 80       	ld	r8, Z
    97bc:	80 80       	ld	r8, Z
    97be:	80 80       	ld	r8, Z
    97c0:	80 80       	ld	r8, Z
    97c2:	80 80       	ld	r8, Z
    97c4:	80 80       	ld	r8, Z
    97c6:	80 80       	ld	r8, Z
    97c8:	80 80       	ld	r8, Z
    97ca:	80 80       	ld	r8, Z
    97cc:	80 80       	ld	r8, Z
    97ce:	80 80       	ld	r8, Z
    97d0:	80 80       	ld	r8, Z
    97d2:	80 80       	ld	r8, Z
    97d4:	80 80       	ld	r8, Z
    97d6:	80 80       	ld	r8, Z
    97d8:	80 80       	ld	r8, Z
    97da:	80 80       	ld	r8, Z
    97dc:	80 80       	ld	r8, Z
    97de:	80 80       	ld	r8, Z
    97e0:	80 80       	ld	r8, Z
    97e2:	80 80       	ld	r8, Z
    97e4:	80 80       	ld	r8, Z
    97e6:	80 80       	ld	r8, Z
    97e8:	80 80       	ld	r8, Z
    97ea:	80 80       	ld	r8, Z
    97ec:	80 80       	ld	r8, Z
    97ee:	80 80       	ld	r8, Z
    97f0:	80 80       	ld	r8, Z
    97f2:	80 80       	ld	r8, Z
    97f4:	80 87       	std	Z+8, r24	; 0x08
    97f6:	91 9d       	mul	r25, r1
    97f8:	ac c4       	rjmp	.+2392   	; 0xa152 <printtileint+0x1a6>
    97fa:	cb d4       	rcall	.+2454   	; 0xa192 <printtileint+0x1e6>
    97fc:	dd f2       	brhs	.-74     	; 0x97b4 <waves+0x9b4>
    97fe:	fa fa       	.word	0xfafa	; ????

00009800 <ProcessSprites>:
	for(cy=0;cy<height;cy++){
		for(cx=0;cx<width;cx++){		
			SetFont(x+cx,y+cy,(tile-32));
		}
	}
}
    9800:	2f 92       	push	r2
    9802:	3f 92       	push	r3
    9804:	4f 92       	push	r4
    9806:	5f 92       	push	r5
    9808:	6f 92       	push	r6
    980a:	7f 92       	push	r7
    980c:	8f 92       	push	r8
    980e:	9f 92       	push	r9
    9810:	af 92       	push	r10
    9812:	bf 92       	push	r11
    9814:	cf 92       	push	r12
    9816:	df 92       	push	r13
    9818:	ef 92       	push	r14
    981a:	ff 92       	push	r15
    981c:	0f 93       	push	r16
    981e:	1f 93       	push	r17
    9820:	cf 93       	push	r28
    9822:	df 93       	push	r29
    9824:	00 d0       	rcall	.+0      	; 0x9826 <ProcessSprites+0x26>
    9826:	00 d0       	rcall	.+0      	; 0x9828 <ProcessSprites+0x28>
    9828:	00 d0       	rcall	.+0      	; 0x982a <ProcessSprites+0x2a>
    982a:	cd b7       	in	r28, 0x3d	; 61
    982c:	de b7       	in	r29, 0x3e	; 62
    982e:	80 91 00 01 	lds	r24, 0x0100	; 0x800100 <__data_start>
    9832:	88 23       	and	r24, r24
    9834:	09 f4       	brne	.+2      	; 0x9838 <ProcessSprites+0x38>
    9836:	f9 c0       	rjmp	.+498    	; 0x9a2a <ProcessSprites+0x22a>
    9838:	80 91 51 08 	lds	r24, 0x0851	; 0x800851 <user_ram_tiles_c_tmp>
    983c:	80 93 50 08 	sts	0x0850, r24	; 0x800850 <user_ram_tiles_c>
    9840:	80 93 4f 08 	sts	0x084F, r24	; 0x80084f <free_tile_index>
    9844:	06 e0       	ldi	r16, 0x06	; 6
    9846:	11 e0       	ldi	r17, 0x01	; 1
    9848:	f8 01       	movw	r30, r16
    984a:	f3 81       	ldd	r31, Z+3	; 0x03
    984c:	fb 83       	std	Y+3, r31	; 0x03
    984e:	f2 ff       	sbrs	r31, 2
    9850:	20 c0       	rjmp	.+64     	; 0x9892 <ProcessSprites+0x92>
    9852:	0c 5f       	subi	r16, 0xFC	; 252
    9854:	1f 4f       	sbci	r17, 0xFF	; 255
    9856:	21 e0       	ldi	r18, 0x01	; 1
    9858:	0e 33       	cpi	r16, 0x3E	; 62
    985a:	12 07       	cpc	r17, r18
    985c:	a9 f7       	brne	.-22     	; 0x9848 <ProcessSprites+0x48>
    985e:	26 96       	adiw	r28, 0x06	; 6
    9860:	0f b6       	in	r0, 0x3f	; 63
    9862:	f8 94       	cli
    9864:	de bf       	out	0x3e, r29	; 62
    9866:	0f be       	out	0x3f, r0	; 63
    9868:	cd bf       	out	0x3d, r28	; 61
    986a:	df 91       	pop	r29
    986c:	cf 91       	pop	r28
    986e:	1f 91       	pop	r17
    9870:	0f 91       	pop	r16
    9872:	ff 90       	pop	r15
    9874:	ef 90       	pop	r14
    9876:	df 90       	pop	r13
    9878:	cf 90       	pop	r12
    987a:	bf 90       	pop	r11
    987c:	af 90       	pop	r10
    987e:	9f 90       	pop	r9
    9880:	8f 90       	pop	r8
    9882:	7f 90       	pop	r7
    9884:	6f 90       	pop	r6
    9886:	5f 90       	pop	r5
    9888:	4f 90       	pop	r4
    988a:	3f 90       	pop	r3
    988c:	2f 90       	pop	r2
    988e:	0c 94 25 3f 	jmp	0x7e4a	; 0x7e4a <RestoreBackground>
    9892:	f8 01       	movw	r30, r16
    9894:	51 81       	ldd	r21, Z+1	; 0x01
    9896:	40 81       	ld	r20, Z
    9898:	20 91 60 08 	lds	r18, 0x0860	; 0x800860 <screen_scrollX>
    989c:	24 0f       	add	r18, r20
    989e:	30 91 61 08 	lds	r19, 0x0861	; 0x800861 <screen_scrollY>
    98a2:	85 2f       	mov	r24, r21
    98a4:	90 e0       	ldi	r25, 0x00	; 0
    98a6:	83 0f       	add	r24, r19
    98a8:	91 1d       	adc	r25, r1
    98aa:	30 91 62 08 	lds	r19, 0x0862	; 0x800862 <screen_scrollHeight>
    98ae:	33 0f       	add	r19, r19
    98b0:	33 0f       	add	r19, r19
    98b2:	33 0f       	add	r19, r19
    98b4:	31 50       	subi	r19, 0x01	; 1
    98b6:	35 17       	cp	r19, r21
    98b8:	08 f4       	brcc	.+2      	; 0x98bc <ProcessSprites+0xbc>
    98ba:	9a 95       	dec	r25
    98bc:	32 2e       	mov	r3, r18
    98be:	36 94       	lsr	r3
    98c0:	36 94       	lsr	r3
    98c2:	36 94       	lsr	r3
    98c4:	27 70       	andi	r18, 0x07	; 7
    98c6:	19 f0       	breq	.+6      	; 0x98ce <ProcessSprites+0xce>
    98c8:	f2 e0       	ldi	r31, 0x02	; 2
    98ca:	f9 83       	std	Y+1, r31	; 0x01
    98cc:	02 c0       	rjmp	.+4      	; 0x98d2 <ProcessSprites+0xd2>
    98ce:	31 e0       	ldi	r19, 0x01	; 1
    98d0:	39 83       	std	Y+1, r19	; 0x01
    98d2:	bc 01       	movw	r22, r24
    98d4:	e3 e0       	ldi	r30, 0x03	; 3
    98d6:	76 95       	lsr	r23
    98d8:	67 95       	ror	r22
    98da:	ea 95       	dec	r30
    98dc:	e1 f7       	brne	.-8      	; 0x98d6 <ProcessSprites+0xd6>
    98de:	26 2e       	mov	r2, r22
    98e0:	87 70       	andi	r24, 0x07	; 7
    98e2:	19 f0       	breq	.+6      	; 0x98ea <ProcessSprites+0xea>
    98e4:	62 e0       	ldi	r22, 0x02	; 2
    98e6:	6a 83       	std	Y+2, r22	; 0x02
    98e8:	02 c0       	rjmp	.+4      	; 0x98ee <ProcessSprites+0xee>
    98ea:	71 e0       	ldi	r23, 0x01	; 1
    98ec:	7a 83       	std	Y+2, r23	; 0x02
    98ee:	68 2e       	mov	r6, r24
    98f0:	71 2c       	mov	r7, r1
    98f2:	76 2c       	mov	r7, r6
    98f4:	66 24       	eor	r6, r6
    98f6:	62 0e       	add	r6, r18
    98f8:	71 1c       	adc	r7, r1
    98fa:	fb 81       	ldd	r31, Y+3	; 0x03
    98fc:	ef 2f       	mov	r30, r31
    98fe:	f0 e0       	ldi	r31, 0x00	; 0
    9900:	7e 2f       	mov	r23, r30
    9902:	66 27       	eor	r22, r22
    9904:	f8 01       	movw	r30, r16
    9906:	92 81       	ldd	r25, Z+2	; 0x02
    9908:	69 0f       	add	r22, r25
    990a:	71 1d       	adc	r23, r1
    990c:	7e 83       	std	Y+6, r23	; 0x06
    990e:	6d 83       	std	Y+5, r22	; 0x05
    9910:	c1 2c       	mov	r12, r1
    9912:	d1 2c       	mov	r13, r1
    9914:	97 e0       	ldi	r25, 0x07	; 7
    9916:	95 0f       	add	r25, r21
    9918:	98 1b       	sub	r25, r24
    991a:	9b 83       	std	Y+3, r25	; 0x03
    991c:	87 e0       	ldi	r24, 0x07	; 7
    991e:	84 0f       	add	r24, r20
    9920:	82 1b       	sub	r24, r18
    9922:	8c 83       	std	Y+4, r24	; 0x04
    9924:	8c 2d       	mov	r24, r12
    9926:	90 91 62 08 	lds	r25, 0x0862	; 0x800862 <screen_scrollHeight>
    992a:	91 11       	cpse	r25, r1
    992c:	07 c0       	rjmp	.+14     	; 0x993c <ProcessSprites+0x13c>
    992e:	ff ef       	ldi	r31, 0xFF	; 255
    9930:	cf 1a       	sub	r12, r31
    9932:	df 0a       	sbc	r13, r31
    9934:	2a 81       	ldd	r18, Y+2	; 0x02
    9936:	c2 16       	cp	r12, r18
    9938:	a8 f3       	brcs	.-22     	; 0x9924 <ProcessSprites+0x124>
    993a:	8b cf       	rjmp	.-234    	; 0x9852 <ProcessSprites+0x52>
    993c:	29 2f       	mov	r18, r25
    993e:	22 0f       	add	r18, r18
    9940:	22 0f       	add	r18, r18
    9942:	22 0f       	add	r18, r18
    9944:	21 50       	subi	r18, 0x01	; 1
    9946:	3b 81       	ldd	r19, Y+3	; 0x03
    9948:	48 e0       	ldi	r20, 0x08	; 8
    994a:	c4 9e       	mul	r12, r20
    994c:	30 0d       	add	r19, r0
    994e:	11 24       	eor	r1, r1
    9950:	32 17       	cp	r19, r18
    9952:	68 f7       	brcc	.-38     	; 0x992e <ProcessSprites+0x12e>
    9954:	82 0d       	add	r24, r2
    9956:	89 17       	cp	r24, r25
    9958:	10 f0       	brcs	.+4      	; 0x995e <ProcessSprites+0x15e>
    995a:	89 1b       	sub	r24, r25
    995c:	fc cf       	rjmp	.-8      	; 0x9956 <ProcessSprites+0x156>
    995e:	e8 2e       	mov	r14, r24
    9960:	e6 94       	lsr	r14
    9962:	e6 94       	lsr	r14
    9964:	e6 94       	lsr	r14
    9966:	f1 2c       	mov	r15, r1
    9968:	fe 2c       	mov	r15, r14
    996a:	ee 24       	eor	r14, r14
    996c:	87 70       	andi	r24, 0x07	; 7
    996e:	e8 0e       	add	r14, r24
    9970:	f1 1c       	adc	r15, r1
    9972:	9c 2c       	mov	r9, r12
    9974:	88 24       	eor	r8, r8
    9976:	41 2c       	mov	r4, r1
    9978:	8c 81       	ldd	r24, Y+4	; 0x04
    997a:	68 e0       	ldi	r22, 0x08	; 8
    997c:	46 9e       	mul	r4, r22
    997e:	80 0d       	add	r24, r0
    9980:	11 24       	eor	r1, r1
    9982:	87 3e       	cpi	r24, 0xE7	; 231
    9984:	08 f0       	brcs	.+2      	; 0x9988 <ProcessSprites+0x188>
    9986:	49 c0       	rjmp	.+146    	; 0x9a1a <ProcessSprites+0x21a>
    9988:	83 2d       	mov	r24, r3
    998a:	84 0d       	add	r24, r4
    998c:	88 0f       	add	r24, r24
    998e:	88 0f       	add	r24, r24
    9990:	88 0f       	add	r24, r24
    9992:	f7 01       	movw	r30, r14
    9994:	e8 0f       	add	r30, r24
    9996:	f1 1d       	adc	r31, r1
    9998:	9f 01       	movw	r18, r30
    999a:	20 50       	subi	r18, 0x00	; 0
    999c:	35 4f       	sbci	r19, 0xF5	; 245
    999e:	59 01       	movw	r10, r18
    99a0:	f9 01       	movw	r30, r18
    99a2:	50 80       	ld	r5, Z
    99a4:	80 91 50 08 	lds	r24, 0x0850	; 0x800850 <user_ram_tiles_c>
    99a8:	fa e1       	ldi	r31, 0x1A	; 26
    99aa:	f5 15       	cp	r31, r5
    99ac:	10 f0       	brcs	.+4      	; 0x99b2 <ProcessSprites+0x1b2>
    99ae:	58 16       	cp	r5, r24
    99b0:	48 f5       	brcc	.+82     	; 0x9a04 <ProcessSprites+0x204>
    99b2:	60 91 4f 08 	lds	r22, 0x084F	; 0x80084f <free_tile_index>
    99b6:	6b 31       	cpi	r22, 0x1B	; 27
    99b8:	10 f5       	brcc	.+68     	; 0x99fe <ProcessSprites+0x1fe>
    99ba:	2a e1       	ldi	r18, 0x1A	; 26
    99bc:	25 15       	cp	r18, r5
    99be:	28 f4       	brcc	.+10     	; 0x99ca <ProcessSprites+0x1ca>
    99c0:	85 ee       	ldi	r24, 0xE5	; 229
    99c2:	85 0d       	add	r24, r5
    99c4:	0e 94 09 3e 	call	0x7c12	; 0x7c12 <CopyFlashTile>
    99c8:	05 c0       	rjmp	.+10     	; 0x99d4 <ProcessSprites+0x1d4>
    99ca:	58 16       	cp	r5, r24
    99cc:	18 f4       	brcc	.+6      	; 0x99d4 <ProcessSprites+0x1d4>
    99ce:	85 2d       	mov	r24, r5
    99d0:	0e 94 98 3e 	call	0x7d30	; 0x7d30 <CopyRamTile>
    99d4:	80 91 4f 08 	lds	r24, 0x084F	; 0x80084f <free_tile_index>
    99d8:	e8 2f       	mov	r30, r24
    99da:	f0 e0       	ldi	r31, 0x00	; 0
    99dc:	9f 01       	movw	r18, r30
    99de:	22 0f       	add	r18, r18
    99e0:	33 1f       	adc	r19, r19
    99e2:	e2 0f       	add	r30, r18
    99e4:	f3 1f       	adc	r31, r19
    99e6:	e2 50       	subi	r30, 0x02	; 2
    99e8:	f8 4f       	sbci	r31, 0xF8	; 248
    99ea:	b1 82       	std	Z+1, r11	; 0x01
    99ec:	a0 82       	st	Z, r10
    99ee:	52 82       	std	Z+2, r5	; 0x02
    99f0:	f5 01       	movw	r30, r10
    99f2:	80 83       	st	Z, r24
    99f4:	91 e0       	ldi	r25, 0x01	; 1
    99f6:	98 0f       	add	r25, r24
    99f8:	90 93 4f 08 	sts	0x084F, r25	; 0x80084f <free_tile_index>
    99fc:	58 2e       	mov	r5, r24
    99fe:	fa e1       	ldi	r31, 0x1A	; 26
    9a00:	f5 15       	cp	r31, r5
    9a02:	58 f0       	brcs	.+22     	; 0x9a1a <ProcessSprites+0x21a>
    9a04:	80 91 50 08 	lds	r24, 0x0850	; 0x800850 <user_ram_tiles_c>
    9a08:	58 16       	cp	r5, r24
    9a0a:	38 f0       	brcs	.+14     	; 0x9a1a <ProcessSprites+0x21a>
    9a0c:	93 01       	movw	r18, r6
    9a0e:	a4 01       	movw	r20, r8
    9a10:	6d 81       	ldd	r22, Y+5	; 0x05
    9a12:	7e 81       	ldd	r23, Y+6	; 0x06
    9a14:	85 2d       	mov	r24, r5
    9a16:	0e 94 38 3f 	call	0x7e70	; 0x7e70 <BlitSpritePart>
    9a1a:	43 94       	inc	r4
    9a1c:	2f ef       	ldi	r18, 0xFF	; 255
    9a1e:	82 1a       	sub	r8, r18
    9a20:	92 0a       	sbc	r9, r18
    9a22:	39 81       	ldd	r19, Y+1	; 0x01
    9a24:	43 12       	cpse	r4, r19
    9a26:	a8 cf       	rjmp	.-176    	; 0x9978 <ProcessSprites+0x178>
    9a28:	82 cf       	rjmp	.-252    	; 0x992e <ProcessSprites+0x12e>
    9a2a:	26 96       	adiw	r28, 0x06	; 6
    9a2c:	0f b6       	in	r0, 0x3f	; 63
    9a2e:	f8 94       	cli
    9a30:	de bf       	out	0x3e, r29	; 62
    9a32:	0f be       	out	0x3f, r0	; 63
    9a34:	cd bf       	out	0x3d, r28	; 61
    9a36:	df 91       	pop	r29
    9a38:	cf 91       	pop	r28
    9a3a:	1f 91       	pop	r17
    9a3c:	0f 91       	pop	r16
    9a3e:	ff 90       	pop	r15
    9a40:	ef 90       	pop	r14
    9a42:	df 90       	pop	r13
    9a44:	cf 90       	pop	r12
    9a46:	bf 90       	pop	r11
    9a48:	af 90       	pop	r10
    9a4a:	9f 90       	pop	r9
    9a4c:	8f 90       	pop	r8
    9a4e:	7f 90       	pop	r7
    9a50:	6f 90       	pop	r6
    9a52:	5f 90       	pop	r5
    9a54:	4f 90       	pop	r4
    9a56:	3f 90       	pop	r3
    9a58:	2f 90       	pop	r2
    9a5a:	08 95       	ret

00009a5c <Scroll>:
    9a5c:	90 91 62 08 	lds	r25, 0x0862	; 0x800862 <screen_scrollHeight>
    9a60:	29 2f       	mov	r18, r25
    9a62:	22 0f       	add	r18, r18
    9a64:	22 0f       	add	r18, r18
    9a66:	22 0f       	add	r18, r18
    9a68:	90 91 61 08 	lds	r25, 0x0861	; 0x800861 <screen_scrollY>
    9a6c:	96 0f       	add	r25, r22
    9a6e:	90 93 61 08 	sts	0x0861, r25	; 0x800861 <screen_scrollY>
    9a72:	30 91 60 08 	lds	r19, 0x0860	; 0x800860 <screen_scrollX>
    9a76:	83 0f       	add	r24, r19
    9a78:	80 93 60 08 	sts	0x0860, r24	; 0x800860 <screen_scrollX>
    9a7c:	92 17       	cp	r25, r18
    9a7e:	38 f0       	brcs	.+14     	; 0x9a8e <Scroll+0x32>
    9a80:	67 fd       	sbrc	r22, 7
    9a82:	02 c0       	rjmp	.+4      	; 0x9a88 <Scroll+0x2c>
    9a84:	92 1b       	sub	r25, r18
    9a86:	01 c0       	rjmp	.+2      	; 0x9a8a <Scroll+0x2e>
    9a88:	92 0f       	add	r25, r18
    9a8a:	90 93 61 08 	sts	0x0861, r25	; 0x800861 <screen_scrollY>
    9a8e:	08 95       	ret

00009a90 <MapSprite2>:
    9a90:	df 92       	push	r13
    9a92:	ef 92       	push	r14
    9a94:	ff 92       	push	r15
    9a96:	0f 93       	push	r16
    9a98:	1f 93       	push	r17
    9a9a:	cf 93       	push	r28
    9a9c:	df 93       	push	r29
    9a9e:	fb 01       	movw	r30, r22
    9aa0:	14 91       	lpm	r17, Z
    9aa2:	31 96       	adiw	r30, 0x01	; 1
    9aa4:	54 91       	lpm	r21, Z
    9aa6:	2f ef       	ldi	r18, 0xFF	; 255
    9aa8:	21 0f       	add	r18, r17
    9aaa:	e4 2f       	mov	r30, r20
    9aac:	e1 70       	andi	r30, 0x01	; 1
    9aae:	40 ff       	sbrs	r20, 0
    9ab0:	03 c0       	rjmp	.+6      	; 0x9ab8 <MapSprite2+0x28>
    9ab2:	92 2f       	mov	r25, r18
    9ab4:	df ef       	ldi	r29, 0xFF	; 255
    9ab6:	02 c0       	rjmp	.+4      	; 0x9abc <MapSprite2+0x2c>
    9ab8:	d1 e0       	ldi	r29, 0x01	; 1
    9aba:	90 e0       	ldi	r25, 0x00	; 0
    9abc:	41 ff       	sbrs	r20, 1
    9abe:	04 c0       	rjmp	.+8      	; 0x9ac8 <MapSprite2+0x38>
    9ac0:	3f ef       	ldi	r19, 0xFF	; 255
    9ac2:	35 0f       	add	r19, r21
    9ac4:	0f ef       	ldi	r16, 0xFF	; 255
    9ac6:	02 c0       	rjmp	.+4      	; 0x9acc <MapSprite2+0x3c>
    9ac8:	01 e0       	ldi	r16, 0x01	; 1
    9aca:	30 e0       	ldi	r19, 0x00	; 0
    9acc:	ee 23       	and	r30, r30
    9ace:	11 f0       	breq	.+4      	; 0x9ad4 <MapSprite2+0x44>
    9ad0:	e2 2e       	mov	r14, r18
    9ad2:	01 c0       	rjmp	.+2      	; 0x9ad6 <MapSprite2+0x46>
    9ad4:	e1 2c       	mov	r14, r1
    9ad6:	c0 e0       	ldi	r28, 0x00	; 0
    9ad8:	c5 17       	cp	r28, r21
    9ada:	f9 f0       	breq	.+62     	; 0x9b1a <MapSprite2+0x8a>
    9adc:	31 03       	mulsu	r19, r17
    9ade:	d0 01       	movw	r26, r0
    9ae0:	11 24       	eor	r1, r1
    9ae2:	d8 2e       	mov	r13, r24
    9ae4:	d1 0e       	add	r13, r17
    9ae6:	8d 15       	cp	r24, r13
    9ae8:	a1 f0       	breq	.+40     	; 0x9b12 <MapSprite2+0x82>
    9aea:	fd 01       	movw	r30, r26
    9aec:	e9 0f       	add	r30, r25
    9aee:	f1 1d       	adc	r31, r1
    9af0:	97 fd       	sbrc	r25, 7
    9af2:	fa 95       	dec	r31
    9af4:	32 96       	adiw	r30, 0x02	; 2
    9af6:	e6 0f       	add	r30, r22
    9af8:	f7 1f       	adc	r31, r23
    9afa:	f4 90       	lpm	r15, Z
    9afc:	24 e0       	ldi	r18, 0x04	; 4
    9afe:	82 9f       	mul	r24, r18
    9b00:	f0 01       	movw	r30, r0
    9b02:	11 24       	eor	r1, r1
    9b04:	ea 5f       	subi	r30, 0xFA	; 250
    9b06:	fe 4f       	sbci	r31, 0xFE	; 254
    9b08:	f2 82       	std	Z+2, r15	; 0x02
    9b0a:	8f 5f       	subi	r24, 0xFF	; 255
    9b0c:	43 83       	std	Z+3, r20	; 0x03
    9b0e:	9d 0f       	add	r25, r29
    9b10:	ea cf       	rjmp	.-44     	; 0x9ae6 <MapSprite2+0x56>
    9b12:	30 0f       	add	r19, r16
    9b14:	cf 5f       	subi	r28, 0xFF	; 255
    9b16:	9e 2d       	mov	r25, r14
    9b18:	df cf       	rjmp	.-66     	; 0x9ad8 <MapSprite2+0x48>
    9b1a:	df 91       	pop	r29
    9b1c:	cf 91       	pop	r28
    9b1e:	1f 91       	pop	r17
    9b20:	0f 91       	pop	r16
    9b22:	ff 90       	pop	r15
    9b24:	ef 90       	pop	r14
    9b26:	df 90       	pop	r13
    9b28:	08 95       	ret

00009b2a <MoveSprite>:
    9b2a:	0f 93       	push	r16
    9b2c:	30 e0       	ldi	r19, 0x00	; 0
    9b2e:	30 17       	cp	r19, r16
    9b30:	99 f0       	breq	.+38     	; 0x9b58 <MoveSprite+0x2e>
    9b32:	58 2f       	mov	r21, r24
    9b34:	52 0f       	add	r21, r18
    9b36:	96 2f       	mov	r25, r22
    9b38:	85 17       	cp	r24, r21
    9b3a:	59 f0       	breq	.+22     	; 0x9b52 <MoveSprite+0x28>
    9b3c:	74 e0       	ldi	r23, 0x04	; 4
    9b3e:	87 9f       	mul	r24, r23
    9b40:	f0 01       	movw	r30, r0
    9b42:	11 24       	eor	r1, r1
    9b44:	ea 5f       	subi	r30, 0xFA	; 250
    9b46:	fe 4f       	sbci	r31, 0xFE	; 254
    9b48:	90 83       	st	Z, r25
    9b4a:	41 83       	std	Z+1, r20	; 0x01
    9b4c:	8f 5f       	subi	r24, 0xFF	; 255
    9b4e:	98 5f       	subi	r25, 0xF8	; 248
    9b50:	f3 cf       	rjmp	.-26     	; 0x9b38 <MoveSprite+0xe>
    9b52:	3f 5f       	subi	r19, 0xFF	; 255
    9b54:	48 5f       	subi	r20, 0xF8	; 248
    9b56:	eb cf       	rjmp	.-42     	; 0x9b2e <MoveSprite+0x4>
    9b58:	0f 91       	pop	r16
    9b5a:	08 95       	ret

00009b5c <InitializeVideoMode>:
    9b5c:	e6 e0       	ldi	r30, 0x06	; 6
    9b5e:	f1 e0       	ldi	r31, 0x01	; 1
    9b60:	80 ee       	ldi	r24, 0xE0	; 224
    9b62:	80 83       	st	Z, r24
    9b64:	81 83       	std	Z+1, r24	; 0x01
    9b66:	34 96       	adiw	r30, 0x04	; 4
    9b68:	91 e0       	ldi	r25, 0x01	; 1
    9b6a:	ee 33       	cpi	r30, 0x3E	; 62
    9b6c:	f9 07       	cpc	r31, r25
    9b6e:	c9 f7       	brne	.-14     	; 0x9b62 <InitializeVideoMode+0x6>
    9b70:	80 e2       	ldi	r24, 0x20	; 32
    9b72:	80 93 62 08 	sts	0x0862, r24	; 0x800862 <screen_scrollHeight>
    9b76:	10 92 5d 08 	sts	0x085D, r1	; 0x80085d <Screen>
    9b7a:	10 92 4f 08 	sts	0x084F, r1	; 0x80084f <free_tile_index>
    9b7e:	10 92 51 08 	sts	0x0851, r1	; 0x800851 <user_ram_tiles_c_tmp>
    9b82:	08 95       	ret

00009b84 <DrawMap>:
    9b84:	7f 92       	push	r7
    9b86:	8f 92       	push	r8
    9b88:	9f 92       	push	r9
    9b8a:	af 92       	push	r10
    9b8c:	bf 92       	push	r11
    9b8e:	cf 92       	push	r12
    9b90:	df 92       	push	r13
    9b92:	ef 92       	push	r14
    9b94:	ff 92       	push	r15
    9b96:	0f 93       	push	r16
    9b98:	1f 93       	push	r17
    9b9a:	cf 93       	push	r28
    9b9c:	df 93       	push	r29
    9b9e:	98 2e       	mov	r9, r24
    9ba0:	86 2e       	mov	r8, r22
    9ba2:	fa 01       	movw	r30, r20
    9ba4:	e4 90       	lpm	r14, Z
    9ba6:	31 96       	adiw	r30, 0x01	; 1
    9ba8:	f4 90       	lpm	r15, Z
    9baa:	ae 2c       	mov	r10, r14
    9bac:	b1 2c       	mov	r11, r1
    9bae:	ea 01       	movw	r28, r20
    9bb0:	22 96       	adiw	r28, 0x02	; 2
    9bb2:	10 e0       	ldi	r17, 0x00	; 0
    9bb4:	1f 15       	cp	r17, r15
    9bb6:	b9 f0       	breq	.+46     	; 0x9be6 <DrawMap+0x62>
    9bb8:	6e 01       	movw	r12, r28
    9bba:	00 e0       	ldi	r16, 0x00	; 0
    9bbc:	71 2e       	mov	r7, r17
    9bbe:	78 0c       	add	r7, r8
    9bc0:	0e 15       	cp	r16, r14
    9bc2:	69 f0       	breq	.+26     	; 0x9bde <DrawMap+0x5a>
    9bc4:	f6 01       	movw	r30, r12
    9bc6:	44 91       	lpm	r20, Z
    9bc8:	50 e0       	ldi	r21, 0x00	; 0
    9bca:	67 2d       	mov	r22, r7
    9bcc:	80 2f       	mov	r24, r16
    9bce:	89 0d       	add	r24, r9
    9bd0:	0e 94 4e 41 	call	0x829c	; 0x829c <SetTile>
    9bd4:	0f 5f       	subi	r16, 0xFF	; 255
    9bd6:	ff ef       	ldi	r31, 0xFF	; 255
    9bd8:	cf 1a       	sub	r12, r31
    9bda:	df 0a       	sbc	r13, r31
    9bdc:	f1 cf       	rjmp	.-30     	; 0x9bc0 <DrawMap+0x3c>
    9bde:	1f 5f       	subi	r17, 0xFF	; 255
    9be0:	ca 0d       	add	r28, r10
    9be2:	db 1d       	adc	r29, r11
    9be4:	e7 cf       	rjmp	.-50     	; 0x9bb4 <DrawMap+0x30>
    9be6:	df 91       	pop	r29
    9be8:	cf 91       	pop	r28
    9bea:	1f 91       	pop	r17
    9bec:	0f 91       	pop	r16
    9bee:	ff 90       	pop	r15
    9bf0:	ef 90       	pop	r14
    9bf2:	df 90       	pop	r13
    9bf4:	cf 90       	pop	r12
    9bf6:	bf 90       	pop	r11
    9bf8:	af 90       	pop	r10
    9bfa:	9f 90       	pop	r9
    9bfc:	8f 90       	pop	r8
    9bfe:	7f 90       	pop	r7
    9c00:	08 95       	ret

00009c02 <WaitVsync>:

//Wait for the beginning of next frame (60hz)
void WaitVsync(int count){
    9c02:	0f 93       	push	r16
    9c04:	1f 93       	push	r17
    9c06:	cf 93       	push	r28
    9c08:	df 93       	push	r29
    9c0a:	8c 01       	movw	r16, r24
	int i;
	//ClearVsyncFlag();
	for(i=0;i<count;i++){
    9c0c:	c0 e0       	ldi	r28, 0x00	; 0
    9c0e:	d0 e0       	ldi	r29, 0x00	; 0
    9c10:	c0 17       	cp	r28, r16
    9c12:	d1 07       	cpc	r29, r17
    9c14:	44 f4       	brge	.+16     	; 0x9c26 <WaitVsync+0x24>
		while(!GetVsyncFlag());
    9c16:	0e 94 64 41 	call	0x82c8	; 0x82c8 <GetVsyncFlag>
    9c1a:	88 23       	and	r24, r24
    9c1c:	e1 f3       	breq	.-8      	; 0x9c16 <WaitVsync+0x14>
		ClearVsyncFlag();		
    9c1e:	0e 94 68 41 	call	0x82d0	; 0x82d0 <ClearVsyncFlag>

//Wait for the beginning of next frame (60hz)
void WaitVsync(int count){
	int i;
	//ClearVsyncFlag();
	for(i=0;i<count;i++){
    9c22:	21 96       	adiw	r28, 0x01	; 1
    9c24:	f5 cf       	rjmp	.-22     	; 0x9c10 <WaitVsync+0xe>
		while(!GetVsyncFlag());
		ClearVsyncFlag();		
	}
}
    9c26:	df 91       	pop	r29
    9c28:	cf 91       	pop	r28
    9c2a:	1f 91       	pop	r17
    9c2c:	0f 91       	pop	r16
    9c2e:	08 95       	ret

00009c30 <DisplayLogo>:
void DisplayLogo(){

	#if (INTRO_LOGO != 0)
	#define LOGO_X_POS ((SCREEN_TILES_H / 2U) - 2U)

	InitMusicPlayer(logoInitPatches);
    9c30:	83 e1       	ldi	r24, 0x13	; 19
    9c32:	99 e0       	ldi	r25, 0x09	; 9
    9c34:	0e 94 c9 42 	call	0x8592	; 0x8592 <InitMusicPlayer>
	SetTileTable(logo_tileset);
    9c38:	83 e1       	ldi	r24, 0x13	; 19
    9c3a:	91 e0       	ldi	r25, 0x01	; 1
    9c3c:	0e 94 5f 41 	call	0x82be	; 0x82be <SetTileTable>

	/* Draw logo */
	ClearVram();
    9c40:	0e 94 44 41 	call	0x8288	; 0x8288 <ClearVram>
	WaitVsync(15U);
    9c44:	8f e0       	ldi	r24, 0x0F	; 15
    9c46:	90 e0       	ldi	r25, 0x00	; 0
    9c48:	0e 94 01 4e 	call	0x9c02	; 0x9c02 <WaitVsync>

	#if (INTRO_LOGO == 1)
	TriggerFx(0U, 0xFFU, true);
    9c4c:	41 e0       	ldi	r20, 0x01	; 1
    9c4e:	6f ef       	ldi	r22, 0xFF	; 255
    9c50:	80 e0       	ldi	r24, 0x00	; 0
    9c52:	0e 94 c1 43 	call	0x8782	; 0x8782 <TriggerFx>
	#endif

	DrawMap2(LOGO_X_POS, 12U, map_uzeboxlogo);
    9c56:	4d ef       	ldi	r20, 0xFD	; 253
    9c58:	50 e0       	ldi	r21, 0x00	; 0
    9c5a:	6c e0       	ldi	r22, 0x0C	; 12
    9c5c:	8c e0       	ldi	r24, 0x0C	; 12
    9c5e:	0e 94 c2 4d 	call	0x9b84	; 0x9b84 <DrawMap>
	WaitVsync(3);
    9c62:	83 e0       	ldi	r24, 0x03	; 3
    9c64:	90 e0       	ldi	r25, 0x00	; 0
    9c66:	0e 94 01 4e 	call	0x9c02	; 0x9c02 <WaitVsync>
	DrawMap2(LOGO_X_POS, 12U, map_uzeboxlogo2);
    9c6a:	4c ee       	ldi	r20, 0xEC	; 236
    9c6c:	50 e0       	ldi	r21, 0x00	; 0
    9c6e:	6c e0       	ldi	r22, 0x0C	; 12
    9c70:	8c e0       	ldi	r24, 0x0C	; 12
    9c72:	0e 94 c2 4d 	call	0x9b84	; 0x9b84 <DrawMap>
	WaitVsync(2);
    9c76:	82 e0       	ldi	r24, 0x02	; 2
    9c78:	90 e0       	ldi	r25, 0x00	; 0
    9c7a:	0e 94 01 4e 	call	0x9c02	; 0x9c02 <WaitVsync>
	DrawMap2(LOGO_X_POS, 12U, map_uzeboxlogo);
    9c7e:	4d ef       	ldi	r20, 0xFD	; 253
    9c80:	50 e0       	ldi	r21, 0x00	; 0
    9c82:	6c e0       	ldi	r22, 0x0C	; 12
    9c84:	8c e0       	ldi	r24, 0x0C	; 12
    9c86:	0e 94 c2 4d 	call	0x9b84	; 0x9b84 <DrawMap>
	#if (INTRO_LOGO == 2)
	SetMasterVolume(0xC0U);
	TriggerNote(3U, 0U, 16U, 0xFFU);
	#endif

	WaitVsync(65U);
    9c8a:	81 e4       	ldi	r24, 0x41	; 65
    9c8c:	90 e0       	ldi	r25, 0x00	; 0
    9c8e:	0e 94 01 4e 	call	0x9c02	; 0x9c02 <WaitVsync>
	ClearVram();
    9c92:	0e 94 44 41 	call	0x8288	; 0x8288 <ClearVram>
	WaitVsync(20U);
    9c96:	84 e1       	ldi	r24, 0x14	; 20
    9c98:	90 e0       	ldi	r25, 0x00	; 0
    9c9a:	0c 94 01 4e 	jmp	0x9c02	; 0x9c02 <WaitVsync>

00009c9e <doFade>:
char fadeDir;
bool volatile fadeActive;


void doFade(unsigned char speed,bool blocking){
	fadeSpeed=speed;
    9c9e:	80 93 24 09 	sts	0x0924, r24	; 0x800924 <fadeSpeed>
	currFadeFrame=0;
    9ca2:	10 92 27 09 	sts	0x0927, r1	; 0x800927 <currFadeFrame>
	fadeActive=true;
    9ca6:	81 e0       	ldi	r24, 0x01	; 1
    9ca8:	80 93 26 09 	sts	0x0926, r24	; 0x800926 <fadeActive>
		
	if(blocking){
    9cac:	66 23       	and	r22, r22
    9cae:	21 f0       	breq	.+8      	; 0x9cb8 <doFade+0x1a>
		while(fadeActive==true);
    9cb0:	80 91 26 09 	lds	r24, 0x0926	; 0x800926 <fadeActive>
    9cb4:	81 11       	cpse	r24, r1
    9cb6:	fc cf       	rjmp	.-8      	; 0x9cb0 <doFade+0x12>
    9cb8:	08 95       	ret

00009cba <FadeIn>:
	
	
}

void FadeIn(unsigned char speed,bool blocking){
	if(speed==0){
    9cba:	81 11       	cpse	r24, r1
    9cbc:	03 c0       	rjmp	.+6      	; 0x9cc4 <FadeIn+0xa>
		DDRC=0xff;
    9cbe:	8f ef       	ldi	r24, 0xFF	; 255
    9cc0:	87 b9       	out	0x07, r24	; 7
		return;
    9cc2:	08 95       	ret
	}
	fadeStep=1;
    9cc4:	91 e0       	ldi	r25, 0x01	; 1
    9cc6:	90 93 28 09 	sts	0x0928, r25	; 0x800928 <fadeStep>
	fadeDir=1;
    9cca:	90 93 25 09 	sts	0x0925, r25	; 0x800925 <fadeDir>
	doFade(speed,blocking);
    9cce:	0c 94 4f 4e 	jmp	0x9c9e	; 0x9c9e <doFade>

00009cd2 <FadeOut>:
}

void FadeOut(unsigned char speed,bool blocking){
	if(speed==0){
    9cd2:	81 11       	cpse	r24, r1
    9cd4:	02 c0       	rjmp	.+4      	; 0x9cda <FadeOut+0x8>
		DDRC=0;
    9cd6:	17 b8       	out	0x07, r1	; 7
		return;
    9cd8:	08 95       	ret
	}
	
	fadeStep=FADER_STEPS;
    9cda:	9c e0       	ldi	r25, 0x0C	; 12
    9cdc:	90 93 28 09 	sts	0x0928, r25	; 0x800928 <fadeStep>
	fadeDir=-1;
    9ce0:	9f ef       	ldi	r25, 0xFF	; 255
    9ce2:	90 93 25 09 	sts	0x0925, r25	; 0x800925 <fadeDir>
	doFade(speed,blocking);
    9ce6:	0c 94 4f 4e 	jmp	0x9c9e	; 0x9c9e <doFade>

00009cea <ProcessFading>:
}


//called by the kernel at each field end
void ProcessFading(){
	if(fadeActive==true){
    9cea:	80 91 26 09 	lds	r24, 0x0926	; 0x800926 <fadeActive>
    9cee:	88 23       	and	r24, r24
    9cf0:	01 f1       	breq	.+64     	; 0x9d32 <ProcessFading+0x48>
		if(currFadeFrame==0){
    9cf2:	80 91 27 09 	lds	r24, 0x0927	; 0x800927 <currFadeFrame>
    9cf6:	81 11       	cpse	r24, r1
    9cf8:	19 c0       	rjmp	.+50     	; 0x9d2c <ProcessFading+0x42>
			currFadeFrame=fadeSpeed;
    9cfa:	80 91 24 09 	lds	r24, 0x0924	; 0x800924 <fadeSpeed>
    9cfe:	80 93 27 09 	sts	0x0927, r24	; 0x800927 <currFadeFrame>
			DDRC = pgm_read_byte(&(fader[fadeStep-1]));
    9d02:	e0 91 28 09 	lds	r30, 0x0928	; 0x800928 <fadeStep>
    9d06:	f0 e0       	ldi	r31, 0x00	; 0
    9d08:	e1 52       	subi	r30, 0x21	; 33
    9d0a:	ff 4f       	sbci	r31, 0xFF	; 255
    9d0c:	e4 91       	lpm	r30, Z
    9d0e:	e7 b9       	out	0x07, r30	; 7
			fadeStep+=fadeDir;
    9d10:	90 91 28 09 	lds	r25, 0x0928	; 0x800928 <fadeStep>
    9d14:	80 91 25 09 	lds	r24, 0x0925	; 0x800925 <fadeDir>
    9d18:	89 0f       	add	r24, r25
    9d1a:	80 93 28 09 	sts	0x0928, r24	; 0x800928 <fadeStep>
			if(fadeStep==0 || fadeStep==(FADER_STEPS+1)){
    9d1e:	88 23       	and	r24, r24
    9d20:	11 f0       	breq	.+4      	; 0x9d26 <ProcessFading+0x3c>
    9d22:	8d 30       	cpi	r24, 0x0D	; 13
    9d24:	31 f4       	brne	.+12     	; 0x9d32 <ProcessFading+0x48>
				fadeActive=false;
    9d26:	10 92 26 09 	sts	0x0926, r1	; 0x800926 <fadeActive>
    9d2a:	08 95       	ret
			}
		}else{
			currFadeFrame--;
    9d2c:	81 50       	subi	r24, 0x01	; 1
    9d2e:	80 93 27 09 	sts	0x0927, r24	; 0x800927 <currFadeFrame>
    9d32:	08 95       	ret

00009d34 <VideoModeVsync>:
/*
** Callback invoked during hsync
*/
void VideoModeVsync(){

	ProcessFading();
    9d34:	0e 94 75 4e 	call	0x9cea	; 0x9cea <ProcessFading>
	#if (SPRITES_VSYNC_PROCESS != 0)
	ProcessSprites();
    9d38:	0c 94 00 4c 	jmp	0x9800	; 0x9800 <ProcessSprites>

00009d3c <vsync_callback>:
};
}
}

void vsync_callback() {
	time++;
    9d3c:	80 91 30 0a 	lds	r24, 0x0A30	; 0x800a30 <time>
    9d40:	90 91 31 0a 	lds	r25, 0x0A31	; 0x800a31 <time+0x1>
    9d44:	a0 91 32 0a 	lds	r26, 0x0A32	; 0x800a32 <time+0x2>
    9d48:	b0 91 33 0a 	lds	r27, 0x0A33	; 0x800a33 <time+0x3>
    9d4c:	01 96       	adiw	r24, 0x01	; 1
    9d4e:	a1 1d       	adc	r26, r1
    9d50:	b1 1d       	adc	r27, r1
    9d52:	80 93 30 0a 	sts	0x0A30, r24	; 0x800a30 <time>
    9d56:	90 93 31 0a 	sts	0x0A31, r25	; 0x800a31 <time+0x1>
    9d5a:	a0 93 32 0a 	sts	0x0A32, r26	; 0x800a32 <time+0x2>
    9d5e:	b0 93 33 0a 	sts	0x0A33, r27	; 0x800a33 <time+0x3>
    9d62:	08 95       	ret

00009d64 <drawplayer>:
return;
  
}

void drawplayer()
{
    9d64:	0f 93       	push	r16
 
//if  ( player.jumping == false  )
//{
if (player.direction == 'r' && player.aniframe == 0 ) MapSprite2(0 ,pac0 ,0);
    9d66:	80 91 73 09 	lds	r24, 0x0973	; 0x800973 <player+0xe>
    9d6a:	82 37       	cpi	r24, 0x72	; 114
    9d6c:	49 f4       	brne	.+18     	; 0x9d80 <drawplayer+0x1c>
    9d6e:	80 91 80 09 	lds	r24, 0x0980	; 0x800980 <player+0x1b>
    9d72:	81 11       	cpse	r24, r1
    9d74:	05 c0       	rjmp	.+10     	; 0x9d80 <drawplayer+0x1c>
    9d76:	40 e0       	ldi	r20, 0x00	; 0
    9d78:	63 e2       	ldi	r22, 0x23	; 35
    9d7a:	77 e4       	ldi	r23, 0x47	; 71
    9d7c:	0e 94 48 4d 	call	0x9a90	; 0x9a90 <MapSprite2>
if (player.direction == 'l' && player.aniframe == 0 ) MapSprite2(0 ,pac0 ,1);
    9d80:	80 91 73 09 	lds	r24, 0x0973	; 0x800973 <player+0xe>
    9d84:	8c 36       	cpi	r24, 0x6C	; 108
    9d86:	49 f4       	brne	.+18     	; 0x9d9a <drawplayer+0x36>
    9d88:	80 91 80 09 	lds	r24, 0x0980	; 0x800980 <player+0x1b>
    9d8c:	81 11       	cpse	r24, r1
    9d8e:	05 c0       	rjmp	.+10     	; 0x9d9a <drawplayer+0x36>
    9d90:	41 e0       	ldi	r20, 0x01	; 1
    9d92:	63 e2       	ldi	r22, 0x23	; 35
    9d94:	77 e4       	ldi	r23, 0x47	; 71
    9d96:	0e 94 48 4d 	call	0x9a90	; 0x9a90 <MapSprite2>
if (player.direction == 'r' && player.aniframe > 0 && player.aniframe  <= 8 )  MapSprite2(0 ,pac0 ,0);
    9d9a:	80 91 73 09 	lds	r24, 0x0973	; 0x800973 <player+0xe>
    9d9e:	82 37       	cpi	r24, 0x72	; 114
    9da0:	59 f4       	brne	.+22     	; 0x9db8 <drawplayer+0x54>
    9da2:	80 91 80 09 	lds	r24, 0x0980	; 0x800980 <player+0x1b>
    9da6:	81 50       	subi	r24, 0x01	; 1
    9da8:	88 30       	cpi	r24, 0x08	; 8
    9daa:	30 f4       	brcc	.+12     	; 0x9db8 <drawplayer+0x54>
    9dac:	40 e0       	ldi	r20, 0x00	; 0
    9dae:	63 e2       	ldi	r22, 0x23	; 35
    9db0:	77 e4       	ldi	r23, 0x47	; 71
    9db2:	80 e0       	ldi	r24, 0x00	; 0
    9db4:	0e 94 48 4d 	call	0x9a90	; 0x9a90 <MapSprite2>
if (player.direction == 'r' && player.aniframe > 8 && player.aniframe <= 16 ) MapSprite2(0 ,pac1 ,0);    
    9db8:	80 91 73 09 	lds	r24, 0x0973	; 0x800973 <player+0xe>
    9dbc:	82 37       	cpi	r24, 0x72	; 114
    9dbe:	59 f4       	brne	.+22     	; 0x9dd6 <drawplayer+0x72>
    9dc0:	80 91 80 09 	lds	r24, 0x0980	; 0x800980 <player+0x1b>
    9dc4:	89 50       	subi	r24, 0x09	; 9
    9dc6:	88 30       	cpi	r24, 0x08	; 8
    9dc8:	30 f4       	brcc	.+12     	; 0x9dd6 <drawplayer+0x72>
    9dca:	40 e0       	ldi	r20, 0x00	; 0
    9dcc:	6d e1       	ldi	r22, 0x1D	; 29
    9dce:	77 e4       	ldi	r23, 0x47	; 71
    9dd0:	80 e0       	ldi	r24, 0x00	; 0
    9dd2:	0e 94 48 4d 	call	0x9a90	; 0x9a90 <MapSprite2>
if (player.direction == 'r' && player.aniframe > 16 && player.aniframe <= 24 ) MapSprite2(0 ,pac2 ,0);  
    9dd6:	80 91 73 09 	lds	r24, 0x0973	; 0x800973 <player+0xe>
    9dda:	82 37       	cpi	r24, 0x72	; 114
    9ddc:	59 f4       	brne	.+22     	; 0x9df4 <drawplayer+0x90>
    9dde:	80 91 80 09 	lds	r24, 0x0980	; 0x800980 <player+0x1b>
    9de2:	81 51       	subi	r24, 0x11	; 17
    9de4:	88 30       	cpi	r24, 0x08	; 8
    9de6:	30 f4       	brcc	.+12     	; 0x9df4 <drawplayer+0x90>
    9de8:	40 e0       	ldi	r20, 0x00	; 0
    9dea:	67 e1       	ldi	r22, 0x17	; 23
    9dec:	77 e4       	ldi	r23, 0x47	; 71
    9dee:	80 e0       	ldi	r24, 0x00	; 0
    9df0:	0e 94 48 4d 	call	0x9a90	; 0x9a90 <MapSprite2>

if (player.direction == 'l' && player.aniframe > 0 && player.aniframe  <= 8 )  MapSprite2(0 ,pac0 ,1);
    9df4:	80 91 73 09 	lds	r24, 0x0973	; 0x800973 <player+0xe>
    9df8:	8c 36       	cpi	r24, 0x6C	; 108
    9dfa:	59 f4       	brne	.+22     	; 0x9e12 <drawplayer+0xae>
    9dfc:	80 91 80 09 	lds	r24, 0x0980	; 0x800980 <player+0x1b>
    9e00:	81 50       	subi	r24, 0x01	; 1
    9e02:	88 30       	cpi	r24, 0x08	; 8
    9e04:	30 f4       	brcc	.+12     	; 0x9e12 <drawplayer+0xae>
    9e06:	41 e0       	ldi	r20, 0x01	; 1
    9e08:	63 e2       	ldi	r22, 0x23	; 35
    9e0a:	77 e4       	ldi	r23, 0x47	; 71
    9e0c:	80 e0       	ldi	r24, 0x00	; 0
    9e0e:	0e 94 48 4d 	call	0x9a90	; 0x9a90 <MapSprite2>
if (player.direction == 'l' && player.aniframe > 8 && player.aniframe <= 16 ) MapSprite2(0 ,pac1 ,1);    
    9e12:	80 91 73 09 	lds	r24, 0x0973	; 0x800973 <player+0xe>
    9e16:	8c 36       	cpi	r24, 0x6C	; 108
    9e18:	59 f4       	brne	.+22     	; 0x9e30 <drawplayer+0xcc>
    9e1a:	80 91 80 09 	lds	r24, 0x0980	; 0x800980 <player+0x1b>
    9e1e:	89 50       	subi	r24, 0x09	; 9
    9e20:	88 30       	cpi	r24, 0x08	; 8
    9e22:	30 f4       	brcc	.+12     	; 0x9e30 <drawplayer+0xcc>
    9e24:	41 e0       	ldi	r20, 0x01	; 1
    9e26:	6d e1       	ldi	r22, 0x1D	; 29
    9e28:	77 e4       	ldi	r23, 0x47	; 71
    9e2a:	80 e0       	ldi	r24, 0x00	; 0
    9e2c:	0e 94 48 4d 	call	0x9a90	; 0x9a90 <MapSprite2>
if (player.direction == 'l' && player.aniframe > 16 && player.aniframe <= 24 ) MapSprite2(0 ,pac2 ,1);  
    9e30:	80 91 73 09 	lds	r24, 0x0973	; 0x800973 <player+0xe>
    9e34:	8c 36       	cpi	r24, 0x6C	; 108
    9e36:	59 f4       	brne	.+22     	; 0x9e4e <drawplayer+0xea>
    9e38:	80 91 80 09 	lds	r24, 0x0980	; 0x800980 <player+0x1b>
    9e3c:	81 51       	subi	r24, 0x11	; 17
    9e3e:	88 30       	cpi	r24, 0x08	; 8
    9e40:	30 f4       	brcc	.+12     	; 0x9e4e <drawplayer+0xea>
    9e42:	41 e0       	ldi	r20, 0x01	; 1
    9e44:	67 e1       	ldi	r22, 0x17	; 23
    9e46:	77 e4       	ldi	r23, 0x47	; 71
    9e48:	80 e0       	ldi	r24, 0x00	; 0
    9e4a:	0e 94 48 4d 	call	0x9a90	; 0x9a90 <MapSprite2>
//};

//if (player.direction == 'r' && player.jumping == true  ) MapSprite2(0 ,man3 ,0);   
//if (player.direction == 'l' && player.jumping == true ) MapSprite2(0 ,man3 ,1); 
if(player.stuck == true)
    9e4e:	80 91 6f 09 	lds	r24, 0x096F	; 0x80096f <player+0xa>
    9e52:	88 23       	and	r24, r24
    9e54:	31 f0       	breq	.+12     	; 0x9e62 <drawplayer+0xfe>
{
   MapSprite2(0 ,pac0 ,0);
    9e56:	40 e0       	ldi	r20, 0x00	; 0
    9e58:	63 e2       	ldi	r22, 0x23	; 35
    9e5a:	77 e4       	ldi	r23, 0x47	; 71
    9e5c:	80 e0       	ldi	r24, 0x00	; 0
    9e5e:	0e 94 48 4d 	call	0x9a90	; 0x9a90 <MapSprite2>
}
MoveSprite(0 ,player.x -7 ,player.y - 21  ,2 ,2);
    9e62:	40 91 67 09 	lds	r20, 0x0967	; 0x800967 <player+0x2>
    9e66:	45 51       	subi	r20, 0x15	; 21
    9e68:	60 91 65 09 	lds	r22, 0x0965	; 0x800965 <player>
    9e6c:	67 50       	subi	r22, 0x07	; 7
    9e6e:	02 e0       	ldi	r16, 0x02	; 2
    9e70:	22 e0       	ldi	r18, 0x02	; 2
    9e72:	80 e0       	ldi	r24, 0x00	; 0
    9e74:	0e 94 95 4d 	call	0x9b2a	; 0x9b2a <MoveSprite>



aniframe++;
    9e78:	80 91 9f 0a 	lds	r24, 0x0A9F	; 0x800a9f <aniframe>
    9e7c:	8f 5f       	subi	r24, 0xFF	; 255
if ( aniframe > 20 ) aniframe = 0;     
    9e7e:	85 31       	cpi	r24, 0x15	; 21
    9e80:	18 f4       	brcc	.+6      	; 0x9e88 <drawplayer+0x124>
}
MoveSprite(0 ,player.x -7 ,player.y - 21  ,2 ,2);



aniframe++;
    9e82:	80 93 9f 0a 	sts	0x0A9F, r24	; 0x800a9f <aniframe>
    9e86:	02 c0       	rjmp	.+4      	; 0x9e8c <drawplayer+0x128>
if ( aniframe > 20 ) aniframe = 0;     
    9e88:	10 92 9f 0a 	sts	0x0A9F, r1	; 0x800a9f <aniframe>


}
    9e8c:	0f 91       	pop	r16
    9e8e:	08 95       	ret

00009e90 <drawplayer2>:
void drawplayer2()
{
    9e90:	0f 93       	push	r16
 
//if  ( player.jumping == false  )
//{
if (player2.direction == 'r' && player2.aniframe == 0 ) MapSprite2(10 ,run0 ,0);
    9e92:	80 91 43 0a 	lds	r24, 0x0A43	; 0x800a43 <player2+0xe>
    9e96:	82 37       	cpi	r24, 0x72	; 114
    9e98:	51 f4       	brne	.+20     	; 0x9eae <drawplayer2+0x1e>
    9e9a:	80 91 50 0a 	lds	r24, 0x0A50	; 0x800a50 <player2+0x1b>
    9e9e:	81 11       	cpse	r24, r1
    9ea0:	06 c0       	rjmp	.+12     	; 0x9eae <drawplayer2+0x1e>
    9ea2:	40 e0       	ldi	r20, 0x00	; 0
    9ea4:	65 e0       	ldi	r22, 0x05	; 5
    9ea6:	77 e4       	ldi	r23, 0x47	; 71
    9ea8:	8a e0       	ldi	r24, 0x0A	; 10
    9eaa:	0e 94 48 4d 	call	0x9a90	; 0x9a90 <MapSprite2>
if (player2.direction == 'l' && player2.aniframe == 0 ) MapSprite2(10 ,run0 ,1);
    9eae:	80 91 43 0a 	lds	r24, 0x0A43	; 0x800a43 <player2+0xe>
    9eb2:	8c 36       	cpi	r24, 0x6C	; 108
    9eb4:	51 f4       	brne	.+20     	; 0x9eca <drawplayer2+0x3a>
    9eb6:	80 91 50 0a 	lds	r24, 0x0A50	; 0x800a50 <player2+0x1b>
    9eba:	81 11       	cpse	r24, r1
    9ebc:	06 c0       	rjmp	.+12     	; 0x9eca <drawplayer2+0x3a>
    9ebe:	41 e0       	ldi	r20, 0x01	; 1
    9ec0:	65 e0       	ldi	r22, 0x05	; 5
    9ec2:	77 e4       	ldi	r23, 0x47	; 71
    9ec4:	8a e0       	ldi	r24, 0x0A	; 10
    9ec6:	0e 94 48 4d 	call	0x9a90	; 0x9a90 <MapSprite2>
if (player2.direction == 'r' && player2.aniframe > 0 && player2.aniframe  <= 8 )  MapSprite2(10 ,run0 ,0);
    9eca:	80 91 43 0a 	lds	r24, 0x0A43	; 0x800a43 <player2+0xe>
    9ece:	82 37       	cpi	r24, 0x72	; 114
    9ed0:	59 f4       	brne	.+22     	; 0x9ee8 <drawplayer2+0x58>
    9ed2:	80 91 50 0a 	lds	r24, 0x0A50	; 0x800a50 <player2+0x1b>
    9ed6:	81 50       	subi	r24, 0x01	; 1
    9ed8:	88 30       	cpi	r24, 0x08	; 8
    9eda:	30 f4       	brcc	.+12     	; 0x9ee8 <drawplayer2+0x58>
    9edc:	40 e0       	ldi	r20, 0x00	; 0
    9ede:	65 e0       	ldi	r22, 0x05	; 5
    9ee0:	77 e4       	ldi	r23, 0x47	; 71
    9ee2:	8a e0       	ldi	r24, 0x0A	; 10
    9ee4:	0e 94 48 4d 	call	0x9a90	; 0x9a90 <MapSprite2>
if (player2.direction == 'r' && player2.aniframe > 8 && player2.aniframe <= 16 ) MapSprite2(10 ,run1 ,0);    
    9ee8:	80 91 43 0a 	lds	r24, 0x0A43	; 0x800a43 <player2+0xe>
    9eec:	82 37       	cpi	r24, 0x72	; 114
    9eee:	59 f4       	brne	.+22     	; 0x9f06 <drawplayer2+0x76>
    9ef0:	80 91 50 0a 	lds	r24, 0x0A50	; 0x800a50 <player2+0x1b>
    9ef4:	89 50       	subi	r24, 0x09	; 9
    9ef6:	88 30       	cpi	r24, 0x08	; 8
    9ef8:	30 f4       	brcc	.+12     	; 0x9f06 <drawplayer2+0x76>
    9efa:	40 e0       	ldi	r20, 0x00	; 0
    9efc:	6f ef       	ldi	r22, 0xFF	; 255
    9efe:	76 e4       	ldi	r23, 0x46	; 70
    9f00:	8a e0       	ldi	r24, 0x0A	; 10
    9f02:	0e 94 48 4d 	call	0x9a90	; 0x9a90 <MapSprite2>
if (player2.direction == 'r' && player2.aniframe > 16 && player2.aniframe <= 24 ) MapSprite2(10 ,run0 ,0);  
    9f06:	80 91 43 0a 	lds	r24, 0x0A43	; 0x800a43 <player2+0xe>
    9f0a:	82 37       	cpi	r24, 0x72	; 114
    9f0c:	59 f4       	brne	.+22     	; 0x9f24 <drawplayer2+0x94>
    9f0e:	80 91 50 0a 	lds	r24, 0x0A50	; 0x800a50 <player2+0x1b>
    9f12:	81 51       	subi	r24, 0x11	; 17
    9f14:	88 30       	cpi	r24, 0x08	; 8
    9f16:	30 f4       	brcc	.+12     	; 0x9f24 <drawplayer2+0x94>
    9f18:	40 e0       	ldi	r20, 0x00	; 0
    9f1a:	65 e0       	ldi	r22, 0x05	; 5
    9f1c:	77 e4       	ldi	r23, 0x47	; 71
    9f1e:	8a e0       	ldi	r24, 0x0A	; 10
    9f20:	0e 94 48 4d 	call	0x9a90	; 0x9a90 <MapSprite2>

if (player2.direction == 'l' && player2.aniframe > 0 && player2.aniframe  <= 8 )  MapSprite2(10 ,run0 ,1);
    9f24:	80 91 43 0a 	lds	r24, 0x0A43	; 0x800a43 <player2+0xe>
    9f28:	8c 36       	cpi	r24, 0x6C	; 108
    9f2a:	59 f4       	brne	.+22     	; 0x9f42 <drawplayer2+0xb2>
    9f2c:	80 91 50 0a 	lds	r24, 0x0A50	; 0x800a50 <player2+0x1b>
    9f30:	81 50       	subi	r24, 0x01	; 1
    9f32:	88 30       	cpi	r24, 0x08	; 8
    9f34:	30 f4       	brcc	.+12     	; 0x9f42 <drawplayer2+0xb2>
    9f36:	41 e0       	ldi	r20, 0x01	; 1
    9f38:	65 e0       	ldi	r22, 0x05	; 5
    9f3a:	77 e4       	ldi	r23, 0x47	; 71
    9f3c:	8a e0       	ldi	r24, 0x0A	; 10
    9f3e:	0e 94 48 4d 	call	0x9a90	; 0x9a90 <MapSprite2>
if (player2.direction == 'l' && player2.aniframe > 8 && player2.aniframe <= 16 ) MapSprite2(10 ,run1 ,1);    
    9f42:	80 91 43 0a 	lds	r24, 0x0A43	; 0x800a43 <player2+0xe>
    9f46:	8c 36       	cpi	r24, 0x6C	; 108
    9f48:	59 f4       	brne	.+22     	; 0x9f60 <drawplayer2+0xd0>
    9f4a:	80 91 50 0a 	lds	r24, 0x0A50	; 0x800a50 <player2+0x1b>
    9f4e:	89 50       	subi	r24, 0x09	; 9
    9f50:	88 30       	cpi	r24, 0x08	; 8
    9f52:	30 f4       	brcc	.+12     	; 0x9f60 <drawplayer2+0xd0>
    9f54:	41 e0       	ldi	r20, 0x01	; 1
    9f56:	6f ef       	ldi	r22, 0xFF	; 255
    9f58:	76 e4       	ldi	r23, 0x46	; 70
    9f5a:	8a e0       	ldi	r24, 0x0A	; 10
    9f5c:	0e 94 48 4d 	call	0x9a90	; 0x9a90 <MapSprite2>
if (player2.direction == 'l' && player2.aniframe > 16 && player2.aniframe <= 24 ) MapSprite2(10 ,run0 ,1);  
    9f60:	80 91 43 0a 	lds	r24, 0x0A43	; 0x800a43 <player2+0xe>
    9f64:	8c 36       	cpi	r24, 0x6C	; 108
    9f66:	59 f4       	brne	.+22     	; 0x9f7e <drawplayer2+0xee>
    9f68:	80 91 50 0a 	lds	r24, 0x0A50	; 0x800a50 <player2+0x1b>
    9f6c:	81 51       	subi	r24, 0x11	; 17
    9f6e:	88 30       	cpi	r24, 0x08	; 8
    9f70:	30 f4       	brcc	.+12     	; 0x9f7e <drawplayer2+0xee>
    9f72:	41 e0       	ldi	r20, 0x01	; 1
    9f74:	65 e0       	ldi	r22, 0x05	; 5
    9f76:	77 e4       	ldi	r23, 0x47	; 71
    9f78:	8a e0       	ldi	r24, 0x0A	; 10
    9f7a:	0e 94 48 4d 	call	0x9a90	; 0x9a90 <MapSprite2>
//};

//if (player.direction == 'r' && player.jumping == true  ) MapSprite2(0 ,man3 ,0);   
//if (player.direction == 'l' && player.jumping == true ) MapSprite2(0 ,man3 ,1); 
if(player.stuck == true)
    9f7e:	80 91 6f 09 	lds	r24, 0x096F	; 0x80096f <player+0xa>
    9f82:	88 23       	and	r24, r24
    9f84:	31 f0       	breq	.+12     	; 0x9f92 <drawplayer2+0x102>
{
   MapSprite2(10 ,run0 ,0);
    9f86:	40 e0       	ldi	r20, 0x00	; 0
    9f88:	65 e0       	ldi	r22, 0x05	; 5
    9f8a:	77 e4       	ldi	r23, 0x47	; 71
    9f8c:	8a e0       	ldi	r24, 0x0A	; 10
    9f8e:	0e 94 48 4d 	call	0x9a90	; 0x9a90 <MapSprite2>
}
MoveSprite(10 ,player2.x -7 ,player2.y - 21  ,2 ,2);
    9f92:	40 91 37 0a 	lds	r20, 0x0A37	; 0x800a37 <player2+0x2>
    9f96:	45 51       	subi	r20, 0x15	; 21
    9f98:	60 91 35 0a 	lds	r22, 0x0A35	; 0x800a35 <player2>
    9f9c:	67 50       	subi	r22, 0x07	; 7
    9f9e:	02 e0       	ldi	r16, 0x02	; 2
    9fa0:	22 e0       	ldi	r18, 0x02	; 2
    9fa2:	8a e0       	ldi	r24, 0x0A	; 10
    9fa4:	0e 94 95 4d 	call	0x9b2a	; 0x9b2a <MoveSprite>

//aniframe++;
//if ( aniframe > 20 ) aniframe = 0;     


}
    9fa8:	0f 91       	pop	r16
    9faa:	08 95       	ret

00009fac <printtileint>:

void printtileint(int x, int y, int z,int l)
{
    9fac:	ef 92       	push	r14
    9fae:	ff 92       	push	r15
    9fb0:	1f 93       	push	r17
    9fb2:	cf 93       	push	r28
    9fb4:	df 93       	push	r29
    9fb6:	cd b7       	in	r28, 0x3d	; 61
    9fb8:	de b7       	in	r29, 0x3e	; 62
    9fba:	2a 97       	sbiw	r28, 0x0a	; 10
    9fbc:	0f b6       	in	r0, 0x3f	; 63
    9fbe:	f8 94       	cli
    9fc0:	de bf       	out	0x3e, r29	; 62
    9fc2:	0f be       	out	0x3f, r0	; 63
    9fc4:	cd bf       	out	0x3d, r28	; 61
    9fc6:	18 2f       	mov	r17, r24
    9fc8:	fa 01       	movw	r30, r20
    9fca:	79 01       	movw	r14, r18
unsigned char str[10];
str[0] = ' ';   
    9fcc:	90 e2       	ldi	r25, 0x20	; 32
    9fce:	99 83       	std	Y+1, r25	; 0x01
str[1] = ' ';   
    9fd0:	9a 83       	std	Y+2, r25	; 0x02
str[2] = ' ';   
    9fd2:	9b 83       	std	Y+3, r25	; 0x03
str[3] = ' ';   
    9fd4:	9c 83       	std	Y+4, r25	; 0x04
str[4] = ' ';   
    9fd6:	9d 83       	std	Y+5, r25	; 0x05
str[5] = ' ';   
    9fd8:	9e 83       	std	Y+6, r25	; 0x06
str[6] = ' ';   
    9fda:	9f 83       	std	Y+7, r25	; 0x07
str[7] = ' ';   
    9fdc:	98 87       	std	Y+8, r25	; 0x08
str[8] = ' ';
    9fde:	99 87       	std	Y+9, r25	; 0x09
str[9] = ' ';   
    9fe0:	9a 87       	std	Y+10, r25	; 0x0a
    } else if (__radix < 2 || __radix > 36) {
	*__s = 0;
	return __s;
    } else {
	extern char *__itoa_ncheck (int, char *, unsigned char);
	return __itoa_ncheck (__val, __s, __radix);
    9fe2:	4a e0       	ldi	r20, 0x0A	; 10
    9fe4:	be 01       	movw	r22, r28
    9fe6:	6f 5f       	subi	r22, 0xFF	; 255
    9fe8:	7f 4f       	sbci	r23, 0xFF	; 255
    9fea:	cf 01       	movw	r24, r30
    9fec:	0e 94 58 68 	call	0xd0b0	; 0xd0b0 <__itoa_ncheck>
//DrawMap2(0,VRAM_TILES_V,n1);
itoa(z, str, 10);
for ( lx = 0; lx < 6 && lx < l; lx++) 
    9ff0:	10 92 9e 0a 	sts	0x0A9E, r1	; 0x800a9e <lx+0x1>
    9ff4:	10 92 9d 0a 	sts	0x0A9D, r1	; 0x800a9d <lx>
    9ff8:	80 91 9d 0a 	lds	r24, 0x0A9D	; 0x800a9d <lx>
    9ffc:	90 91 9e 0a 	lds	r25, 0x0A9E	; 0x800a9e <lx+0x1>
    a000:	86 30       	cpi	r24, 0x06	; 6
    a002:	91 05       	cpc	r25, r1
    a004:	0c f0       	brlt	.+2      	; 0xa008 <printtileint+0x5c>
    a006:	f8 c0       	rjmp	.+496    	; 0xa1f8 <printtileint+0x24c>
    a008:	8e 15       	cp	r24, r14
    a00a:	9f 05       	cpc	r25, r15
    a00c:	0c f0       	brlt	.+2      	; 0xa010 <printtileint+0x64>
    a00e:	f4 c0       	rjmp	.+488    	; 0xa1f8 <printtileint+0x24c>
{
//DrawMap2(x + i  + scrolltiles / 2,y, nb ); 
DrawMap2( lx + x,VRAM_TILES_V, nb ); 
    a010:	41 ee       	ldi	r20, 0xE1	; 225
    a012:	56 e7       	ldi	r21, 0x76	; 118
    a014:	60 e2       	ldi	r22, 0x20	; 32
    a016:	81 0f       	add	r24, r17
    a018:	0e 94 c2 4d 	call	0x9b84	; 0x9b84 <DrawMap>
if (str[lx] == '0' ) DrawMap2(lx + x,VRAM_TILES_V, n0 );  
    a01c:	80 91 9d 0a 	lds	r24, 0x0A9D	; 0x800a9d <lx>
    a020:	90 91 9e 0a 	lds	r25, 0x0A9E	; 0x800a9e <lx+0x1>
    a024:	e1 e0       	ldi	r30, 0x01	; 1
    a026:	f0 e0       	ldi	r31, 0x00	; 0
    a028:	ec 0f       	add	r30, r28
    a02a:	fd 1f       	adc	r31, r29
    a02c:	e8 0f       	add	r30, r24
    a02e:	f9 1f       	adc	r31, r25
    a030:	20 81       	ld	r18, Z
    a032:	20 33       	cpi	r18, 0x30	; 48
    a034:	31 f4       	brne	.+12     	; 0xa042 <printtileint+0x96>
    a036:	4e ed       	ldi	r20, 0xDE	; 222
    a038:	56 e7       	ldi	r21, 0x76	; 118
    a03a:	60 e2       	ldi	r22, 0x20	; 32
    a03c:	81 0f       	add	r24, r17
    a03e:	0e 94 c2 4d 	call	0x9b84	; 0x9b84 <DrawMap>
if (str[lx] == '1' ) DrawMap2(lx + x,VRAM_TILES_V, n1 ); 
    a042:	80 91 9d 0a 	lds	r24, 0x0A9D	; 0x800a9d <lx>
    a046:	90 91 9e 0a 	lds	r25, 0x0A9E	; 0x800a9e <lx+0x1>
    a04a:	e1 e0       	ldi	r30, 0x01	; 1
    a04c:	f0 e0       	ldi	r31, 0x00	; 0
    a04e:	ec 0f       	add	r30, r28
    a050:	fd 1f       	adc	r31, r29
    a052:	e8 0f       	add	r30, r24
    a054:	f9 1f       	adc	r31, r25
    a056:	20 81       	ld	r18, Z
    a058:	21 33       	cpi	r18, 0x31	; 49
    a05a:	31 f4       	brne	.+12     	; 0xa068 <printtileint+0xbc>
    a05c:	4b ed       	ldi	r20, 0xDB	; 219
    a05e:	56 e7       	ldi	r21, 0x76	; 118
    a060:	60 e2       	ldi	r22, 0x20	; 32
    a062:	81 0f       	add	r24, r17
    a064:	0e 94 c2 4d 	call	0x9b84	; 0x9b84 <DrawMap>
if (str[lx] == '2' ) DrawMap2(lx + x,VRAM_TILES_V, n2 ); 
    a068:	80 91 9d 0a 	lds	r24, 0x0A9D	; 0x800a9d <lx>
    a06c:	90 91 9e 0a 	lds	r25, 0x0A9E	; 0x800a9e <lx+0x1>
    a070:	e1 e0       	ldi	r30, 0x01	; 1
    a072:	f0 e0       	ldi	r31, 0x00	; 0
    a074:	ec 0f       	add	r30, r28
    a076:	fd 1f       	adc	r31, r29
    a078:	e8 0f       	add	r30, r24
    a07a:	f9 1f       	adc	r31, r25
    a07c:	20 81       	ld	r18, Z
    a07e:	22 33       	cpi	r18, 0x32	; 50
    a080:	31 f4       	brne	.+12     	; 0xa08e <printtileint+0xe2>
    a082:	48 ed       	ldi	r20, 0xD8	; 216
    a084:	56 e7       	ldi	r21, 0x76	; 118
    a086:	60 e2       	ldi	r22, 0x20	; 32
    a088:	81 0f       	add	r24, r17
    a08a:	0e 94 c2 4d 	call	0x9b84	; 0x9b84 <DrawMap>
if (str[lx] == '3' ) DrawMap2(lx + x,VRAM_TILES_V, n3 ); 
    a08e:	80 91 9d 0a 	lds	r24, 0x0A9D	; 0x800a9d <lx>
    a092:	90 91 9e 0a 	lds	r25, 0x0A9E	; 0x800a9e <lx+0x1>
    a096:	e1 e0       	ldi	r30, 0x01	; 1
    a098:	f0 e0       	ldi	r31, 0x00	; 0
    a09a:	ec 0f       	add	r30, r28
    a09c:	fd 1f       	adc	r31, r29
    a09e:	e8 0f       	add	r30, r24
    a0a0:	f9 1f       	adc	r31, r25
    a0a2:	20 81       	ld	r18, Z
    a0a4:	23 33       	cpi	r18, 0x33	; 51
    a0a6:	31 f4       	brne	.+12     	; 0xa0b4 <printtileint+0x108>
    a0a8:	45 ed       	ldi	r20, 0xD5	; 213
    a0aa:	56 e7       	ldi	r21, 0x76	; 118
    a0ac:	60 e2       	ldi	r22, 0x20	; 32
    a0ae:	81 0f       	add	r24, r17
    a0b0:	0e 94 c2 4d 	call	0x9b84	; 0x9b84 <DrawMap>
if (str[lx] == '4' ) DrawMap2(lx + x,VRAM_TILES_V, n4); 
    a0b4:	80 91 9d 0a 	lds	r24, 0x0A9D	; 0x800a9d <lx>
    a0b8:	90 91 9e 0a 	lds	r25, 0x0A9E	; 0x800a9e <lx+0x1>
    a0bc:	e1 e0       	ldi	r30, 0x01	; 1
    a0be:	f0 e0       	ldi	r31, 0x00	; 0
    a0c0:	ec 0f       	add	r30, r28
    a0c2:	fd 1f       	adc	r31, r29
    a0c4:	e8 0f       	add	r30, r24
    a0c6:	f9 1f       	adc	r31, r25
    a0c8:	20 81       	ld	r18, Z
    a0ca:	24 33       	cpi	r18, 0x34	; 52
    a0cc:	31 f4       	brne	.+12     	; 0xa0da <printtileint+0x12e>
    a0ce:	42 ed       	ldi	r20, 0xD2	; 210
    a0d0:	56 e7       	ldi	r21, 0x76	; 118
    a0d2:	60 e2       	ldi	r22, 0x20	; 32
    a0d4:	81 0f       	add	r24, r17
    a0d6:	0e 94 c2 4d 	call	0x9b84	; 0x9b84 <DrawMap>
if (str[lx] == '5' ) DrawMap2(lx + x,VRAM_TILES_V, n5 ); 
    a0da:	80 91 9d 0a 	lds	r24, 0x0A9D	; 0x800a9d <lx>
    a0de:	90 91 9e 0a 	lds	r25, 0x0A9E	; 0x800a9e <lx+0x1>
    a0e2:	e1 e0       	ldi	r30, 0x01	; 1
    a0e4:	f0 e0       	ldi	r31, 0x00	; 0
    a0e6:	ec 0f       	add	r30, r28
    a0e8:	fd 1f       	adc	r31, r29
    a0ea:	e8 0f       	add	r30, r24
    a0ec:	f9 1f       	adc	r31, r25
    a0ee:	20 81       	ld	r18, Z
    a0f0:	25 33       	cpi	r18, 0x35	; 53
    a0f2:	31 f4       	brne	.+12     	; 0xa100 <printtileint+0x154>
    a0f4:	4f ec       	ldi	r20, 0xCF	; 207
    a0f6:	56 e7       	ldi	r21, 0x76	; 118
    a0f8:	60 e2       	ldi	r22, 0x20	; 32
    a0fa:	81 0f       	add	r24, r17
    a0fc:	0e 94 c2 4d 	call	0x9b84	; 0x9b84 <DrawMap>
if (str[lx] == '6' ) DrawMap2(lx + x,VRAM_TILES_V, n6 ); 
    a100:	80 91 9d 0a 	lds	r24, 0x0A9D	; 0x800a9d <lx>
    a104:	90 91 9e 0a 	lds	r25, 0x0A9E	; 0x800a9e <lx+0x1>
    a108:	e1 e0       	ldi	r30, 0x01	; 1
    a10a:	f0 e0       	ldi	r31, 0x00	; 0
    a10c:	ec 0f       	add	r30, r28
    a10e:	fd 1f       	adc	r31, r29
    a110:	e8 0f       	add	r30, r24
    a112:	f9 1f       	adc	r31, r25
    a114:	20 81       	ld	r18, Z
    a116:	26 33       	cpi	r18, 0x36	; 54
    a118:	31 f4       	brne	.+12     	; 0xa126 <printtileint+0x17a>
    a11a:	4c ec       	ldi	r20, 0xCC	; 204
    a11c:	56 e7       	ldi	r21, 0x76	; 118
    a11e:	60 e2       	ldi	r22, 0x20	; 32
    a120:	81 0f       	add	r24, r17
    a122:	0e 94 c2 4d 	call	0x9b84	; 0x9b84 <DrawMap>
if (str[lx] == '7' ) DrawMap2(lx + x,VRAM_TILES_V, n7 ); 
    a126:	80 91 9d 0a 	lds	r24, 0x0A9D	; 0x800a9d <lx>
    a12a:	90 91 9e 0a 	lds	r25, 0x0A9E	; 0x800a9e <lx+0x1>
    a12e:	e1 e0       	ldi	r30, 0x01	; 1
    a130:	f0 e0       	ldi	r31, 0x00	; 0
    a132:	ec 0f       	add	r30, r28
    a134:	fd 1f       	adc	r31, r29
    a136:	e8 0f       	add	r30, r24
    a138:	f9 1f       	adc	r31, r25
    a13a:	20 81       	ld	r18, Z
    a13c:	27 33       	cpi	r18, 0x37	; 55
    a13e:	31 f4       	brne	.+12     	; 0xa14c <printtileint+0x1a0>
    a140:	49 ec       	ldi	r20, 0xC9	; 201
    a142:	56 e7       	ldi	r21, 0x76	; 118
    a144:	60 e2       	ldi	r22, 0x20	; 32
    a146:	81 0f       	add	r24, r17
    a148:	0e 94 c2 4d 	call	0x9b84	; 0x9b84 <DrawMap>
if (str[lx] == '8' ) DrawMap2(lx + x,VRAM_TILES_V, n8 ); 
    a14c:	80 91 9d 0a 	lds	r24, 0x0A9D	; 0x800a9d <lx>
    a150:	90 91 9e 0a 	lds	r25, 0x0A9E	; 0x800a9e <lx+0x1>
    a154:	e1 e0       	ldi	r30, 0x01	; 1
    a156:	f0 e0       	ldi	r31, 0x00	; 0
    a158:	ec 0f       	add	r30, r28
    a15a:	fd 1f       	adc	r31, r29
    a15c:	e8 0f       	add	r30, r24
    a15e:	f9 1f       	adc	r31, r25
    a160:	20 81       	ld	r18, Z
    a162:	28 33       	cpi	r18, 0x38	; 56
    a164:	31 f4       	brne	.+12     	; 0xa172 <printtileint+0x1c6>
    a166:	46 ec       	ldi	r20, 0xC6	; 198
    a168:	56 e7       	ldi	r21, 0x76	; 118
    a16a:	60 e2       	ldi	r22, 0x20	; 32
    a16c:	81 0f       	add	r24, r17
    a16e:	0e 94 c2 4d 	call	0x9b84	; 0x9b84 <DrawMap>
if (str[lx] == '9' ) DrawMap2(lx + x,VRAM_TILES_V, n9 );
    a172:	80 91 9d 0a 	lds	r24, 0x0A9D	; 0x800a9d <lx>
    a176:	90 91 9e 0a 	lds	r25, 0x0A9E	; 0x800a9e <lx+0x1>
    a17a:	e1 e0       	ldi	r30, 0x01	; 1
    a17c:	f0 e0       	ldi	r31, 0x00	; 0
    a17e:	ec 0f       	add	r30, r28
    a180:	fd 1f       	adc	r31, r29
    a182:	e8 0f       	add	r30, r24
    a184:	f9 1f       	adc	r31, r25
    a186:	20 81       	ld	r18, Z
    a188:	29 33       	cpi	r18, 0x39	; 57
    a18a:	31 f4       	brne	.+12     	; 0xa198 <printtileint+0x1ec>
    a18c:	43 ec       	ldi	r20, 0xC3	; 195
    a18e:	56 e7       	ldi	r21, 0x76	; 118
    a190:	60 e2       	ldi	r22, 0x20	; 32
    a192:	81 0f       	add	r24, r17
    a194:	0e 94 c2 4d 	call	0x9b84	; 0x9b84 <DrawMap>
if (str[lx] == '-' ) DrawMap2(lx + x,VRAM_TILES_V, nm );    
    a198:	80 91 9d 0a 	lds	r24, 0x0A9D	; 0x800a9d <lx>
    a19c:	90 91 9e 0a 	lds	r25, 0x0A9E	; 0x800a9e <lx+0x1>
    a1a0:	e1 e0       	ldi	r30, 0x01	; 1
    a1a2:	f0 e0       	ldi	r31, 0x00	; 0
    a1a4:	ec 0f       	add	r30, r28
    a1a6:	fd 1f       	adc	r31, r29
    a1a8:	e8 0f       	add	r30, r24
    a1aa:	f9 1f       	adc	r31, r25
    a1ac:	20 81       	ld	r18, Z
    a1ae:	2d 32       	cpi	r18, 0x2D	; 45
    a1b0:	31 f4       	brne	.+12     	; 0xa1be <printtileint+0x212>
    a1b2:	40 ec       	ldi	r20, 0xC0	; 192
    a1b4:	56 e7       	ldi	r21, 0x76	; 118
    a1b6:	60 e2       	ldi	r22, 0x20	; 32
    a1b8:	81 0f       	add	r24, r17
    a1ba:	0e 94 c2 4d 	call	0x9b84	; 0x9b84 <DrawMap>
if (str[lx] == ' ' ) DrawMap2(lx + x,VRAM_TILES_V, nb ); 
    a1be:	80 91 9d 0a 	lds	r24, 0x0A9D	; 0x800a9d <lx>
    a1c2:	90 91 9e 0a 	lds	r25, 0x0A9E	; 0x800a9e <lx+0x1>
    a1c6:	e1 e0       	ldi	r30, 0x01	; 1
    a1c8:	f0 e0       	ldi	r31, 0x00	; 0
    a1ca:	ec 0f       	add	r30, r28
    a1cc:	fd 1f       	adc	r31, r29
    a1ce:	e8 0f       	add	r30, r24
    a1d0:	f9 1f       	adc	r31, r25
    a1d2:	20 81       	ld	r18, Z
    a1d4:	20 32       	cpi	r18, 0x20	; 32
    a1d6:	31 f4       	brne	.+12     	; 0xa1e4 <printtileint+0x238>
    a1d8:	41 ee       	ldi	r20, 0xE1	; 225
    a1da:	56 e7       	ldi	r21, 0x76	; 118
    a1dc:	60 e2       	ldi	r22, 0x20	; 32
    a1de:	81 0f       	add	r24, r17
    a1e0:	0e 94 c2 4d 	call	0x9b84	; 0x9b84 <DrawMap>
str[7] = ' ';   
str[8] = ' ';
str[9] = ' ';   
//DrawMap2(0,VRAM_TILES_V,n1);
itoa(z, str, 10);
for ( lx = 0; lx < 6 && lx < l; lx++) 
    a1e4:	80 91 9d 0a 	lds	r24, 0x0A9D	; 0x800a9d <lx>
    a1e8:	90 91 9e 0a 	lds	r25, 0x0A9E	; 0x800a9e <lx+0x1>
    a1ec:	01 96       	adiw	r24, 0x01	; 1
    a1ee:	90 93 9e 0a 	sts	0x0A9E, r25	; 0x800a9e <lx+0x1>
    a1f2:	80 93 9d 0a 	sts	0x0A9D, r24	; 0x800a9d <lx>
    a1f6:	00 cf       	rjmp	.-512    	; 0x9ff8 <printtileint+0x4c>
if (str[lx] == ' ' ) DrawMap2(lx + x,VRAM_TILES_V, nb ); 
    

};
    
}
    a1f8:	2a 96       	adiw	r28, 0x0a	; 10
    a1fa:	0f b6       	in	r0, 0x3f	; 63
    a1fc:	f8 94       	cli
    a1fe:	de bf       	out	0x3e, r29	; 62
    a200:	0f be       	out	0x3f, r0	; 63
    a202:	cd bf       	out	0x3d, r28	; 61
    a204:	df 91       	pop	r29
    a206:	cf 91       	pop	r28
    a208:	1f 91       	pop	r17
    a20a:	ff 90       	pop	r15
    a20c:	ef 90       	pop	r14
    a20e:	08 95       	ret

0000a210 <initlevel>:

void initlevel()
{
    a210:	e2 e6       	ldi	r30, 0x62	; 98
    a212:	fa e0       	ldi	r31, 0x0A	; 10
  for (lx = 0; lx < maxdiamonds; lx ++ ) diamonds[lx] = 0;      
    a214:	80 e0       	ldi	r24, 0x00	; 0
    a216:	90 e0       	ldi	r25, 0x00	; 0
    a218:	11 92       	st	Z+, r1
    a21a:	11 92       	st	Z+, r1
    a21c:	01 96       	adiw	r24, 0x01	; 1
    a21e:	89 31       	cpi	r24, 0x19	; 25
    a220:	91 05       	cpc	r25, r1
    a222:	d1 f7       	brne	.-12     	; 0xa218 <initlevel+0x8>
    a224:	e9 e2       	ldi	r30, 0x29	; 41
    a226:	f9 e0       	ldi	r31, 0x09	; 9
  for (lx = 0; lx < maxbridges; lx ++ ) {bridges[lx].id = 0; bridges[lx].l = 0; bridges[lx].r = 0; }; 
    a228:	80 e0       	ldi	r24, 0x00	; 0
    a22a:	90 e0       	ldi	r25, 0x00	; 0
    a22c:	11 82       	std	Z+1, r1	; 0x01
    a22e:	10 82       	st	Z, r1
    a230:	12 82       	std	Z+2, r1	; 0x02
    a232:	13 82       	std	Z+3, r1	; 0x03
    a234:	01 96       	adiw	r24, 0x01	; 1
    a236:	34 96       	adiw	r30, 0x04	; 4
    a238:	8c 30       	cpi	r24, 0x0C	; 12
    a23a:	91 05       	cpc	r25, r1
    a23c:	b9 f7       	brne	.-18     	; 0xa22c <initlevel+0x1c>
    for (lx = 0; lx < 32; lx++)
    a23e:	10 92 9e 0a 	sts	0x0A9E, r1	; 0x800a9e <lx+0x1>
    a242:	10 92 9d 0a 	sts	0x0A9D, r1	; 0x800a9d <lx>
    a246:	80 91 9d 0a 	lds	r24, 0x0A9D	; 0x800a9d <lx>
    a24a:	90 91 9e 0a 	lds	r25, 0x0A9E	; 0x800a9e <lx+0x1>
    a24e:	80 97       	sbiw	r24, 0x20	; 32
    a250:	2c f5       	brge	.+74     	; 0xa29c <initlevel+0x8c>
     		{
                for (  ly = 0; ly < 28; ly++ )
    a252:	10 92 83 09 	sts	0x0983, r1	; 0x800983 <ly+0x1>
    a256:	10 92 82 09 	sts	0x0982, r1	; 0x800982 <ly>
    a25a:	60 91 82 09 	lds	r22, 0x0982	; 0x800982 <ly>
    a25e:	70 91 83 09 	lds	r23, 0x0983	; 0x800983 <ly+0x1>
    a262:	6c 31       	cpi	r22, 0x1C	; 28
    a264:	71 05       	cpc	r23, r1
    a266:	84 f4       	brge	.+32     	; 0xa288 <initlevel+0x78>
                {
          	         DrawMap2(lx ,ly ,blue);
    a268:	4c e5       	ldi	r20, 0x5C	; 92
    a26a:	57 e7       	ldi	r21, 0x77	; 119
    a26c:	80 91 9d 0a 	lds	r24, 0x0A9D	; 0x800a9d <lx>
    a270:	0e 94 c2 4d 	call	0x9b84	; 0x9b84 <DrawMap>
{
  for (lx = 0; lx < maxdiamonds; lx ++ ) diamonds[lx] = 0;      
  for (lx = 0; lx < maxbridges; lx ++ ) {bridges[lx].id = 0; bridges[lx].l = 0; bridges[lx].r = 0; }; 
    for (lx = 0; lx < 32; lx++)
     		{
                for (  ly = 0; ly < 28; ly++ )
    a274:	80 91 82 09 	lds	r24, 0x0982	; 0x800982 <ly>
    a278:	90 91 83 09 	lds	r25, 0x0983	; 0x800983 <ly+0x1>
    a27c:	01 96       	adiw	r24, 0x01	; 1
    a27e:	90 93 83 09 	sts	0x0983, r25	; 0x800983 <ly+0x1>
    a282:	80 93 82 09 	sts	0x0982, r24	; 0x800982 <ly>
    a286:	e9 cf       	rjmp	.-46     	; 0xa25a <initlevel+0x4a>

void initlevel()
{
  for (lx = 0; lx < maxdiamonds; lx ++ ) diamonds[lx] = 0;      
  for (lx = 0; lx < maxbridges; lx ++ ) {bridges[lx].id = 0; bridges[lx].l = 0; bridges[lx].r = 0; }; 
    for (lx = 0; lx < 32; lx++)
    a288:	80 91 9d 0a 	lds	r24, 0x0A9D	; 0x800a9d <lx>
    a28c:	90 91 9e 0a 	lds	r25, 0x0A9E	; 0x800a9e <lx+0x1>
    a290:	01 96       	adiw	r24, 0x01	; 1
    a292:	90 93 9e 0a 	sts	0x0A9E, r25	; 0x800a9e <lx+0x1>
    a296:	80 93 9d 0a 	sts	0x0A9D, r24	; 0x800a9d <lx>
    a29a:	d5 cf       	rjmp	.-86     	; 0xa246 <initlevel+0x36>
                for (  ly = 0; ly < 28; ly++ )
                {
          	         DrawMap2(lx ,ly ,blue);
                }
     		}
}
    a29c:	08 95       	ret

0000a29e <makeWater>:
    }

}
void makeWater(int x, int y, int z){
    //DrawMap2(x ,y  ,water0);
    waterxs[waterspwncnt] = x;
    a29e:	e0 91 9c 08 	lds	r30, 0x089C	; 0x80089c <waterspwncnt>
    a2a2:	f0 91 9d 08 	lds	r31, 0x089D	; 0x80089d <waterspwncnt+0x1>
    a2a6:	9f 01       	movw	r18, r30
    a2a8:	22 0f       	add	r18, r18
    a2aa:	33 1f       	adc	r19, r19
    a2ac:	d9 01       	movw	r26, r18
    a2ae:	ad 50       	subi	r26, 0x0D	; 13
    a2b0:	b6 4f       	sbci	r27, 0xF6	; 246
    a2b2:	8d 93       	st	X+, r24
    a2b4:	9c 93       	st	X, r25
    waterys[waterspwncnt] = y;
    a2b6:	d9 01       	movw	r26, r18
    a2b8:	ae 55       	subi	r26, 0x5E	; 94
    a2ba:	b5 4f       	sbci	r27, 0xF5	; 245
    a2bc:	6d 93       	st	X+, r22
    a2be:	7c 93       	st	X, r23
    waterscrolls[waterspwncnt] = z;
    a2c0:	d9 01       	movw	r26, r18
    a2c2:	ac 57       	subi	r26, 0x7C	; 124
    a2c4:	b6 4f       	sbci	r27, 0xF6	; 246
    a2c6:	4d 93       	st	X+, r20
    a2c8:	5c 93       	st	X, r21

    //waterxs[0] = x;
	//waterys[0] = y;

    waterspwncnt = waterspwncnt + 1;
    a2ca:	31 96       	adiw	r30, 0x01	; 1
    a2cc:	f0 93 9d 08 	sts	0x089D, r31	; 0x80089d <waterspwncnt+0x1>
    a2d0:	e0 93 9c 08 	sts	0x089C, r30	; 0x80089c <waterspwncnt>
    a2d4:	08 95       	ret

0000a2d6 <updateWater>:
}
if (aniframe > 15 && aniframe <= 20){
    DrawMap2(destx ,yi *2  ,water3);
}*/
}
void updateWater(){
    a2d6:	8f 92       	push	r8
    a2d8:	9f 92       	push	r9
    a2da:	af 92       	push	r10
    a2dc:	bf 92       	push	r11
    a2de:	cf 92       	push	r12
    a2e0:	df 92       	push	r13
    a2e2:	ef 92       	push	r14
    a2e4:	ff 92       	push	r15
    a2e6:	0f 93       	push	r16
    a2e8:	1f 93       	push	r17
    a2ea:	cf 93       	push	r28
    a2ec:	df 93       	push	r29
    a2ee:	c3 ef       	ldi	r28, 0xF3	; 243
    a2f0:	d9 e0       	ldi	r29, 0x09	; 9
    a2f2:	02 ea       	ldi	r16, 0xA2	; 162
    a2f4:	1a e0       	ldi	r17, 0x0A	; 10
    a2f6:	84 e8       	ldi	r24, 0x84	; 132
    a2f8:	c8 2e       	mov	r12, r24
    a2fa:	89 e0       	ldi	r24, 0x09	; 9
    a2fc:	d8 2e       	mov	r13, r24
    for(int i = 0; i <= waterspwncnt - 1; i++)
    a2fe:	e1 2c       	mov	r14, r1
    a300:	f1 2c       	mov	r15, r1
        int x = waterxs[i];
        int y = waterys[i];
        //if(destX - x >= 0)
        if(waterscrolls[i] <= scrolltiles - 15)
        {
            waterxs[i] = 40;
    a302:	98 e2       	ldi	r25, 0x28	; 40
    a304:	a9 2e       	mov	r10, r25
    a306:	b1 2c       	mov	r11, r1
if (aniframe > 15 && aniframe <= 20){
    DrawMap2(destx ,yi *2  ,water3);
}*/
}
void updateWater(){
    for(int i = 0; i <= waterspwncnt - 1; i++)
    a308:	80 91 9c 08 	lds	r24, 0x089C	; 0x80089c <waterspwncnt>
    a30c:	90 91 9d 08 	lds	r25, 0x089D	; 0x80089d <waterspwncnt+0x1>
    a310:	e8 16       	cp	r14, r24
    a312:	f9 06       	cpc	r15, r25
    a314:	f4 f5       	brge	.+124    	; 0xa392 <updateWater+0xbc>
    {
        int x = waterxs[i];
    a316:	98 80       	ld	r9, Y
        int y = waterys[i];
    a318:	f8 01       	movw	r30, r16
    a31a:	80 80       	ld	r8, Z
        //if(destX - x >= 0)
        if(waterscrolls[i] <= scrolltiles - 15)
    a31c:	f6 01       	movw	r30, r12
    a31e:	21 91       	ld	r18, Z+
    a320:	31 91       	ld	r19, Z+
    a322:	6f 01       	movw	r12, r30
    a324:	80 91 de 0a 	lds	r24, 0x0ADE	; 0x800ade <scrolltiles>
    a328:	90 e0       	ldi	r25, 0x00	; 0
    a32a:	0e 97       	sbiw	r24, 0x0e	; 14
    a32c:	28 17       	cp	r18, r24
    a32e:	39 07       	cpc	r19, r25
    a330:	4c f4       	brge	.+18     	; 0xa344 <updateWater+0x6e>
        {
            waterxs[i] = 40;
    a332:	b9 82       	std	Y+1, r11	; 0x01
    a334:	a8 82       	st	Y, r10
            waterys[i] = 40;
    a336:	f8 01       	movw	r30, r16
    a338:	b1 82       	std	Z+1, r11	; 0x01
    a33a:	a0 82       	st	Z, r10
            waterspwncnt = 0;
    a33c:	10 92 9d 08 	sts	0x089D, r1	; 0x80089d <waterspwncnt+0x1>
    a340:	10 92 9c 08 	sts	0x089C, r1	; 0x80089c <waterspwncnt>
        }
if (aniframe <= 7)
    a344:	80 91 9f 0a 	lds	r24, 0x0A9F	; 0x800a9f <aniframe>
    a348:	88 30       	cpi	r24, 0x08	; 8
    a34a:	30 f4       	brcc	.+12     	; 0xa358 <updateWater+0x82>
{
    DrawMap2(x ,y,water3);
    a34c:	40 ef       	ldi	r20, 0xF0	; 240
    a34e:	56 e7       	ldi	r21, 0x76	; 118
    a350:	68 2d       	mov	r22, r8
    a352:	89 2d       	mov	r24, r9
    a354:	0e 94 c2 4d 	call	0x9b84	; 0x9b84 <DrawMap>
} 
        if (aniframe > 7 && aniframe <= 14 )   
    a358:	80 91 9f 0a 	lds	r24, 0x0A9F	; 0x800a9f <aniframe>
    a35c:	88 50       	subi	r24, 0x08	; 8
    a35e:	87 30       	cpi	r24, 0x07	; 7
    a360:	30 f4       	brcc	.+12     	; 0xa36e <updateWater+0x98>
{
    DrawMap2(x ,y,water1);
    a362:	4c ef       	ldi	r20, 0xFC	; 252
    a364:	56 e7       	ldi	r21, 0x76	; 118
    a366:	68 2d       	mov	r22, r8
    a368:	89 2d       	mov	r24, r9
    a36a:	0e 94 c2 4d 	call	0x9b84	; 0x9b84 <DrawMap>
} 
if (aniframe > 14 && aniframe <= 20)
    a36e:	80 91 9f 0a 	lds	r24, 0x0A9F	; 0x800a9f <aniframe>
    a372:	8f 50       	subi	r24, 0x0F	; 15
    a374:	86 30       	cpi	r24, 0x06	; 6
    a376:	30 f4       	brcc	.+12     	; 0xa384 <updateWater+0xae>
{
    DrawMap2(x ,y,water2);
    a378:	46 ef       	ldi	r20, 0xF6	; 246
    a37a:	56 e7       	ldi	r21, 0x76	; 118
    a37c:	68 2d       	mov	r22, r8
    a37e:	89 2d       	mov	r24, r9
    a380:	0e 94 c2 4d 	call	0x9b84	; 0x9b84 <DrawMap>
if (aniframe > 15 && aniframe <= 20){
    DrawMap2(destx ,yi *2  ,water3);
}*/
}
void updateWater(){
    for(int i = 0; i <= waterspwncnt - 1; i++)
    a384:	ff ef       	ldi	r31, 0xFF	; 255
    a386:	ef 1a       	sub	r14, r31
    a388:	ff 0a       	sbc	r15, r31
    a38a:	22 96       	adiw	r28, 0x02	; 2
    a38c:	0e 5f       	subi	r16, 0xFE	; 254
    a38e:	1f 4f       	sbci	r17, 0xFF	; 255
    a390:	bb cf       	rjmp	.-138    	; 0xa308 <updateWater+0x32>
//if (aniframe > 15 && aniframe <= 20){
 //   DrawMap2(x ,y,water3);
//}
    }
    
}
    a392:	df 91       	pop	r29
    a394:	cf 91       	pop	r28
    a396:	1f 91       	pop	r17
    a398:	0f 91       	pop	r16
    a39a:	ff 90       	pop	r15
    a39c:	ef 90       	pop	r14
    a39e:	df 90       	pop	r13
    a3a0:	cf 90       	pop	r12
    a3a2:	bf 90       	pop	r11
    a3a4:	af 90       	pop	r10
    a3a6:	9f 90       	pop	r9
    a3a8:	8f 90       	pop	r8
    a3aa:	08 95       	ret

0000a3ac <makeBanana2>:
    destX=0;
}
}

void makeBanana2(int x, int y,int z)
{
    a3ac:	0f 93       	push	r16
    a3ae:	1f 93       	push	r17
    a3b0:	cf 93       	push	r28
    a3b2:	df 93       	push	r29
	int lx;
	int ly;
	lx = x + Levelx;
    a3b4:	20 91 9b 0a 	lds	r18, 0x0A9B	; 0x800a9b <Levelx>
    a3b8:	82 0f       	add	r24, r18
    a3ba:	91 1d       	adc	r25, r1
	ly = y;
	lx = lx >> 4;
	ly = ly >> 4;  
    a3bc:	8b 01       	movw	r16, r22
    a3be:	44 e0       	ldi	r20, 0x04	; 4
    a3c0:	15 95       	asr	r17
    a3c2:	07 95       	ror	r16
    a3c4:	4a 95       	dec	r20
    a3c6:	e1 f7       	brne	.-8      	; 0xa3c0 <makeBanana2+0x14>
	lx = lx * 2 + destX;
    a3c8:	54 e0       	ldi	r21, 0x04	; 4
    a3ca:	95 95       	asr	r25
    a3cc:	87 95       	ror	r24
    a3ce:	5a 95       	dec	r21
    a3d0:	e1 f7       	brne	.-8      	; 0xa3ca <makeBanana2+0x1e>
    a3d2:	88 0f       	add	r24, r24
    a3d4:	99 1f       	adc	r25, r25
    a3d6:	20 91 5d 0a 	lds	r18, 0x0A5D	; 0x800a5d <destX>
    a3da:	82 0f       	add	r24, r18
    a3dc:	91 1d       	adc	r25, r1
	if (lx >= 32 ) lx = lx - 32;
    a3de:	80 32       	cpi	r24, 0x20	; 32
    a3e0:	91 05       	cpc	r25, r1
    a3e2:	0c f0       	brlt	.+2      	; 0xa3e6 <makeBanana2+0x3a>
    a3e4:	80 97       	sbiw	r24, 0x20	; 32
    lx = lx - 2;
    a3e6:	ec 01       	movw	r28, r24
    a3e8:	22 97       	sbiw	r28, 0x02	; 2
    ly = (ly * 2) - 2;
    a3ea:	01 50       	subi	r16, 0x01	; 1
    a3ec:	11 09       	sbc	r17, r1
    a3ee:	00 0f       	add	r16, r16
    a3f0:	11 1f       	adc	r17, r17
	DrawMap2(  lx ,  ly  ,banana );
    a3f2:	43 e6       	ldi	r20, 0x63	; 99
    a3f4:	57 e7       	ldi	r21, 0x77	; 119
    a3f6:	60 2f       	mov	r22, r16
    a3f8:	8c 2f       	mov	r24, r28
    a3fa:	0e 94 c2 4d 	call	0x9b84	; 0x9b84 <DrawMap>
    bananax = lx;
    a3fe:	d0 93 5f 0a 	sts	0x0A5F, r29	; 0x800a5f <bananax+0x1>
    a402:	c0 93 5e 0a 	sts	0x0A5E, r28	; 0x800a5e <bananax>
	bananay = ly;
    a406:	10 93 c4 09 	sts	0x09C4, r17	; 0x8009c4 <bananay+0x1>
    a40a:	00 93 c3 09 	sts	0x09C3, r16	; 0x8009c3 <bananay>
    UZEMHEX= bananaxs; 
    a40e:	27 ec       	ldi	r18, 0xC7	; 199
    a410:	39 e0       	ldi	r19, 0x09	; 9
    a412:	29 bb       	out	0x19, r18	; 25
    UZEMCHR = "X";
    a414:	84 e0       	ldi	r24, 0x04	; 4
    a416:	91 e0       	ldi	r25, 0x01	; 1
    a418:	8a bb       	out	0x1a, r24	; 26
    //UZEMHEX='\n';
	bananaxs[banspwncnt] = bananax;
    a41a:	80 91 9e 08 	lds	r24, 0x089E	; 0x80089e <banspwncnt>
    a41e:	90 91 9f 08 	lds	r25, 0x089F	; 0x80089f <banspwncnt+0x1>
    a422:	88 0f       	add	r24, r24
    a424:	99 1f       	adc	r25, r25
    a426:	fc 01       	movw	r30, r24
    a428:	e9 53       	subi	r30, 0x39	; 57
    a42a:	f6 4f       	sbci	r31, 0xF6	; 246
    a42c:	40 91 5e 0a 	lds	r20, 0x0A5E	; 0x800a5e <bananax>
    a430:	50 91 5f 0a 	lds	r21, 0x0A5F	; 0x800a5f <bananax+0x1>
    a434:	51 83       	std	Z+1, r21	; 0x01
    a436:	40 83       	st	Z, r20
	bananays[banspwncnt] = bananay;
    a438:	fc 01       	movw	r30, r24
    a43a:	e1 52       	subi	r30, 0x21	; 33
    a43c:	f6 4f       	sbci	r31, 0xF6	; 246
    a43e:	40 91 c3 09 	lds	r20, 0x09C3	; 0x8009c3 <bananay>
    a442:	50 91 c4 09 	lds	r21, 0x09C4	; 0x8009c4 <bananay+0x1>
    a446:	51 83       	std	Z+1, r21	; 0x01
    a448:	40 83       	st	Z, r20
    UZEMHEX= bananaxs; 
    a44a:	29 bb       	out	0x19, r18	; 25
    //UZEMHEX='\n';
	banspwncnt = banspwncnt + 1;
    a44c:	80 91 9e 08 	lds	r24, 0x089E	; 0x80089e <banspwncnt>
    a450:	90 91 9f 08 	lds	r25, 0x089F	; 0x80089f <banspwncnt+0x1>
    a454:	01 96       	adiw	r24, 0x01	; 1
    a456:	90 93 9f 08 	sts	0x089F, r25	; 0x80089f <banspwncnt+0x1>
    a45a:	80 93 9e 08 	sts	0x089E, r24	; 0x80089e <banspwncnt>
    //if(banspwncnt == 10){
     //   banspwncnt = 0;
    //}
}
    a45e:	df 91       	pop	r29
    a460:	cf 91       	pop	r28
    a462:	1f 91       	pop	r17
    a464:	0f 91       	pop	r16
    a466:	08 95       	ret

0000a468 <checkBanana>:
int checkBanana(int x,int y,int z)
{
    a468:	ef 92       	push	r14
    a46a:	ff 92       	push	r15
    a46c:	0f 93       	push	r16
    a46e:	1f 93       	push	r17
    a470:	cf 93       	push	r28
    a472:	df 93       	push	r29
int lx;
int ly;
lx = x + Levelx;
    a474:	20 91 9b 0a 	lds	r18, 0x0A9B	; 0x800a9b <Levelx>
    a478:	82 0f       	add	r24, r18
    a47a:	91 1d       	adc	r25, r1
ly = y;
lx = lx >> 4;
ly = ly >> 4;  
    a47c:	8b 01       	movw	r16, r22
    a47e:	44 e0       	ldi	r20, 0x04	; 4
    a480:	15 95       	asr	r17
    a482:	07 95       	ror	r16
    a484:	4a 95       	dec	r20
    a486:	e1 f7       	brne	.-8      	; 0xa480 <checkBanana+0x18>
lx = lx * 2 + destX;
    a488:	ec 01       	movw	r28, r24
    a48a:	54 e0       	ldi	r21, 0x04	; 4
    a48c:	d5 95       	asr	r29
    a48e:	c7 95       	ror	r28
    a490:	5a 95       	dec	r21
    a492:	e1 f7       	brne	.-8      	; 0xa48c <checkBanana+0x24>
    a494:	cc 0f       	add	r28, r28
    a496:	dd 1f       	adc	r29, r29
    a498:	80 91 5d 0a 	lds	r24, 0x0A5D	; 0x800a5d <destX>
    a49c:	c8 0f       	add	r28, r24
    a49e:	d1 1d       	adc	r29, r1
if (lx >= 32 ) lx = lx - 32;
    a4a0:	c0 32       	cpi	r28, 0x20	; 32
    a4a2:	d1 05       	cpc	r29, r1
    a4a4:	0c f0       	brlt	.+2      	; 0xa4a8 <checkBanana+0x40>
    a4a6:	a0 97       	sbiw	r28, 0x20	; 32
//DrawMap2(  lx    ,  (ly *  2) -2,block0 );
ly = (ly * 2) -2;
    a4a8:	01 50       	subi	r16, 0x01	; 1
    a4aa:	11 09       	sbc	r17, r1
    a4ac:	00 0f       	add	r16, r16
    a4ae:	11 1f       	adc	r17, r17
//DrawMap2(  lx    ,  ly,block0 );

for(int i = 0; i < banspwncnt; i++)
    a4b0:	80 91 9e 08 	lds	r24, 0x089E	; 0x80089e <banspwncnt>
    a4b4:	90 91 9f 08 	lds	r25, 0x089F	; 0x80089f <banspwncnt+0x1>
    a4b8:	ef ed       	ldi	r30, 0xDF	; 223
    a4ba:	f9 e0       	ldi	r31, 0x09	; 9
    a4bc:	a7 ec       	ldi	r26, 0xC7	; 199
    a4be:	b9 e0       	ldi	r27, 0x09	; 9
    a4c0:	e1 2c       	mov	r14, r1
    a4c2:	f1 2c       	mov	r15, r1
    a4c4:	e8 16       	cp	r14, r24
    a4c6:	f9 06       	cpc	r15, r25
    a4c8:	0c f0       	brlt	.+2      	; 0xa4cc <checkBanana+0x64>
    a4ca:	45 c0       	rjmp	.+138    	; 0xa556 <checkBanana+0xee>
{
	if(bananaxs[i] == lx && bananays[i] == ly)
    a4cc:	2d 91       	ld	r18, X+
    a4ce:	3d 91       	ld	r19, X+
    a4d0:	c2 17       	cp	r28, r18
    a4d2:	d3 07       	cpc	r29, r19
    a4d4:	d9 f5       	brne	.+118    	; 0xa54c <checkBanana+0xe4>
    a4d6:	20 81       	ld	r18, Z
    a4d8:	31 81       	ldd	r19, Z+1	; 0x01
    a4da:	02 17       	cp	r16, r18
    a4dc:	13 07       	cpc	r17, r19
    a4de:	b1 f5       	brne	.+108    	; 0xa54c <checkBanana+0xe4>
	{ 
        DrawMap2(  lx    ,  ly,bigblue0 ); 
    a4e0:	4b ec       	ldi	r20, 0xCB	; 203
    a4e2:	57 e7       	ldi	r21, 0x77	; 119
    a4e4:	60 2f       	mov	r22, r16
    a4e6:	8c 2f       	mov	r24, r28
    a4e8:	0e 94 c2 4d 	call	0x9b84	; 0x9b84 <DrawMap>
	    DrawMap2(  lx    ,  ly + 1,banana2 );
    a4ec:	61 e0       	ldi	r22, 0x01	; 1
    a4ee:	60 0f       	add	r22, r16
    a4f0:	4f e5       	ldi	r20, 0x5F	; 95
    a4f2:	57 e7       	ldi	r21, 0x77	; 119
    a4f4:	8c 2f       	mov	r24, r28
    a4f6:	0e 94 c2 4d 	call	0x9b84	; 0x9b84 <DrawMap>
    if(banspwncnt > 1) // only delete if it is not the only thing in the array.
    a4fa:	20 91 9e 08 	lds	r18, 0x089E	; 0x80089e <banspwncnt>
    a4fe:	30 91 9f 08 	lds	r19, 0x089F	; 0x80089f <banspwncnt+0x1>
    a502:	c9 01       	movw	r24, r18
    a504:	01 97       	sbiw	r24, 0x01	; 1
    a506:	22 30       	cpi	r18, 0x02	; 2
    a508:	31 05       	cpc	r19, r1
    a50a:	3c f4       	brge	.+14     	; 0xa51a <checkBanana+0xb2>
    }
   // else{
        //bananaxs[i] = 900;
        //bananays[i] = 900;
    //}
	banspwncnt = banspwncnt - 1;
    a50c:	90 93 9f 08 	sts	0x089F, r25	; 0x80089f <banspwncnt+0x1>
    a510:	80 93 9e 08 	sts	0x089E, r24	; 0x80089e <banspwncnt>
	return 1;
    a514:	81 e0       	ldi	r24, 0x01	; 1
    a516:	90 e0       	ldi	r25, 0x00	; 0
    a518:	20 c0       	rjmp	.+64     	; 0xa55a <checkBanana+0xf2>
    a51a:	f7 01       	movw	r30, r14
    a51c:	ee 0f       	add	r30, r30
    a51e:	ff 1f       	adc	r31, r31
    a520:	df 01       	movw	r26, r30
    a522:	a9 53       	subi	r26, 0x39	; 57
    a524:	b6 4f       	sbci	r27, 0xF6	; 246
    a526:	e1 52       	subi	r30, 0x21	; 33
    a528:	f6 4f       	sbci	r31, 0xF6	; 246
	{ 
        DrawMap2(  lx    ,  ly,bigblue0 ); 
	    DrawMap2(  lx    ,  ly + 1,banana2 );
    if(banspwncnt > 1) // only delete if it is not the only thing in the array.
    {
                for(int j = i; j < banspwncnt - 1; j++)
    a52a:	e8 16       	cp	r14, r24
    a52c:	f9 06       	cpc	r15, r25
    a52e:	74 f7       	brge	.-36     	; 0xa50c <checkBanana+0xa4>
            {
            bananaxs[j] = bananaxs[j + 1];
    a530:	2f ef       	ldi	r18, 0xFF	; 255
    a532:	e2 1a       	sub	r14, r18
    a534:	f2 0a       	sbc	r15, r18
    a536:	12 96       	adiw	r26, 0x02	; 2
    a538:	2d 91       	ld	r18, X+
    a53a:	3c 91       	ld	r19, X
    a53c:	13 97       	sbiw	r26, 0x03	; 3
    a53e:	2d 93       	st	X+, r18
    a540:	3d 93       	st	X+, r19
            bananays[j] = bananays[j + 1];
    a542:	22 81       	ldd	r18, Z+2	; 0x02
    a544:	33 81       	ldd	r19, Z+3	; 0x03
    a546:	21 93       	st	Z+, r18
    a548:	31 93       	st	Z+, r19
    a54a:	ef cf       	rjmp	.-34     	; 0xa52a <checkBanana+0xc2>
if (lx >= 32 ) lx = lx - 32;
//DrawMap2(  lx    ,  (ly *  2) -2,block0 );
ly = (ly * 2) -2;
//DrawMap2(  lx    ,  ly,block0 );

for(int i = 0; i < banspwncnt; i++)
    a54c:	2f ef       	ldi	r18, 0xFF	; 255
    a54e:	e2 1a       	sub	r14, r18
    a550:	f2 0a       	sbc	r15, r18
    a552:	32 96       	adiw	r30, 0x02	; 2
    a554:	b7 cf       	rjmp	.-146    	; 0xa4c4 <checkBanana+0x5c>
	banspwncnt = banspwncnt - 1;
	return 1;
	}
}

return 0;
    a556:	80 e0       	ldi	r24, 0x00	; 0
    a558:	90 e0       	ldi	r25, 0x00	; 0
	
}
    a55a:	df 91       	pop	r29
    a55c:	cf 91       	pop	r28
    a55e:	1f 91       	pop	r17
    a560:	0f 91       	pop	r16
    a562:	ff 90       	pop	r15
    a564:	ef 90       	pop	r14
    a566:	08 95       	ret

0000a568 <printheadline>:
if (bl > 0 && bl <= 20 ) return 1; else return 0;
}

void printheadline()
{
DrawMap2(0,VRAM_TILES_V, score0 );  
    a568:	4a eb       	ldi	r20, 0xBA	; 186
    a56a:	56 e7       	ldi	r21, 0x76	; 118
    a56c:	60 e2       	ldi	r22, 0x20	; 32
    a56e:	80 e0       	ldi	r24, 0x00	; 0
    a570:	0e 94 c2 4d 	call	0x9b84	; 0x9b84 <DrawMap>
printtileint( 4 ,0,score,4);
    a574:	40 91 c5 09 	lds	r20, 0x09C5	; 0x8009c5 <score>
    a578:	50 91 c6 09 	lds	r21, 0x09C6	; 0x8009c6 <score+0x1>
    a57c:	24 e0       	ldi	r18, 0x04	; 4
    a57e:	30 e0       	ldi	r19, 0x00	; 0
    a580:	60 e0       	ldi	r22, 0x00	; 0
    a582:	70 e0       	ldi	r23, 0x00	; 0
    a584:	84 e0       	ldi	r24, 0x04	; 4
    a586:	90 e0       	ldi	r25, 0x00	; 0
    a588:	0e 94 d6 4f 	call	0x9fac	; 0x9fac <printtileint>
//DrawMap2(8,VRAM_TILES_V, bonus0 );      
//printtileint( 12 ,0,bonus,1);   
DrawMap2(11,VRAM_TILES_V, live0 ); 
    a58c:	4d e9       	ldi	r20, 0x9D	; 157
    a58e:	56 e7       	ldi	r21, 0x76	; 118
    a590:	60 e2       	ldi	r22, 0x20	; 32
    a592:	8b e0       	ldi	r24, 0x0B	; 11
    a594:	0e 94 c2 4d 	call	0x9b84	; 0x9b84 <DrawMap>
printtileint( 14 ,0,lives,1);  
    a598:	40 91 51 0a 	lds	r20, 0x0A51	; 0x800a51 <lives>
    a59c:	50 e0       	ldi	r21, 0x00	; 0
    a59e:	21 e0       	ldi	r18, 0x01	; 1
    a5a0:	30 e0       	ldi	r19, 0x00	; 0
    a5a2:	60 e0       	ldi	r22, 0x00	; 0
    a5a4:	70 e0       	ldi	r23, 0x00	; 0
    a5a6:	8e e0       	ldi	r24, 0x0E	; 14
    a5a8:	90 e0       	ldi	r25, 0x00	; 0
    a5aa:	0e 94 d6 4f 	call	0x9fac	; 0x9fac <printtileint>
DrawMap2(16,VRAM_TILES_V, level0 ); 
    a5ae:	4e ea       	ldi	r20, 0xAE	; 174
    a5b0:	56 e7       	ldi	r21, 0x76	; 118
    a5b2:	60 e2       	ldi	r22, 0x20	; 32
    a5b4:	80 e1       	ldi	r24, 0x10	; 16
    a5b6:	0e 94 c2 4d 	call	0x9b84	; 0x9b84 <DrawMap>
printtileint( 20 ,0, level,1);  
    a5ba:	40 91 dd 09 	lds	r20, 0x09DD	; 0x8009dd <level>
    a5be:	50 e0       	ldi	r21, 0x00	; 0
    a5c0:	21 e0       	ldi	r18, 0x01	; 1
    a5c2:	30 e0       	ldi	r19, 0x00	; 0
    a5c4:	60 e0       	ldi	r22, 0x00	; 0
    a5c6:	70 e0       	ldi	r23, 0x00	; 0
    a5c8:	84 e1       	ldi	r24, 0x14	; 20
    a5ca:	90 e0       	ldi	r25, 0x00	; 0
    a5cc:	0e 94 d6 4f 	call	0x9fac	; 0x9fac <printtileint>
DrawMap2(23,VRAM_TILES_V, time0 );
    a5d0:	48 e9       	ldi	r20, 0x98	; 152
    a5d2:	56 e7       	ldi	r21, 0x76	; 118
    a5d4:	60 e2       	ldi	r22, 0x20	; 32
    a5d6:	87 e1       	ldi	r24, 0x17	; 23
    a5d8:	0e 94 c2 4d 	call	0x9b84	; 0x9b84 <DrawMap>
printtileint( 26 ,0,leveltime,2); 
    a5dc:	40 91 98 0a 	lds	r20, 0x0A98	; 0x800a98 <leveltime>
    a5e0:	50 e0       	ldi	r21, 0x00	; 0
    a5e2:	22 e0       	ldi	r18, 0x02	; 2
    a5e4:	30 e0       	ldi	r19, 0x00	; 0
    a5e6:	60 e0       	ldi	r22, 0x00	; 0
    a5e8:	70 e0       	ldi	r23, 0x00	; 0
    a5ea:	8a e1       	ldi	r24, 0x1A	; 26
    a5ec:	90 e0       	ldi	r25, 0x00	; 0
    a5ee:	0c 94 d6 4f 	jmp	0x9fac	; 0x9fac <printtileint>

0000a5f2 <printheadlineintro>:
}
void printheadlineintro()
{
DrawMap2(0,VRAM_TILES_V, score0 );  
    a5f2:	4a eb       	ldi	r20, 0xBA	; 186
    a5f4:	56 e7       	ldi	r21, 0x76	; 118
    a5f6:	60 e2       	ldi	r22, 0x20	; 32
    a5f8:	80 e0       	ldi	r24, 0x00	; 0
    a5fa:	0e 94 c2 4d 	call	0x9b84	; 0x9b84 <DrawMap>
printtileint( 4 ,0,score,4);
    a5fe:	40 91 c5 09 	lds	r20, 0x09C5	; 0x8009c5 <score>
    a602:	50 91 c6 09 	lds	r21, 0x09C6	; 0x8009c6 <score+0x1>
    a606:	24 e0       	ldi	r18, 0x04	; 4
    a608:	30 e0       	ldi	r19, 0x00	; 0
    a60a:	60 e0       	ldi	r22, 0x00	; 0
    a60c:	70 e0       	ldi	r23, 0x00	; 0
    a60e:	84 e0       	ldi	r24, 0x04	; 4
    a610:	90 e0       	ldi	r25, 0x00	; 0
    a612:	0e 94 d6 4f 	call	0x9fac	; 0x9fac <printtileint>
//DrawMap2(8,VRAM_TILES_V, bonus0 );      
//printtileint( 12 ,0,bonus,1);   
DrawMap2(11,VRAM_TILES_V, live0 ); 
    a616:	4d e9       	ldi	r20, 0x9D	; 157
    a618:	56 e7       	ldi	r21, 0x76	; 118
    a61a:	60 e2       	ldi	r22, 0x20	; 32
    a61c:	8b e0       	ldi	r24, 0x0B	; 11
    a61e:	0e 94 c2 4d 	call	0x9b84	; 0x9b84 <DrawMap>

DrawMap2(16,VRAM_TILES_V, level0 ); 
    a622:	4e ea       	ldi	r20, 0xAE	; 174
    a624:	56 e7       	ldi	r21, 0x76	; 118
    a626:	60 e2       	ldi	r22, 0x20	; 32
    a628:	80 e1       	ldi	r24, 0x10	; 16
    a62a:	0e 94 c2 4d 	call	0x9b84	; 0x9b84 <DrawMap>
  
DrawMap2(23,VRAM_TILES_V, time0 );
    a62e:	48 e9       	ldi	r20, 0x98	; 152
    a630:	56 e7       	ldi	r21, 0x76	; 118
    a632:	60 e2       	ldi	r22, 0x20	; 32
    a634:	87 e1       	ldi	r24, 0x17	; 23
    a636:	0c 94 c2 4d 	jmp	0x9b84	; 0x9b84 <DrawMap>

0000a63a <updatepoints>:

}
void updatepoints()
{
if (introplaying) return;
    a63a:	80 91 81 09 	lds	r24, 0x0981	; 0x800981 <introplaying>
    a63e:	81 11       	cpse	r24, r1
    a640:	0c c0       	rjmp	.+24     	; 0xa65a <updatepoints+0x20>
printtileint( 4 ,0,score,4);
    a642:	40 91 c5 09 	lds	r20, 0x09C5	; 0x8009c5 <score>
    a646:	50 91 c6 09 	lds	r21, 0x09C6	; 0x8009c6 <score+0x1>
    a64a:	24 e0       	ldi	r18, 0x04	; 4
    a64c:	30 e0       	ldi	r19, 0x00	; 0
    a64e:	60 e0       	ldi	r22, 0x00	; 0
    a650:	70 e0       	ldi	r23, 0x00	; 0
    a652:	84 e0       	ldi	r24, 0x04	; 4
    a654:	90 e0       	ldi	r25, 0x00	; 0
    a656:	0c 94 d6 4f 	jmp	0x9fac	; 0x9fac <printtileint>
    a65a:	08 95       	ret

0000a65c <checkcollide>:

return 0;
	
}
int checkcollide(int x, int y,int z)
{
    a65c:	af 92       	push	r10
    a65e:	bf 92       	push	r11
    a660:	cf 92       	push	r12
    a662:	df 92       	push	r13
    a664:	ef 92       	push	r14
    a666:	ff 92       	push	r15
    a668:	0f 93       	push	r16
    a66a:	1f 93       	push	r17
    a66c:	cf 93       	push	r28
    a66e:	df 93       	push	r29
    a670:	6c 01       	movw	r12, r24
    a672:	5b 01       	movw	r10, r22
int lx;
int ly;
char bl;
lx = x + Levelx;
    a674:	90 91 9b 0a 	lds	r25, 0x0A9B	; 0x800a9b <Levelx>
    a678:	86 01       	movw	r16, r12
    a67a:	09 0f       	add	r16, r25
    a67c:	11 1d       	adc	r17, r1
ly = y;
lx = lx >> 4;
    a67e:	84 e0       	ldi	r24, 0x04	; 4
    a680:	15 95       	asr	r17
    a682:	07 95       	ror	r16
    a684:	8a 95       	dec	r24
    a686:	e1 f7       	brne	.-8      	; 0xa680 <checkcollide+0x24>
ly = ly >> 4;  
    a688:	7b 01       	movw	r14, r22
    a68a:	24 e0       	ldi	r18, 0x04	; 4
    a68c:	f5 94       	asr	r15
    a68e:	e7 94       	ror	r14
    a690:	2a 95       	dec	r18
    a692:	e1 f7       	brne	.-8      	; 0xa68c <checkcollide+0x30>
if (level == 0 ) bl=pgm_read_byte(&(intro0[((ly  ) *levelwidth)+ ( lx )  + scrolltiles]));
    a694:	80 91 dd 09 	lds	r24, 0x09DD	; 0x8009dd <level>
    a698:	81 11       	cpse	r24, r1
    a69a:	0f c0       	rjmp	.+30     	; 0xa6ba <checkcollide+0x5e>
    a69c:	8a e5       	ldi	r24, 0x5A	; 90
    a69e:	8e 9d       	mul	r24, r14
    a6a0:	f0 01       	movw	r30, r0
    a6a2:	8f 9d       	mul	r24, r15
    a6a4:	f0 0d       	add	r31, r0
    a6a6:	11 24       	eor	r1, r1
    a6a8:	e0 0f       	add	r30, r16
    a6aa:	f1 1f       	adc	r31, r17
    a6ac:	80 91 de 0a 	lds	r24, 0x0ADE	; 0x800ade <scrolltiles>
    a6b0:	e8 0f       	add	r30, r24
    a6b2:	f1 1d       	adc	r31, r1
    a6b4:	e1 58       	subi	r30, 0x81	; 129
    a6b6:	fa 4c       	sbci	r31, 0xCA	; 202
    a6b8:	98 c0       	rjmp	.+304    	; 0xa7ea <checkcollide+0x18e>
if (level == 1 ) bl=pgm_read_byte(&(level1[((ly  ) *levelwidth)+ ( lx )  + scrolltiles]));
    a6ba:	81 30       	cpi	r24, 0x01	; 1
    a6bc:	79 f4       	brne	.+30     	; 0xa6dc <checkcollide+0x80>
    a6be:	8a e5       	ldi	r24, 0x5A	; 90
    a6c0:	8e 9d       	mul	r24, r14
    a6c2:	f0 01       	movw	r30, r0
    a6c4:	8f 9d       	mul	r24, r15
    a6c6:	f0 0d       	add	r31, r0
    a6c8:	11 24       	eor	r1, r1
    a6ca:	e0 0f       	add	r30, r16
    a6cc:	f1 1f       	adc	r31, r17
    a6ce:	80 91 de 0a 	lds	r24, 0x0ADE	; 0x800ade <scrolltiles>
    a6d2:	e8 0f       	add	r30, r24
    a6d4:	f1 1d       	adc	r31, r1
    a6d6:	ed 56       	subi	r30, 0x6D	; 109
    a6d8:	ff 4c       	sbci	r31, 0xCF	; 207
    a6da:	87 c0       	rjmp	.+270    	; 0xa7ea <checkcollide+0x18e>
if (level == 2 ) bl=pgm_read_byte(&(level2[((ly  ) *levelwidth)+ ( lx )  + scrolltiles]));
    a6dc:	82 30       	cpi	r24, 0x02	; 2
    a6de:	79 f4       	brne	.+30     	; 0xa6fe <checkcollide+0xa2>
    a6e0:	8a e5       	ldi	r24, 0x5A	; 90
    a6e2:	8e 9d       	mul	r24, r14
    a6e4:	f0 01       	movw	r30, r0
    a6e6:	8f 9d       	mul	r24, r15
    a6e8:	f0 0d       	add	r31, r0
    a6ea:	11 24       	eor	r1, r1
    a6ec:	e0 0f       	add	r30, r16
    a6ee:	f1 1f       	adc	r31, r17
    a6f0:	80 91 de 0a 	lds	r24, 0x0ADE	; 0x800ade <scrolltiles>
    a6f4:	e8 0f       	add	r30, r24
    a6f6:	f1 1d       	adc	r31, r1
    a6f8:	e9 55       	subi	r30, 0x59	; 89
    a6fa:	f4 4d       	sbci	r31, 0xD4	; 212
    a6fc:	76 c0       	rjmp	.+236    	; 0xa7ea <checkcollide+0x18e>
if (level == 3 ) bl=pgm_read_byte(&(level3[((ly  ) *levelwidth)+ ( lx )  + scrolltiles]));
    a6fe:	83 30       	cpi	r24, 0x03	; 3
    a700:	79 f4       	brne	.+30     	; 0xa720 <checkcollide+0xc4>
    a702:	8a e5       	ldi	r24, 0x5A	; 90
    a704:	8e 9d       	mul	r24, r14
    a706:	f0 01       	movw	r30, r0
    a708:	8f 9d       	mul	r24, r15
    a70a:	f0 0d       	add	r31, r0
    a70c:	11 24       	eor	r1, r1
    a70e:	e0 0f       	add	r30, r16
    a710:	f1 1f       	adc	r31, r17
    a712:	80 91 de 0a 	lds	r24, 0x0ADE	; 0x800ade <scrolltiles>
    a716:	e8 0f       	add	r30, r24
    a718:	f1 1d       	adc	r31, r1
    a71a:	e5 54       	subi	r30, 0x45	; 69
    a71c:	f9 4d       	sbci	r31, 0xD9	; 217
    a71e:	65 c0       	rjmp	.+202    	; 0xa7ea <checkcollide+0x18e>
if (level == 4 ) bl=pgm_read_byte(&(level4[((ly  ) *levelwidth)+ ( lx )  + scrolltiles]));
    a720:	84 30       	cpi	r24, 0x04	; 4
    a722:	79 f4       	brne	.+30     	; 0xa742 <checkcollide+0xe6>
    a724:	8a e5       	ldi	r24, 0x5A	; 90
    a726:	8e 9d       	mul	r24, r14
    a728:	f0 01       	movw	r30, r0
    a72a:	8f 9d       	mul	r24, r15
    a72c:	f0 0d       	add	r31, r0
    a72e:	11 24       	eor	r1, r1
    a730:	e0 0f       	add	r30, r16
    a732:	f1 1f       	adc	r31, r17
    a734:	80 91 de 0a 	lds	r24, 0x0ADE	; 0x800ade <scrolltiles>
    a738:	e8 0f       	add	r30, r24
    a73a:	f1 1d       	adc	r31, r1
    a73c:	e1 53       	subi	r30, 0x31	; 49
    a73e:	fe 4d       	sbci	r31, 0xDE	; 222
    a740:	54 c0       	rjmp	.+168    	; 0xa7ea <checkcollide+0x18e>
if (level == 5 ) bl=pgm_read_byte(&(level5[((ly  ) *levelwidth)+ ( lx )  + scrolltiles]));
    a742:	85 30       	cpi	r24, 0x05	; 5
    a744:	79 f4       	brne	.+30     	; 0xa764 <checkcollide+0x108>
    a746:	8a e5       	ldi	r24, 0x5A	; 90
    a748:	8e 9d       	mul	r24, r14
    a74a:	f0 01       	movw	r30, r0
    a74c:	8f 9d       	mul	r24, r15
    a74e:	f0 0d       	add	r31, r0
    a750:	11 24       	eor	r1, r1
    a752:	e0 0f       	add	r30, r16
    a754:	f1 1f       	adc	r31, r17
    a756:	80 91 de 0a 	lds	r24, 0x0ADE	; 0x800ade <scrolltiles>
    a75a:	e8 0f       	add	r30, r24
    a75c:	f1 1d       	adc	r31, r1
    a75e:	ed 51       	subi	r30, 0x1D	; 29
    a760:	f3 4e       	sbci	r31, 0xE3	; 227
    a762:	43 c0       	rjmp	.+134    	; 0xa7ea <checkcollide+0x18e>
if (level == 6 ) bl=pgm_read_byte(&(level6[((ly  ) *levelwidth)+ ( lx )  + scrolltiles]));
    a764:	86 30       	cpi	r24, 0x06	; 6
    a766:	79 f4       	brne	.+30     	; 0xa786 <checkcollide+0x12a>
    a768:	8a e5       	ldi	r24, 0x5A	; 90
    a76a:	8e 9d       	mul	r24, r14
    a76c:	f0 01       	movw	r30, r0
    a76e:	8f 9d       	mul	r24, r15
    a770:	f0 0d       	add	r31, r0
    a772:	11 24       	eor	r1, r1
    a774:	e0 0f       	add	r30, r16
    a776:	f1 1f       	adc	r31, r17
    a778:	80 91 de 0a 	lds	r24, 0x0ADE	; 0x800ade <scrolltiles>
    a77c:	e8 0f       	add	r30, r24
    a77e:	f1 1d       	adc	r31, r1
    a780:	e9 50       	subi	r30, 0x09	; 9
    a782:	f8 4e       	sbci	r31, 0xE8	; 232
    a784:	32 c0       	rjmp	.+100    	; 0xa7ea <checkcollide+0x18e>
if (level == 7 ) bl=pgm_read_byte(&(level7[((ly  ) *levelwidth)+ ( lx )  + scrolltiles]));
    a786:	87 30       	cpi	r24, 0x07	; 7
    a788:	79 f4       	brne	.+30     	; 0xa7a8 <checkcollide+0x14c>
    a78a:	8a e5       	ldi	r24, 0x5A	; 90
    a78c:	8e 9d       	mul	r24, r14
    a78e:	f0 01       	movw	r30, r0
    a790:	8f 9d       	mul	r24, r15
    a792:	f0 0d       	add	r31, r0
    a794:	11 24       	eor	r1, r1
    a796:	e0 0f       	add	r30, r16
    a798:	f1 1f       	adc	r31, r17
    a79a:	80 91 de 0a 	lds	r24, 0x0ADE	; 0x800ade <scrolltiles>
    a79e:	e8 0f       	add	r30, r24
    a7a0:	f1 1d       	adc	r31, r1
    a7a2:	e5 5f       	subi	r30, 0xF5	; 245
    a7a4:	fc 4e       	sbci	r31, 0xEC	; 236
    a7a6:	21 c0       	rjmp	.+66     	; 0xa7ea <checkcollide+0x18e>
if (level == 8 ) bl=pgm_read_byte(&(level8[((ly  ) *levelwidth)+ ( lx )  + scrolltiles]));
    a7a8:	88 30       	cpi	r24, 0x08	; 8
    a7aa:	79 f4       	brne	.+30     	; 0xa7ca <checkcollide+0x16e>
    a7ac:	8a e5       	ldi	r24, 0x5A	; 90
    a7ae:	8e 9d       	mul	r24, r14
    a7b0:	f0 01       	movw	r30, r0
    a7b2:	8f 9d       	mul	r24, r15
    a7b4:	f0 0d       	add	r31, r0
    a7b6:	11 24       	eor	r1, r1
    a7b8:	e0 0f       	add	r30, r16
    a7ba:	f1 1f       	adc	r31, r17
    a7bc:	80 91 de 0a 	lds	r24, 0x0ADE	; 0x800ade <scrolltiles>
    a7c0:	e8 0f       	add	r30, r24
    a7c2:	f1 1d       	adc	r31, r1
    a7c4:	e1 5e       	subi	r30, 0xE1	; 225
    a7c6:	f1 4f       	sbci	r31, 0xF1	; 241
    a7c8:	10 c0       	rjmp	.+32     	; 0xa7ea <checkcollide+0x18e>
if (level == 9 ) bl=pgm_read_byte(&(level9[((ly  ) *levelwidth)+ ( lx )  + scrolltiles]));
    a7ca:	89 30       	cpi	r24, 0x09	; 9
    a7cc:	79 f4       	brne	.+30     	; 0xa7ec <checkcollide+0x190>
    a7ce:	8a e5       	ldi	r24, 0x5A	; 90
    a7d0:	8e 9d       	mul	r24, r14
    a7d2:	f0 01       	movw	r30, r0
    a7d4:	8f 9d       	mul	r24, r15
    a7d6:	f0 0d       	add	r31, r0
    a7d8:	11 24       	eor	r1, r1
    a7da:	e0 0f       	add	r30, r16
    a7dc:	f1 1f       	adc	r31, r17
    a7de:	80 91 de 0a 	lds	r24, 0x0ADE	; 0x800ade <scrolltiles>
    a7e2:	e8 0f       	add	r30, r24
    a7e4:	f1 1d       	adc	r31, r1
    a7e6:	ed 5c       	subi	r30, 0xCD	; 205
    a7e8:	f6 4f       	sbci	r31, 0xF6	; 246
    a7ea:	c4 91       	lpm	r28, Z
    
if (bl == 26 || bl == 28 ) finished = true;
    a7ec:	ca 31       	cpi	r28, 0x1A	; 26
    a7ee:	11 f0       	breq	.+4      	; 0xa7f4 <checkcollide+0x198>
    a7f0:	cc 31       	cpi	r28, 0x1C	; 28
    a7f2:	19 f4       	brne	.+6      	; 0xa7fa <checkcollide+0x19e>
    a7f4:	81 e0       	ldi	r24, 0x01	; 1
    a7f6:	80 93 96 0a 	sts	0x0A96, r24	; 0x800a96 <finished>
if ((bl == 29 || bl == 30 ) && z == 3 && play == true ) { 
    a7fa:	83 ee       	ldi	r24, 0xE3	; 227
    a7fc:	8c 0f       	add	r24, r28
    a7fe:	82 30       	cpi	r24, 0x02	; 2
    a800:	18 f5       	brcc	.+70     	; 0xa848 <checkcollide+0x1ec>
    a802:	43 30       	cpi	r20, 0x03	; 3
    a804:	51 05       	cpc	r21, r1
    a806:	09 f0       	breq	.+2      	; 0xa80a <checkcollide+0x1ae>
    a808:	ea c0       	rjmp	.+468    	; 0xa9de <checkcollide+0x382>
    a80a:	80 91 de 09 	lds	r24, 0x09DE	; 0x8009de <play>
    a80e:	88 23       	and	r24, r24
    a810:	09 f4       	brne	.+2      	; 0xa814 <checkcollide+0x1b8>
    a812:	fd c0       	rjmp	.+506    	; 0xaa0e <checkcollide+0x3b2>
    died = true;
    a814:	81 e0       	ldi	r24, 0x01	; 1
    a816:	80 93 9c 0a 	sts	0x0A9C, r24	; 0x800a9c <died>
    lives--;    
    a81a:	80 91 51 0a 	lds	r24, 0x0A51	; 0x800a51 <lives>
    a81e:	81 50       	subi	r24, 0x01	; 1
    a820:	80 93 51 0a 	sts	0x0A51, r24	; 0x800a51 <lives>
    isplaying = false; 
    a824:	10 92 97 0a 	sts	0x0A97, r1	; 0x800a97 <isplaying>
    play = false;
    a828:	10 92 de 09 	sts	0x09DE, r1	; 0x8009de <play>
    bonus = 0;  
    a82c:	10 92 95 0a 	sts	0x0A95, r1	; 0x800a95 <bonus+0x1>
    a830:	10 92 94 0a 	sts	0x0A94, r1	; 0x800a94 <bonus>
    TriggerFx(9,0xff,true);
    a834:	41 e0       	ldi	r20, 0x01	; 1
    a836:	6f ef       	ldi	r22, 0xFF	; 255
    a838:	89 e0       	ldi	r24, 0x09	; 9
    a83a:	0e 94 c1 43 	call	0x8782	; 0x8782 <TriggerFx>
    WaitVsync(240);     
    a83e:	80 ef       	ldi	r24, 0xF0	; 240
    a840:	90 e0       	ldi	r25, 0x00	; 0
    a842:	0e 94 01 4e 	call	0x9c02	; 0x9c02 <WaitVsync>
    a846:	e3 c0       	rjmp	.+454    	; 0xaa0e <checkcollide+0x3b2>
};
    
    
if (bl == 41 && z == 1 ) { 
    a848:	c9 32       	cpi	r28, 0x29	; 41
    a84a:	09 f0       	breq	.+2      	; 0xa84e <checkcollide+0x1f2>
    a84c:	69 c0       	rjmp	.+210    	; 0xa920 <checkcollide+0x2c4>
    a84e:	41 30       	cpi	r20, 0x01	; 1
    a850:	51 05       	cpc	r21, r1
    a852:	09 f0       	breq	.+2      	; 0xa856 <checkcollide+0x1fa>
    a854:	d5 c1       	rjmp	.+938    	; 0xac00 <checkcollide+0x5a4>

dp = ((ly  ) *levelwidth)+ ( lx )  + scrolltiles;
    a856:	2a e5       	ldi	r18, 0x5A	; 90
    a858:	2e 9d       	mul	r18, r14
    a85a:	c0 01       	movw	r24, r0
    a85c:	2f 9d       	mul	r18, r15
    a85e:	90 0d       	add	r25, r0
    a860:	11 24       	eor	r1, r1
    a862:	80 0f       	add	r24, r16
    a864:	91 1f       	adc	r25, r17
    a866:	20 91 de 0a 	lds	r18, 0x0ADE	; 0x800ade <scrolltiles>
    a86a:	82 0f       	add	r24, r18
    a86c:	91 1d       	adc	r25, r1
    a86e:	90 93 61 0a 	sts	0x0A61, r25	; 0x800a61 <dp+0x1>
    a872:	80 93 60 0a 	sts	0x0A60, r24	; 0x800a60 <dp>
    a876:	e2 e6       	ldi	r30, 0x62	; 98
    a878:	fa e0       	ldi	r31, 0x0A	; 10
    for (int xi = 0; xi < maxdiamonds; xi ++ )
    a87a:	c1 2c       	mov	r12, r1
    a87c:	d1 2c       	mov	r13, r1
    {
    if (diamonds[xi] == dp) {break;return 0;}   
    a87e:	21 91       	ld	r18, Z+
    a880:	31 91       	ld	r19, Z+
    a882:	82 17       	cp	r24, r18
    a884:	93 07       	cpc	r25, r19
    a886:	09 f4       	brne	.+2      	; 0xa88a <checkcollide+0x22e>
    a888:	bb c1       	rjmp	.+886    	; 0xac00 <checkcollide+0x5a4>
    if (diamonds[xi] == 0 ) {
    a88a:	23 2b       	or	r18, r19
    a88c:	09 f0       	breq	.+2      	; 0xa890 <checkcollide+0x234>
    a88e:	3f c0       	rjmp	.+126    	; 0xa90e <checkcollide+0x2b2>
    score = score + 5 ;
    a890:	80 91 c5 09 	lds	r24, 0x09C5	; 0x8009c5 <score>
    a894:	90 91 c6 09 	lds	r25, 0x09C6	; 0x8009c6 <score+0x1>
    a898:	05 96       	adiw	r24, 0x05	; 5
    a89a:	90 93 c6 09 	sts	0x09C6, r25	; 0x8009c6 <score+0x1>
    a89e:	80 93 c5 09 	sts	0x09C5, r24	; 0x8009c5 <score>
    bonus++;
    a8a2:	80 91 94 0a 	lds	r24, 0x0A94	; 0x800a94 <bonus>
    a8a6:	90 91 95 0a 	lds	r25, 0x0A95	; 0x800a95 <bonus+0x1>
    a8aa:	01 96       	adiw	r24, 0x01	; 1
    a8ac:	90 93 95 0a 	sts	0x0A95, r25	; 0x800a95 <bonus+0x1>
    a8b0:	80 93 94 0a 	sts	0x0A94, r24	; 0x800a94 <bonus>
    updatepoints();
    a8b4:	0e 94 1d 53 	call	0xa63a	; 0xa63a <updatepoints>
    TriggerFx(7,0xff,true);
    a8b8:	41 e0       	ldi	r20, 0x01	; 1
    a8ba:	6f ef       	ldi	r22, 0xFF	; 255
    a8bc:	87 e0       	ldi	r24, 0x07	; 7
    a8be:	0e 94 c1 43 	call	0x8782	; 0x8782 <TriggerFx>
        
    lx = lx * 2 + destX;
    a8c2:	00 0f       	add	r16, r16
    a8c4:	11 1f       	adc	r17, r17
    a8c6:	80 91 5d 0a 	lds	r24, 0x0A5D	; 0x800a5d <destX>
    a8ca:	08 0f       	add	r16, r24
    a8cc:	11 1d       	adc	r17, r1
    if (lx >= 32 ) lx = lx - 32;
    a8ce:	00 32       	cpi	r16, 0x20	; 32
    a8d0:	11 05       	cpc	r17, r1
    a8d2:	14 f0       	brlt	.+4      	; 0xa8d8 <checkcollide+0x27c>
    a8d4:	00 52       	subi	r16, 0x20	; 32
    a8d6:	11 09       	sbc	r17, r1
    DrawMap2(  lx    ,  ly *  2    ,nb );
    a8d8:	ee 0c       	add	r14, r14
    a8da:	41 ee       	ldi	r20, 0xE1	; 225
    a8dc:	56 e7       	ldi	r21, 0x76	; 118
    a8de:	6e 2d       	mov	r22, r14
    a8e0:	80 2f       	mov	r24, r16
    a8e2:	0e 94 c2 4d 	call	0x9b84	; 0x9b84 <DrawMap>
    DrawMap2(  lx + 1,  ly *  2    ,nb );
    a8e6:	d1 e0       	ldi	r29, 0x01	; 1
    a8e8:	d0 0f       	add	r29, r16
    a8ea:	41 ee       	ldi	r20, 0xE1	; 225
    a8ec:	56 e7       	ldi	r21, 0x76	; 118
    a8ee:	6e 2d       	mov	r22, r14
    a8f0:	8d 2f       	mov	r24, r29
    a8f2:	0e 94 c2 4d 	call	0x9b84	; 0x9b84 <DrawMap>
    DrawMap2(  lx    ,  ly *  2 + 1,nb );
    a8f6:	e3 94       	inc	r14
    a8f8:	41 ee       	ldi	r20, 0xE1	; 225
    a8fa:	56 e7       	ldi	r21, 0x76	; 118
    a8fc:	6e 2d       	mov	r22, r14
    a8fe:	80 2f       	mov	r24, r16
    a900:	0e 94 c2 4d 	call	0x9b84	; 0x9b84 <DrawMap>
    DrawMap2(  lx + 1,  ly *  2 + 1,nb );        
    a904:	41 ee       	ldi	r20, 0xE1	; 225
    a906:	56 e7       	ldi	r21, 0x76	; 118
    a908:	6e 2d       	mov	r22, r14
    a90a:	8d 2f       	mov	r24, r29
    a90c:	5a c0       	rjmp	.+180    	; 0xa9c2 <checkcollide+0x366>
    
    
if (bl == 41 && z == 1 ) { 

dp = ((ly  ) *levelwidth)+ ( lx )  + scrolltiles;
    for (int xi = 0; xi < maxdiamonds; xi ++ )
    a90e:	2f ef       	ldi	r18, 0xFF	; 255
    a910:	c2 1a       	sub	r12, r18
    a912:	d2 0a       	sbc	r13, r18
    a914:	29 e1       	ldi	r18, 0x19	; 25
    a916:	c2 16       	cp	r12, r18
    a918:	d1 04       	cpc	r13, r1
    a91a:	09 f0       	breq	.+2      	; 0xa91e <checkcollide+0x2c2>
    a91c:	b0 cf       	rjmp	.-160    	; 0xa87e <checkcollide+0x222>
    a91e:	70 c1       	rjmp	.+736    	; 0xac00 <checkcollide+0x5a4>
    diamonds[xi] = dp;
    break;
    };
    };
};    
if (bl == 3 && z == 2 ) { 
    a920:	c3 30       	cpi	r28, 0x03	; 3
    a922:	09 f0       	breq	.+2      	; 0xa926 <checkcollide+0x2ca>
    a924:	5c c0       	rjmp	.+184    	; 0xa9de <checkcollide+0x382>
    a926:	42 30       	cpi	r20, 0x02	; 2
    a928:	51 05       	cpc	r21, r1
    a92a:	09 f0       	breq	.+2      	; 0xa92e <checkcollide+0x2d2>
    a92c:	69 c1       	rjmp	.+722    	; 0xac00 <checkcollide+0x5a4>
dp = ((ly  ) *levelwidth)+ ( lx )  + scrolltiles;
    a92e:	2a e5       	ldi	r18, 0x5A	; 90
    a930:	2e 9d       	mul	r18, r14
    a932:	c0 01       	movw	r24, r0
    a934:	2f 9d       	mul	r18, r15
    a936:	90 0d       	add	r25, r0
    a938:	11 24       	eor	r1, r1
    a93a:	80 0f       	add	r24, r16
    a93c:	91 1f       	adc	r25, r17
    a93e:	20 91 de 0a 	lds	r18, 0x0ADE	; 0x800ade <scrolltiles>
    a942:	82 0f       	add	r24, r18
    a944:	91 1d       	adc	r25, r1
    a946:	90 93 61 0a 	sts	0x0A61, r25	; 0x800a61 <dp+0x1>
    a94a:	80 93 60 0a 	sts	0x0A60, r24	; 0x800a60 <dp>
    a94e:	e2 e6       	ldi	r30, 0x62	; 98
    a950:	fa e0       	ldi	r31, 0x0A	; 10
    for (int xi = 0; xi  < maxdiamonds; xi ++ )
    a952:	c1 2c       	mov	r12, r1
    a954:	d1 2c       	mov	r13, r1
    {
    if (diamonds[xi] == dp) {break;return 0;}   
    a956:	21 91       	ld	r18, Z+
    a958:	31 91       	ld	r19, Z+
    a95a:	82 17       	cp	r24, r18
    a95c:	93 07       	cpc	r25, r19
    a95e:	09 f4       	brne	.+2      	; 0xa962 <checkcollide+0x306>
    a960:	4f c1       	rjmp	.+670    	; 0xac00 <checkcollide+0x5a4>
    if (diamonds[xi] == 0 ) {
    a962:	23 2b       	or	r18, r19
    a964:	09 f0       	breq	.+2      	; 0xa968 <checkcollide+0x30c>
    a966:	4a c0       	rjmp	.+148    	; 0xa9fc <checkcollide+0x3a0>
    score = score + 5 ;
    a968:	80 91 c5 09 	lds	r24, 0x09C5	; 0x8009c5 <score>
    a96c:	90 91 c6 09 	lds	r25, 0x09C6	; 0x8009c6 <score+0x1>
    a970:	05 96       	adiw	r24, 0x05	; 5
    a972:	90 93 c6 09 	sts	0x09C6, r25	; 0x8009c6 <score+0x1>
    a976:	80 93 c5 09 	sts	0x09C5, r24	; 0x8009c5 <score>
    bonus++;
    a97a:	80 91 94 0a 	lds	r24, 0x0A94	; 0x800a94 <bonus>
    a97e:	90 91 95 0a 	lds	r25, 0x0A95	; 0x800a95 <bonus+0x1>
    a982:	01 96       	adiw	r24, 0x01	; 1
    a984:	90 93 95 0a 	sts	0x0A95, r25	; 0x800a95 <bonus+0x1>
    a988:	80 93 94 0a 	sts	0x0A94, r24	; 0x800a94 <bonus>
    updatepoints();
    a98c:	0e 94 1d 53 	call	0xa63a	; 0xa63a <updatepoints>
    TriggerFx(7,0xff,true);
    a990:	41 e0       	ldi	r20, 0x01	; 1
    a992:	6f ef       	ldi	r22, 0xFF	; 255
    a994:	87 e0       	ldi	r24, 0x07	; 7
    a996:	0e 94 c1 43 	call	0x8782	; 0x8782 <TriggerFx>
    lx = lx * 2 + destX;
    a99a:	c8 01       	movw	r24, r16
    a99c:	88 0f       	add	r24, r24
    a99e:	99 1f       	adc	r25, r25
    a9a0:	20 91 5d 0a 	lds	r18, 0x0A5D	; 0x800a5d <destX>
    a9a4:	82 0f       	add	r24, r18
    a9a6:	91 1d       	adc	r25, r1
    if (lx >= 32 ) lx = lx - 32;
    a9a8:	80 32       	cpi	r24, 0x20	; 32
    a9aa:	91 05       	cpc	r25, r1
    a9ac:	0c f0       	brlt	.+2      	; 0xa9b0 <checkcollide+0x354>
    a9ae:	80 97       	sbiw	r24, 0x20	; 32
    //DrawMap2(  lx    ,  ly *  2    ,banana );
    bananaCount = bananaCount + 1;
    a9b0:	90 91 03 01 	lds	r25, 0x0103	; 0x800103 <bananaCount>
    a9b4:	9f 5f       	subi	r25, 0xFF	; 255
    a9b6:	90 93 03 01 	sts	0x0103, r25	; 0x800103 <bananaCount>
    DrawMap2(  lx    ,  ly *  2    ,block2 );      
    a9ba:	6e 2d       	mov	r22, r14
    a9bc:	66 0f       	add	r22, r22
    a9be:	45 e7       	ldi	r20, 0x75	; 117
    a9c0:	57 e7       	ldi	r21, 0x77	; 119
    a9c2:	0e 94 c2 4d 	call	0x9b84	; 0x9b84 <DrawMap>
    diamonds[xi] = dp;
    a9c6:	f6 01       	movw	r30, r12
    a9c8:	ee 0f       	add	r30, r30
    a9ca:	ff 1f       	adc	r31, r31
    a9cc:	ee 59       	subi	r30, 0x9E	; 158
    a9ce:	f5 4f       	sbci	r31, 0xF5	; 245
    a9d0:	80 91 60 0a 	lds	r24, 0x0A60	; 0x800a60 <dp>
    a9d4:	90 91 61 0a 	lds	r25, 0x0A61	; 0x800a61 <dp+0x1>
    a9d8:	91 83       	std	Z+1, r25	; 0x01
    a9da:	80 83       	st	Z, r24
    break;
    a9dc:	11 c1       	rjmp	.+546    	; 0xac00 <checkcollide+0x5a4>
    };
    };
}; 
if (bl == 9 )
    a9de:	c9 30       	cpi	r28, 0x09	; 9
    a9e0:	b1 f4       	brne	.+44     	; 0xaa0e <checkcollide+0x3b2>
{
lx = x + Levelx;
    a9e2:	c9 0e       	add	r12, r25
    a9e4:	d1 1c       	adc	r13, r1
   
} else return 0;  
}    

    
if (bl > 0 && bl <= 20 ) return 1; else return 0;
    a9e6:	8f e0       	ldi	r24, 0x0F	; 15
    a9e8:	c8 22       	and	r12, r24
    a9ea:	dd 24       	eor	r13, r13
    a9ec:	81 e0       	ldi	r24, 0x01	; 1
    a9ee:	90 e0       	ldi	r25, 0x00	; 0
    a9f0:	29 e0       	ldi	r18, 0x09	; 9
    a9f2:	c2 16       	cp	r12, r18
    a9f4:	d1 04       	cpc	r13, r1
    a9f6:	0c f4       	brge	.+2      	; 0xa9fa <checkcollide+0x39e>
    a9f8:	0a c1       	rjmp	.+532    	; 0xac0e <checkcollide+0x5b2>
    a9fa:	08 c1       	rjmp	.+528    	; 0xac0c <checkcollide+0x5b0>
    };
    };
};    
if (bl == 3 && z == 2 ) { 
dp = ((ly  ) *levelwidth)+ ( lx )  + scrolltiles;
    for (int xi = 0; xi  < maxdiamonds; xi ++ )
    a9fc:	2f ef       	ldi	r18, 0xFF	; 255
    a9fe:	c2 1a       	sub	r12, r18
    aa00:	d2 0a       	sbc	r13, r18
    aa02:	29 e1       	ldi	r18, 0x19	; 25
    aa04:	c2 16       	cp	r12, r18
    aa06:	d1 04       	cpc	r13, r1
    aa08:	09 f0       	breq	.+2      	; 0xaa0c <checkcollide+0x3b0>
    aa0a:	a5 cf       	rjmp	.-182    	; 0xa956 <checkcollide+0x2fa>
    aa0c:	f9 c0       	rjmp	.+498    	; 0xac00 <checkcollide+0x5a4>
lx = lx << 4;
ly = ly - lx;
if (ly <= 8  ) return 1; else return 0;  
}
    
if (bl == 10 )
    aa0e:	ca 30       	cpi	r28, 0x0A	; 10
    aa10:	79 f4       	brne	.+30     	; 0xaa30 <checkcollide+0x3d4>
{
lx = x + Levelx;
    aa12:	80 91 9b 0a 	lds	r24, 0x0A9B	; 0x800a9b <Levelx>
    aa16:	c8 0e       	add	r12, r24
    aa18:	d1 1c       	adc	r13, r1
   
} else return 0;  
}    

    
if (bl > 0 && bl <= 20 ) return 1; else return 0;
    aa1a:	8f e0       	ldi	r24, 0x0F	; 15
    aa1c:	c8 22       	and	r12, r24
    aa1e:	dd 24       	eor	r13, r13
    aa20:	81 e0       	ldi	r24, 0x01	; 1
    aa22:	90 e0       	ldi	r25, 0x00	; 0
    aa24:	29 e0       	ldi	r18, 0x09	; 9
    aa26:	c2 16       	cp	r12, r18
    aa28:	d1 04       	cpc	r13, r1
    aa2a:	0c f0       	brlt	.+2      	; 0xaa2e <checkcollide+0x3d2>
    aa2c:	f0 c0       	rjmp	.+480    	; 0xac0e <checkcollide+0x5b2>
    aa2e:	ee c0       	rjmp	.+476    	; 0xac0c <checkcollide+0x5b0>
}
 

    
    
if (bl == 39 )
    aa30:	c7 32       	cpi	r28, 0x27	; 39
    aa32:	09 f0       	breq	.+2      	; 0xaa36 <checkcollide+0x3da>
    aa34:	e5 c0       	rjmp	.+458    	; 0xac00 <checkcollide+0x5a4>
{
lx = y;
ly = y;
lx = lx >> 4;
lx = lx << 4;
    aa36:	c7 01       	movw	r24, r14
    aa38:	f4 e0       	ldi	r31, 0x04	; 4
    aa3a:	88 0f       	add	r24, r24
    aa3c:	99 1f       	adc	r25, r25
    aa3e:	fa 95       	dec	r31
    aa40:	e1 f7       	brne	.-8      	; 0xaa3a <checkcollide+0x3de>
ly = ly - lx;
        
if (ly < 5  ) 
    aa42:	a8 1a       	sub	r10, r24
    aa44:	b9 0a       	sbc	r11, r25
    aa46:	85 e0       	ldi	r24, 0x05	; 5
    aa48:	a8 16       	cp	r10, r24
    aa4a:	b1 04       	cpc	r11, r1
    aa4c:	0c f0       	brlt	.+2      	; 0xaa50 <checkcollide+0x3f4>
    aa4e:	7d c0       	rjmp	.+250    	; 0xab4a <checkcollide+0x4ee>
{
lx = x + Levelx;
    aa50:	80 91 9b 0a 	lds	r24, 0x0A9B	; 0x800a9b <Levelx>
    aa54:	c8 0e       	add	r12, r24
    aa56:	d1 1c       	adc	r13, r1
ly = y;
lx = lx >> 4;
    aa58:	86 01       	movw	r16, r12
    aa5a:	e4 e0       	ldi	r30, 0x04	; 4
    aa5c:	15 95       	asr	r17
    aa5e:	07 95       	ror	r16
    aa60:	ea 95       	dec	r30
    aa62:	e1 f7       	brne	.-8      	; 0xaa5c <checkcollide+0x400>
ly = ly >> 4;  
dp = ((ly  ) *levelwidth)+ ( lx )  + scrolltiles;    
    aa64:	2a e5       	ldi	r18, 0x5A	; 90
    aa66:	2e 9d       	mul	r18, r14
    aa68:	c0 01       	movw	r24, r0
    aa6a:	2f 9d       	mul	r18, r15
    aa6c:	90 0d       	add	r25, r0
    aa6e:	11 24       	eor	r1, r1
    aa70:	80 0f       	add	r24, r16
    aa72:	91 1f       	adc	r25, r17
    aa74:	20 91 de 0a 	lds	r18, 0x0ADE	; 0x800ade <scrolltiles>
    aa78:	82 0f       	add	r24, r18
    aa7a:	91 1d       	adc	r25, r1
    aa7c:	90 93 61 0a 	sts	0x0A61, r25	; 0x800a61 <dp+0x1>
    aa80:	80 93 60 0a 	sts	0x0A60, r24	; 0x800a60 <dp>
    aa84:	e9 e2       	ldi	r30, 0x29	; 41
    aa86:	f9 e0       	ldi	r31, 0x09	; 9
     for (int xi = 0; xi  < maxbridges; xi ++ )
    aa88:	20 e0       	ldi	r18, 0x00	; 0
    aa8a:	30 e0       	ldi	r19, 0x00	; 0
     {
     if (bridges[xi].id == dp)         
    aa8c:	40 81       	ld	r20, Z
    aa8e:	51 81       	ldd	r21, Z+1	; 0x01
    aa90:	84 17       	cp	r24, r20
    aa92:	95 07       	cpc	r25, r21
    aa94:	09 f0       	breq	.+2      	; 0xaa98 <checkcollide+0x43c>
    aa96:	9e c0       	rjmp	.+316    	; 0xabd4 <checkcollide+0x578>
       lx = x + Levelx;
       ly = x + Levelx;
       lx = lx >> 4;
       lx = lx << 4;
       ly = ly - lx;          
        if (ly <= 8 )
    aa98:	c8 01       	movw	r24, r16
    aa9a:	54 e0       	ldi	r21, 0x04	; 4
    aa9c:	88 0f       	add	r24, r24
    aa9e:	99 1f       	adc	r25, r25
    aaa0:	5a 95       	dec	r21
    aaa2:	e1 f7       	brne	.-8      	; 0xaa9c <checkcollide+0x440>
    aaa4:	c8 1a       	sub	r12, r24
    aaa6:	d9 0a       	sbc	r13, r25
    aaa8:	90 91 5d 0a 	lds	r25, 0x0A5D	; 0x800a5d <destX>
    aaac:	e9 01       	movw	r28, r18
    aaae:	cc 0f       	add	r28, r28
    aab0:	dd 1f       	adc	r29, r29
    aab2:	cc 0f       	add	r28, r28
    aab4:	dd 1f       	adc	r29, r29
    aab6:	00 0f       	add	r16, r16
    aab8:	11 1f       	adc	r17, r17
        {
        bridges[xi].r++;    
    aaba:	fe 01       	movw	r30, r28
    aabc:	e7 5d       	subi	r30, 0xD7	; 215
    aabe:	f6 4f       	sbci	r31, 0xF6	; 246
       lx = x + Levelx;
       ly = x + Levelx;
       lx = lx >> 4;
       lx = lx << 4;
       ly = ly - lx;          
        if (ly <= 8 )
    aac0:	29 e0       	ldi	r18, 0x09	; 9
    aac2:	c2 16       	cp	r12, r18
    aac4:	d1 04       	cpc	r13, r1
    aac6:	0c f0       	brlt	.+2      	; 0xaaca <checkcollide+0x46e>
    aac8:	43 c0       	rjmp	.+134    	; 0xab50 <checkcollide+0x4f4>
        {
        bridges[xi].r++;    
    aaca:	83 81       	ldd	r24, Z+3	; 0x03
    aacc:	21 e0       	ldi	r18, 0x01	; 1
    aace:	28 0f       	add	r18, r24
    aad0:	23 83       	std	Z+3, r18	; 0x03
        lx = x + Levelx;
        ly = y;
        lx = lx >> 4;
        ly = ly >> 4;
        lx = lx * 2 + destX;
    aad2:	09 0f       	add	r16, r25
    aad4:	11 1d       	adc	r17, r1
        if (lx >= 32 ) lx = lx - 32;
    aad6:	00 32       	cpi	r16, 0x20	; 32
    aad8:	11 05       	cpc	r17, r1
    aada:	14 f0       	brlt	.+4      	; 0xaae0 <checkcollide+0x484>
    aadc:	00 52       	subi	r16, 0x20	; 32
    aade:	11 09       	sbc	r17, r1
        if ( bridges[xi].r >  0 && bridges[xi].r <= 8  )  DrawMap2(  lx    ,     ly *  2    ,bridge1 );
    aae0:	88 30       	cpi	r24, 0x08	; 8
    aae2:	38 f4       	brcc	.+14     	; 0xaaf2 <checkcollide+0x496>
    aae4:	4a ee       	ldi	r20, 0xEA	; 234
    aae6:	56 e7       	ldi	r21, 0x76	; 118
    aae8:	6e 2d       	mov	r22, r14
    aaea:	66 0f       	add	r22, r22
    aaec:	80 2f       	mov	r24, r16
    aaee:	0e 94 c2 4d 	call	0x9b84	; 0x9b84 <DrawMap>
        if ( bridges[xi].r >  8 && bridges[xi].r <= 16  )  DrawMap2(  lx    ,     ly *  2    ,bridge2 ); 
    aaf2:	fe 01       	movw	r30, r28
    aaf4:	e7 5d       	subi	r30, 0xD7	; 215
    aaf6:	f6 4f       	sbci	r31, 0xF6	; 246
    aaf8:	83 81       	ldd	r24, Z+3	; 0x03
    aafa:	89 50       	subi	r24, 0x09	; 9
    aafc:	88 30       	cpi	r24, 0x08	; 8
    aafe:	38 f4       	brcc	.+14     	; 0xab0e <checkcollide+0x4b2>
    ab00:	47 ee       	ldi	r20, 0xE7	; 231
    ab02:	56 e7       	ldi	r21, 0x76	; 118
    ab04:	6e 2d       	mov	r22, r14
    ab06:	66 0f       	add	r22, r22
    ab08:	80 2f       	mov	r24, r16
    ab0a:	0e 94 c2 4d 	call	0x9b84	; 0x9b84 <DrawMap>
        if ( bridges[xi].r > 16 && bridges[xi].r < 24  )  DrawMap2(  lx    ,     ly *  2    ,bridge3 );     
    ab0e:	fe 01       	movw	r30, r28
    ab10:	e7 5d       	subi	r30, 0xD7	; 215
    ab12:	f6 4f       	sbci	r31, 0xF6	; 246
    ab14:	83 81       	ldd	r24, Z+3	; 0x03
    ab16:	81 51       	subi	r24, 0x11	; 17
    ab18:	87 30       	cpi	r24, 0x07	; 7
    ab1a:	38 f4       	brcc	.+14     	; 0xab2a <checkcollide+0x4ce>
    ab1c:	44 ee       	ldi	r20, 0xE4	; 228
    ab1e:	56 e7       	ldi	r21, 0x76	; 118
    ab20:	6e 2d       	mov	r22, r14
    ab22:	66 0f       	add	r22, r22
    ab24:	80 2f       	mov	r24, r16
    ab26:	0e 94 c2 4d 	call	0x9b84	; 0x9b84 <DrawMap>
        if ( bridges[xi].r >= 24 ) { bridges[xi].r = 24;DrawMap2(  lx    ,     ly *  2    ,nb ); return 0;};
    ab2a:	fe 01       	movw	r30, r28
    ab2c:	e7 5d       	subi	r30, 0xD7	; 215
    ab2e:	f6 4f       	sbci	r31, 0xF6	; 246
    ab30:	83 81       	ldd	r24, Z+3	; 0x03
    ab32:	88 31       	cpi	r24, 0x18	; 24
    ab34:	08 f4       	brcc	.+2      	; 0xab38 <checkcollide+0x4dc>
    ab36:	5b c0       	rjmp	.+182    	; 0xabee <checkcollide+0x592>
    ab38:	88 e1       	ldi	r24, 0x18	; 24
    ab3a:	83 83       	std	Z+3, r24	; 0x03
    ab3c:	6e 2d       	mov	r22, r14
    ab3e:	66 0f       	add	r22, r22
    ab40:	41 ee       	ldi	r20, 0xE1	; 225
    ab42:	56 e7       	ldi	r21, 0x76	; 118
    ab44:	80 2f       	mov	r24, r16
    ab46:	0e 94 c2 4d 	call	0x9b84	; 0x9b84 <DrawMap>
    ab4a:	80 e0       	ldi	r24, 0x00	; 0
    ab4c:	90 e0       	ldi	r25, 0x00	; 0
    ab4e:	5f c0       	rjmp	.+190    	; 0xac0e <checkcollide+0x5b2>
        }
        else
        {
        bridges[xi].l++;
    ab50:	82 81       	ldd	r24, Z+2	; 0x02
    ab52:	21 e0       	ldi	r18, 0x01	; 1
    ab54:	28 0f       	add	r18, r24
    ab56:	22 83       	std	Z+2, r18	; 0x02
        lx = x + Levelx;
        ly = y;
        lx = lx >> 4;
        ly = ly >> 4;
        lx = lx * 2 + destX;
    ab58:	09 0f       	add	r16, r25
    ab5a:	11 1d       	adc	r17, r1
        if (lx >= 32 ) lx = lx - 32;
    ab5c:	00 32       	cpi	r16, 0x20	; 32
    ab5e:	11 05       	cpc	r17, r1
    ab60:	14 f0       	brlt	.+4      	; 0xab66 <checkcollide+0x50a>
    ab62:	00 52       	subi	r16, 0x20	; 32
    ab64:	11 09       	sbc	r17, r1
        if ( bridges[xi].l > 0 && bridges[xi].l <=  8  )  DrawMap2(  lx  + 1  ,     ly *  2    ,bridge1 );
    ab66:	88 30       	cpi	r24, 0x08	; 8
    ab68:	40 f4       	brcc	.+16     	; 0xab7a <checkcollide+0x51e>
    ab6a:	4a ee       	ldi	r20, 0xEA	; 234
    ab6c:	56 e7       	ldi	r21, 0x76	; 118
    ab6e:	6e 2d       	mov	r22, r14
    ab70:	66 0f       	add	r22, r22
    ab72:	81 e0       	ldi	r24, 0x01	; 1
    ab74:	80 0f       	add	r24, r16
    ab76:	0e 94 c2 4d 	call	0x9b84	; 0x9b84 <DrawMap>
        if ( bridges[xi].l > 8 && bridges[xi].l <= 16 )  DrawMap2(  lx  + 1  ,     ly *  2    ,bridge2 ); 
    ab7a:	fe 01       	movw	r30, r28
    ab7c:	e7 5d       	subi	r30, 0xD7	; 215
    ab7e:	f6 4f       	sbci	r31, 0xF6	; 246
    ab80:	82 81       	ldd	r24, Z+2	; 0x02
    ab82:	89 50       	subi	r24, 0x09	; 9
    ab84:	88 30       	cpi	r24, 0x08	; 8
    ab86:	40 f4       	brcc	.+16     	; 0xab98 <checkcollide+0x53c>
    ab88:	47 ee       	ldi	r20, 0xE7	; 231
    ab8a:	56 e7       	ldi	r21, 0x76	; 118
    ab8c:	6e 2d       	mov	r22, r14
    ab8e:	66 0f       	add	r22, r22
    ab90:	81 e0       	ldi	r24, 0x01	; 1
    ab92:	80 0f       	add	r24, r16
    ab94:	0e 94 c2 4d 	call	0x9b84	; 0x9b84 <DrawMap>
        if ( bridges[xi].l > 16 && bridges[xi].l <  24  )  DrawMap2(  lx  + 1  ,     ly *  2    ,bridge3 );      
    ab98:	fe 01       	movw	r30, r28
    ab9a:	e7 5d       	subi	r30, 0xD7	; 215
    ab9c:	f6 4f       	sbci	r31, 0xF6	; 246
    ab9e:	82 81       	ldd	r24, Z+2	; 0x02
    aba0:	81 51       	subi	r24, 0x11	; 17
    aba2:	87 30       	cpi	r24, 0x07	; 7
    aba4:	40 f4       	brcc	.+16     	; 0xabb6 <checkcollide+0x55a>
    aba6:	44 ee       	ldi	r20, 0xE4	; 228
    aba8:	56 e7       	ldi	r21, 0x76	; 118
    abaa:	6e 2d       	mov	r22, r14
    abac:	66 0f       	add	r22, r22
    abae:	81 e0       	ldi	r24, 0x01	; 1
    abb0:	80 0f       	add	r24, r16
    abb2:	0e 94 c2 4d 	call	0x9b84	; 0x9b84 <DrawMap>
        if ( bridges[xi].l >= 24) { bridges[xi].l = 24;DrawMap2(  lx  + 1  ,  ly *  2    ,nb ); return 0;}; 
    abb6:	fe 01       	movw	r30, r28
    abb8:	e7 5d       	subi	r30, 0xD7	; 215
    abba:	f6 4f       	sbci	r31, 0xF6	; 246
    abbc:	82 81       	ldd	r24, Z+2	; 0x02
    abbe:	88 31       	cpi	r24, 0x18	; 24
    abc0:	b0 f0       	brcs	.+44     	; 0xabee <checkcollide+0x592>
    abc2:	88 e1       	ldi	r24, 0x18	; 24
    abc4:	82 83       	std	Z+2, r24	; 0x02
    abc6:	6e 2d       	mov	r22, r14
    abc8:	66 0f       	add	r22, r22
    abca:	41 ee       	ldi	r20, 0xE1	; 225
    abcc:	56 e7       	ldi	r21, 0x76	; 118
    abce:	81 e0       	ldi	r24, 0x01	; 1
    abd0:	80 0f       	add	r24, r16
    abd2:	b9 cf       	rjmp	.-142    	; 0xab46 <checkcollide+0x4ea>
        
        return 1; 
     };
         
         
     if (bridges[xi].id == 0 ) { bridges[xi].id = dp;bridges[xi].l = 0;bridges[xi].r = 0;return 1;};
    abd4:	45 2b       	or	r20, r21
    abd6:	69 f4       	brne	.+26     	; 0xabf2 <checkcollide+0x596>
    abd8:	22 0f       	add	r18, r18
    abda:	33 1f       	adc	r19, r19
    abdc:	22 0f       	add	r18, r18
    abde:	33 1f       	adc	r19, r19
    abe0:	f9 01       	movw	r30, r18
    abe2:	e7 5d       	subi	r30, 0xD7	; 215
    abe4:	f6 4f       	sbci	r31, 0xF6	; 246
    abe6:	91 83       	std	Z+1, r25	; 0x01
    abe8:	80 83       	st	Z, r24
    abea:	12 82       	std	Z+2, r1	; 0x02
    abec:	13 82       	std	Z+3, r1	; 0x03
    abee:	81 e0       	ldi	r24, 0x01	; 1
    abf0:	ad cf       	rjmp	.-166    	; 0xab4c <checkcollide+0x4f0>
lx = x + Levelx;
ly = y;
lx = lx >> 4;
ly = ly >> 4;  
dp = ((ly  ) *levelwidth)+ ( lx )  + scrolltiles;    
     for (int xi = 0; xi  < maxbridges; xi ++ )
    abf2:	2f 5f       	subi	r18, 0xFF	; 255
    abf4:	3f 4f       	sbci	r19, 0xFF	; 255
    abf6:	34 96       	adiw	r30, 0x04	; 4
    abf8:	2c 30       	cpi	r18, 0x0C	; 12
    abfa:	31 05       	cpc	r19, r1
    abfc:	09 f0       	breq	.+2      	; 0xac00 <checkcollide+0x5a4>
    abfe:	46 cf       	rjmp	.-372    	; 0xaa8c <checkcollide+0x430>
   
} else return 0;  
}    

    
if (bl > 0 && bl <= 20 ) return 1; else return 0;
    ac00:	ef ef       	ldi	r30, 0xFF	; 255
    ac02:	ec 0f       	add	r30, r28
    ac04:	81 e0       	ldi	r24, 0x01	; 1
    ac06:	90 e0       	ldi	r25, 0x00	; 0
    ac08:	e4 31       	cpi	r30, 0x14	; 20
    ac0a:	08 f0       	brcs	.+2      	; 0xac0e <checkcollide+0x5b2>
    ac0c:	80 e0       	ldi	r24, 0x00	; 0
}
    ac0e:	df 91       	pop	r29
    ac10:	cf 91       	pop	r28
    ac12:	1f 91       	pop	r17
    ac14:	0f 91       	pop	r16
    ac16:	ff 90       	pop	r15
    ac18:	ef 90       	pop	r14
    ac1a:	df 90       	pop	r13
    ac1c:	cf 90       	pop	r12
    ac1e:	bf 90       	pop	r11
    ac20:	af 90       	pop	r10
    ac22:	08 95       	ret

0000ac24 <moveplayer2>:
  
}

void moveplayer2()
{
unsigned int joy=ReadJoypad(1);
    ac24:	81 e0       	ldi	r24, 0x01	; 1
    ac26:	0e 94 6e 41 	call	0x82dc	; 0x82dc <ReadJoypad>
if(player2.stuck)
    ac2a:	20 91 3f 0a 	lds	r18, 0x0A3F	; 0x800a3f <player2+0xa>
    ac2e:	22 23       	and	r18, r18
    ac30:	a1 f0       	breq	.+40     	; 0xac5a <moveplayer2+0x36>
{
player2.sCount = player2.sCount + 1;
    ac32:	20 91 3d 0a 	lds	r18, 0x0A3D	; 0x800a3d <player2+0x8>
    ac36:	30 91 3e 0a 	lds	r19, 0x0A3E	; 0x800a3e <player2+0x9>
    ac3a:	2f 5f       	subi	r18, 0xFF	; 255
    ac3c:	3f 4f       	sbci	r19, 0xFF	; 255
if(player2.sCount >= 100)
    ac3e:	24 36       	cpi	r18, 0x64	; 100
    ac40:	31 05       	cpc	r19, r1
    ac42:	2c f4       	brge	.+10     	; 0xac4e <moveplayer2+0x2a>
void moveplayer2()
{
unsigned int joy=ReadJoypad(1);
if(player2.stuck)
{
player2.sCount = player2.sCount + 1;
    ac44:	30 93 3e 0a 	sts	0x0A3E, r19	; 0x800a3e <player2+0x9>
    ac48:	20 93 3d 0a 	sts	0x0A3D, r18	; 0x800a3d <player2+0x8>
    ac4c:	06 c0       	rjmp	.+12     	; 0xac5a <moveplayer2+0x36>
if(player2.sCount >= 100)
{
player2.sCount = 0;
    ac4e:	10 92 3e 0a 	sts	0x0A3E, r1	; 0x800a3e <player2+0x9>
    ac52:	10 92 3d 0a 	sts	0x0A3D, r1	; 0x800a3d <player2+0x8>
player2.stuck = false;
    ac56:	10 92 3f 0a 	sts	0x0A3F, r1	; 0x800a3f <player2+0xa>
}
}
//if (joy&BTN_B) TriggerFx(6,0xff,true);
if (introplaying && joy&BTN_START) { introplaying = false;return;}; 
    ac5a:	20 91 81 09 	lds	r18, 0x0981	; 0x800981 <introplaying>
    ac5e:	22 23       	and	r18, r18
    ac60:	29 f0       	breq	.+10     	; 0xac6c <moveplayer2+0x48>
    ac62:	83 ff       	sbrs	r24, 3
    ac64:	85 c0       	rjmp	.+266    	; 0xad70 <moveplayer2+0x14c>
    ac66:	10 92 81 09 	sts	0x0981, r1	; 0x800981 <introplaying>
    ac6a:	08 95       	ret
if (!introplaying)
{

 
if (joy&BTN_LEFT && player2.stuck == false) { 
    ac6c:	86 ff       	sbrs	r24, 6
    ac6e:	13 c0       	rjmp	.+38     	; 0xac96 <moveplayer2+0x72>
    ac70:	20 91 3f 0a 	lds	r18, 0x0A3F	; 0x800a3f <player2+0xa>
    ac74:	21 11       	cpse	r18, r1
    ac76:	0f c0       	rjmp	.+30     	; 0xac96 <moveplayer2+0x72>
player2.direction = 'l';
    ac78:	2c e6       	ldi	r18, 0x6C	; 108
    ac7a:	20 93 43 0a 	sts	0x0A43, r18	; 0x800a43 <player2+0xe>
player2.action = 'w';
    ac7e:	27 e7       	ldi	r18, 0x77	; 119
    ac80:	20 93 42 0a 	sts	0x0A42, r18	; 0x800a42 <player2+0xd>
player2.facing = 1;
    ac84:	21 e0       	ldi	r18, 0x01	; 1
    ac86:	30 e0       	ldi	r19, 0x00	; 0
    ac88:	30 93 41 0a 	sts	0x0A41, r19	; 0x800a41 <player2+0xc>
    ac8c:	20 93 40 0a 	sts	0x0A40, r18	; 0x800a40 <player2+0xb>
player2.ximpulse = -1; 
    ac90:	2f ef       	ldi	r18, 0xFF	; 255
    ac92:	20 93 47 0a 	sts	0x0A47, r18	; 0x800a47 <player2+0x12>
};
if (joy&BTN_RIGHT && player2.stuck == false) {
    ac96:	87 ff       	sbrs	r24, 7
    ac98:	11 c0       	rjmp	.+34     	; 0xacbc <moveplayer2+0x98>
    ac9a:	20 91 3f 0a 	lds	r18, 0x0A3F	; 0x800a3f <player2+0xa>
    ac9e:	21 11       	cpse	r18, r1
    aca0:	0d c0       	rjmp	.+26     	; 0xacbc <moveplayer2+0x98>
player2.direction = 'r';
    aca2:	22 e7       	ldi	r18, 0x72	; 114
    aca4:	20 93 43 0a 	sts	0x0A43, r18	; 0x800a43 <player2+0xe>
player2.action = 'w';
    aca8:	27 e7       	ldi	r18, 0x77	; 119
    acaa:	20 93 42 0a 	sts	0x0A42, r18	; 0x800a42 <player2+0xd>
player2.facing = 0;
    acae:	10 92 41 0a 	sts	0x0A41, r1	; 0x800a41 <player2+0xc>
    acb2:	10 92 40 0a 	sts	0x0A40, r1	; 0x800a40 <player2+0xb>
player2.ximpulse = 1; 
    acb6:	21 e0       	ldi	r18, 0x01	; 1
    acb8:	20 93 47 0a 	sts	0x0A47, r18	; 0x800a47 <player2+0x12>
};
if ( !(joy&BTN_A) ) {
    acbc:	ac 01       	movw	r20, r24
    acbe:	44 27       	eor	r20, r20
    acc0:	51 70       	andi	r21, 0x01	; 1
    acc2:	90 fd       	sbrc	r25, 0
    acc4:	09 c0       	rjmp	.+18     	; 0xacd8 <moveplayer2+0xb4>
player2.yimpulse = 0;
    acc6:	10 92 48 0a 	sts	0x0A48, r1	; 0x800a48 <player2+0x13>
player2.jumpreleased = true;
    acca:	21 e0       	ldi	r18, 0x01	; 1
    accc:	20 93 4a 0a 	sts	0x0A4A, r18	; 0x800a4a <player2+0x15>
player2.jumping = false;
    acd0:	10 92 49 0a 	sts	0x0A49, r1	; 0x800a49 <player2+0x14>
player2.jumpcounter = 0;
    acd4:	10 92 4f 0a 	sts	0x0A4F, r1	; 0x800a4f <player2+0x1a>
};

if ( !(joy&BTN_B) ) {
    acd8:	80 fd       	sbrc	r24, 0
    acda:	03 c0       	rjmp	.+6      	; 0xace2 <moveplayer2+0xbe>
player2.bpressed = false;
    acdc:	10 92 4b 0a 	sts	0x0A4B, r1	; 0x800a4b <player2+0x16>
    ace0:	08 c0       	rjmp	.+16     	; 0xacf2 <moveplayer2+0xce>
};
if ( joy&BTN_B && player2.touchground) {
    ace2:	20 91 46 0a 	lds	r18, 0x0A46	; 0x800a46 <player2+0x11>
    ace6:	22 23       	and	r18, r18
    ace8:	21 f0       	breq	.+8      	; 0xacf2 <moveplayer2+0xce>
	if(bananaCount > 0 && player2.bpressed == false)
    acea:	20 91 03 01 	lds	r18, 0x0103	; 0x800103 <bananaCount>
    acee:	21 11       	cpse	r18, r1
    acf0:	13 c2       	rjmp	.+1062   	; 0xb118 <moveplayer2+0x4f4>
	bananaCount = bananaCount - 1;
    player2.bananaBool = true;
	player2.bpressed = true;
	};
};  
if ( !(joy&BTN_Y) ) {
    acf2:	81 fd       	sbrc	r24, 1
    acf4:	03 c0       	rjmp	.+6      	; 0xacfc <moveplayer2+0xd8>
player2.ypressed = false;
    acf6:	10 92 4c 0a 	sts	0x0A4C, r1	; 0x800a4c <player2+0x17>
    acfa:	16 c0       	rjmp	.+44     	; 0xad28 <moveplayer2+0x104>
};
if ( joy&BTN_Y) {
	if(player2.mushroomCount > 0 && player2.ypressed == false)
    acfc:	80 91 3b 0a 	lds	r24, 0x0A3B	; 0x800a3b <player2+0x6>
    ad00:	90 91 3c 0a 	lds	r25, 0x0A3C	; 0x800a3c <player2+0x7>
    ad04:	18 16       	cp	r1, r24
    ad06:	19 06       	cpc	r1, r25
    ad08:	7c f4       	brge	.+30     	; 0xad28 <moveplayer2+0x104>
    ad0a:	20 91 4c 0a 	lds	r18, 0x0A4C	; 0x800a4c <player2+0x17>
    ad0e:	21 11       	cpse	r18, r1
    ad10:	0b c0       	rjmp	.+22     	; 0xad28 <moveplayer2+0x104>
	{
	player2.mushroomCount = player2.mushroomCount - 1;
    ad12:	01 97       	sbiw	r24, 0x01	; 1
    ad14:	90 93 3c 0a 	sts	0x0A3C, r25	; 0x800a3c <player2+0x7>
    ad18:	80 93 3b 0a 	sts	0x0A3B, r24	; 0x800a3b <player2+0x6>
	player2.ximpulse = 10;
    ad1c:	8a e0       	ldi	r24, 0x0A	; 10
    ad1e:	80 93 47 0a 	sts	0x0A47, r24	; 0x800a47 <player2+0x12>
	player2.ypressed = true;
    ad22:	81 e0       	ldi	r24, 0x01	; 1
    ad24:	80 93 4c 0a 	sts	0x0A4C, r24	; 0x800a4c <player2+0x17>
	};
}; 


if (joy&BTN_A && player2.touchground && player2.jumpreleased && player2.stuck == false) {
    ad28:	45 2b       	or	r20, r21
    ad2a:	11 f1       	breq	.+68     	; 0xad70 <moveplayer2+0x14c>
    ad2c:	80 91 46 0a 	lds	r24, 0x0A46	; 0x800a46 <player2+0x11>
    ad30:	88 23       	and	r24, r24
    ad32:	f1 f0       	breq	.+60     	; 0xad70 <moveplayer2+0x14c>
    ad34:	80 91 4a 0a 	lds	r24, 0x0A4A	; 0x800a4a <player2+0x15>
    ad38:	88 23       	and	r24, r24
    ad3a:	d1 f0       	breq	.+52     	; 0xad70 <moveplayer2+0x14c>
    ad3c:	80 91 3f 0a 	lds	r24, 0x0A3F	; 0x800a3f <player2+0xa>
    ad40:	81 11       	cpse	r24, r1
    ad42:	16 c0       	rjmp	.+44     	; 0xad70 <moveplayer2+0x14c>
player2.action = 'j';
    ad44:	8a e6       	ldi	r24, 0x6A	; 106
    ad46:	80 93 42 0a 	sts	0x0A42, r24	; 0x800a42 <player2+0xd>
player2.yimpulse = 0;
    ad4a:	10 92 48 0a 	sts	0x0A48, r1	; 0x800a48 <player2+0x13>
player2.jumping = true;
    ad4e:	81 e0       	ldi	r24, 0x01	; 1
    ad50:	80 93 49 0a 	sts	0x0A49, r24	; 0x800a49 <player2+0x14>
player2.touchground = false;
    ad54:	10 92 46 0a 	sts	0x0A46, r1	; 0x800a46 <player2+0x11>
player2.jumpreleased = false;
    ad58:	10 92 4a 0a 	sts	0x0A4A, r1	; 0x800a4a <player2+0x15>
player2.jumpcounter++ ; 
    ad5c:	80 91 4f 0a 	lds	r24, 0x0A4F	; 0x800a4f <player2+0x1a>
    ad60:	8f 5f       	subi	r24, 0xFF	; 255
    ad62:	80 93 4f 0a 	sts	0x0A4F, r24	; 0x800a4f <player2+0x1a>
TriggerFx(4,0xff,true);
    ad66:	41 e0       	ldi	r20, 0x01	; 1
    ad68:	6f ef       	ldi	r22, 0xFF	; 255
    ad6a:	84 e0       	ldi	r24, 0x04	; 4
    ad6c:	0e 94 c1 43 	call	0x8782	; 0x8782 <TriggerFx>
};
};

oldx = player2.x;
    ad70:	20 91 35 0a 	lds	r18, 0x0A35	; 0x800a35 <player2>
    ad74:	30 91 36 0a 	lds	r19, 0x0A36	; 0x800a36 <player2+0x1>
    ad78:	30 93 dc 09 	sts	0x09DC, r19	; 0x8009dc <oldx+0x1>
    ad7c:	20 93 db 09 	sts	0x09DB, r18	; 0x8009db <oldx>
oldy = player2.y;
    ad80:	60 91 37 0a 	lds	r22, 0x0A37	; 0x800a37 <player2+0x2>
    ad84:	70 91 38 0a 	lds	r23, 0x0A38	; 0x800a38 <player2+0x3>
    ad88:	70 93 a1 0a 	sts	0x0AA1, r23	; 0x800aa1 <oldy+0x1>
    ad8c:	60 93 a0 0a 	sts	0x0AA0, r22	; 0x800aa0 <oldy>
if (player2.jumpcounter > 0 &&  player2.jumpcounter <= 25 )  player2.yimpulse = -4;
    ad90:	80 91 4f 0a 	lds	r24, 0x0A4F	; 0x800a4f <player2+0x1a>
    ad94:	9f ef       	ldi	r25, 0xFF	; 255
    ad96:	98 0f       	add	r25, r24
    ad98:	99 31       	cpi	r25, 0x19	; 25
    ad9a:	18 f4       	brcc	.+6      	; 0xada2 <moveplayer2+0x17e>
    ad9c:	9c ef       	ldi	r25, 0xFC	; 252
    ad9e:	90 93 48 0a 	sts	0x0A48, r25	; 0x800a48 <player2+0x13>
if (player2.jumpcounter > 25 &&  player2.jumpcounter <= 36 )  player2.yimpulse = -3;   
    ada2:	96 ee       	ldi	r25, 0xE6	; 230
    ada4:	98 0f       	add	r25, r24
    ada6:	9b 30       	cpi	r25, 0x0B	; 11
    ada8:	18 f4       	brcc	.+6      	; 0xadb0 <moveplayer2+0x18c>
    adaa:	9d ef       	ldi	r25, 0xFD	; 253
    adac:	90 93 48 0a 	sts	0x0A48, r25	; 0x800a48 <player2+0x13>
if (player2.jumpcounter > 36 &&  player2.jumpcounter <= 40 ) player2.yimpulse = -2;   
    adb0:	9b ed       	ldi	r25, 0xDB	; 219
    adb2:	98 0f       	add	r25, r24
    adb4:	94 30       	cpi	r25, 0x04	; 4
    adb6:	18 f4       	brcc	.+6      	; 0xadbe <moveplayer2+0x19a>
    adb8:	9e ef       	ldi	r25, 0xFE	; 254
    adba:	90 93 48 0a 	sts	0x0A48, r25	; 0x800a48 <player2+0x13>
if (player2.jumpcounter > 40 &&  player2.jumpcounter <= 46 ) player2.yimpulse = -1;  
    adbe:	97 ed       	ldi	r25, 0xD7	; 215
    adc0:	98 0f       	add	r25, r24
    adc2:	96 30       	cpi	r25, 0x06	; 6
    adc4:	20 f4       	brcc	.+8      	; 0xadce <moveplayer2+0x1aa>
    adc6:	9f ef       	ldi	r25, 0xFF	; 255
    adc8:	90 93 48 0a 	sts	0x0A48, r25	; 0x800a48 <player2+0x13>
    adcc:	02 c0       	rjmp	.+4      	; 0xadd2 <moveplayer2+0x1ae>
if ( player2.jumpcounter > 0 ) player2.jumpcounter++;
    adce:	88 23       	and	r24, r24
    add0:	19 f0       	breq	.+6      	; 0xadd8 <moveplayer2+0x1b4>
    add2:	8f 5f       	subi	r24, 0xFF	; 255
    add4:	80 93 4f 0a 	sts	0x0A4F, r24	; 0x800a4f <player2+0x1a>
if ( player2.jumpcounter > 46 ) player2.jumpcounter = 0;
    add8:	80 91 4f 0a 	lds	r24, 0x0A4F	; 0x800a4f <player2+0x1a>
    addc:	8f 32       	cpi	r24, 0x2F	; 47
    adde:	10 f0       	brcs	.+4      	; 0xade4 <moveplayer2+0x1c0>
    ade0:	10 92 4f 0a 	sts	0x0A4F, r1	; 0x800a4f <player2+0x1a>
player2.x = player2.x + player2.ximpulse;
    ade4:	80 91 47 0a 	lds	r24, 0x0A47	; 0x800a47 <player2+0x12>
    ade8:	a9 01       	movw	r20, r18
    adea:	48 0f       	add	r20, r24
    adec:	51 1d       	adc	r21, r1
    adee:	87 fd       	sbrc	r24, 7
    adf0:	5a 95       	dec	r21
    adf2:	ca 01       	movw	r24, r20
    adf4:	50 93 36 0a 	sts	0x0A36, r21	; 0x800a36 <player2+0x1>
    adf8:	40 93 35 0a 	sts	0x0A35, r20	; 0x800a35 <player2>
player2.y = player2.y + player2.yimpulse + gravity ;
    adfc:	40 91 48 0a 	lds	r20, 0x0A48	; 0x800a48 <player2+0x13>
    ae00:	64 0f       	add	r22, r20
    ae02:	71 1d       	adc	r23, r1
    ae04:	47 fd       	sbrc	r20, 7
    ae06:	7a 95       	dec	r23
    ae08:	6e 5f       	subi	r22, 0xFE	; 254
    ae0a:	7f 4f       	sbci	r23, 0xFF	; 255
    ae0c:	70 93 38 0a 	sts	0x0A38, r23	; 0x800a38 <player2+0x3>
    ae10:	60 93 37 0a 	sts	0x0A37, r22	; 0x800a37 <player2+0x2>
if (player2.x > oldx ) { player2.aniframe++;player2.direction = 'r';};
    ae14:	28 17       	cp	r18, r24
    ae16:	39 07       	cpc	r19, r25
    ae18:	3c f4       	brge	.+14     	; 0xae28 <moveplayer2+0x204>
    ae1a:	20 91 50 0a 	lds	r18, 0x0A50	; 0x800a50 <player2+0x1b>
    ae1e:	2f 5f       	subi	r18, 0xFF	; 255
    ae20:	20 93 50 0a 	sts	0x0A50, r18	; 0x800a50 <player2+0x1b>
    ae24:	22 e7       	ldi	r18, 0x72	; 114
    ae26:	09 c0       	rjmp	.+18     	; 0xae3a <moveplayer2+0x216>
if (player2.x < oldx ) { player2.aniframe++;player2.direction = 'l';};
    ae28:	82 17       	cp	r24, r18
    ae2a:	93 07       	cpc	r25, r19
    ae2c:	4c f4       	brge	.+18     	; 0xae40 <moveplayer2+0x21c>
    ae2e:	20 91 50 0a 	lds	r18, 0x0A50	; 0x800a50 <player2+0x1b>
    ae32:	2f 5f       	subi	r18, 0xFF	; 255
    ae34:	20 93 50 0a 	sts	0x0A50, r18	; 0x800a50 <player2+0x1b>
    ae38:	2c e6       	ldi	r18, 0x6C	; 108
    ae3a:	20 93 43 0a 	sts	0x0A43, r18	; 0x800a43 <player2+0xe>
    ae3e:	05 c0       	rjmp	.+10     	; 0xae4a <moveplayer2+0x226>
if (player2.x == oldx  ) { player2.aniframe = 0;};
    ae40:	28 17       	cp	r18, r24
    ae42:	39 07       	cpc	r19, r25
    ae44:	11 f4       	brne	.+4      	; 0xae4a <moveplayer2+0x226>
    ae46:	10 92 50 0a 	sts	0x0A50, r1	; 0x800a50 <player2+0x1b>
if (player2.aniframe > 0 ) player2.aniframe++;
    ae4a:	20 91 50 0a 	lds	r18, 0x0A50	; 0x800a50 <player2+0x1b>
    ae4e:	22 23       	and	r18, r18
    ae50:	19 f0       	breq	.+6      	; 0xae58 <moveplayer2+0x234>
    ae52:	2f 5f       	subi	r18, 0xFF	; 255
    ae54:	20 93 50 0a 	sts	0x0A50, r18	; 0x800a50 <player2+0x1b>
if (player2.aniframe>24) player2.aniframe = 1;
    ae58:	20 91 50 0a 	lds	r18, 0x0A50	; 0x800a50 <player2+0x1b>
    ae5c:	29 31       	cpi	r18, 0x19	; 25
    ae5e:	18 f0       	brcs	.+6      	; 0xae66 <moveplayer2+0x242>
    ae60:	21 e0       	ldi	r18, 0x01	; 1
    ae62:	20 93 50 0a 	sts	0x0A50, r18	; 0x800a50 <player2+0x1b>
if(checkBanana(player2.x + 4, player2.y ,1) == 1)
    ae66:	41 e0       	ldi	r20, 0x01	; 1
    ae68:	50 e0       	ldi	r21, 0x00	; 0
    ae6a:	04 96       	adiw	r24, 0x04	; 4
    ae6c:	0e 94 34 52 	call	0xa468	; 0xa468 <checkBanana>
    ae70:	01 97       	sbiw	r24, 0x01	; 1
    ae72:	19 f4       	brne	.+6      	; 0xae7a <moveplayer2+0x256>
{
    player2.stuck = true;
    ae74:	81 e0       	ldi	r24, 0x01	; 1
    ae76:	80 93 3f 0a 	sts	0x0A3F, r24	; 0x800a3f <player2+0xa>
} 
if(player2.bananaBool == true)
    ae7a:	80 91 4d 0a 	lds	r24, 0x0A4D	; 0x800a4d <player2+0x18>
    ae7e:	88 23       	and	r24, r24
    ae80:	79 f0       	breq	.+30     	; 0xaea0 <moveplayer2+0x27c>
{
makeBanana2(player2.x + 4, player2.y,1);
    ae82:	60 91 37 0a 	lds	r22, 0x0A37	; 0x800a37 <player2+0x2>
    ae86:	70 91 38 0a 	lds	r23, 0x0A38	; 0x800a38 <player2+0x3>
    ae8a:	80 91 35 0a 	lds	r24, 0x0A35	; 0x800a35 <player2>
    ae8e:	90 91 36 0a 	lds	r25, 0x0A36	; 0x800a36 <player2+0x1>
    ae92:	41 e0       	ldi	r20, 0x01	; 1
    ae94:	50 e0       	ldi	r21, 0x00	; 0
    ae96:	04 96       	adiw	r24, 0x04	; 4
    ae98:	0e 94 d6 51 	call	0xa3ac	; 0xa3ac <makeBanana2>
player2.bananaBool = false;
    ae9c:	10 92 4d 0a 	sts	0x0A4D, r1	; 0x800a4d <player2+0x18>
}
checkcollide( player2.x, player2.y - 4 ,1);
    aea0:	60 91 37 0a 	lds	r22, 0x0A37	; 0x800a37 <player2+0x2>
    aea4:	70 91 38 0a 	lds	r23, 0x0A38	; 0x800a38 <player2+0x3>
    aea8:	64 50       	subi	r22, 0x04	; 4
    aeaa:	71 09       	sbc	r23, r1
    aeac:	41 e0       	ldi	r20, 0x01	; 1
    aeae:	50 e0       	ldi	r21, 0x00	; 0
    aeb0:	80 91 35 0a 	lds	r24, 0x0A35	; 0x800a35 <player2>
    aeb4:	90 91 36 0a 	lds	r25, 0x0A36	; 0x800a36 <player2+0x1>
    aeb8:	0e 94 2e 53 	call	0xa65c	; 0xa65c <checkcollide>
checkcollide( player2.x -3, player2.y - 4 ,3);
    aebc:	60 91 37 0a 	lds	r22, 0x0A37	; 0x800a37 <player2+0x2>
    aec0:	70 91 38 0a 	lds	r23, 0x0A38	; 0x800a38 <player2+0x3>
    aec4:	64 50       	subi	r22, 0x04	; 4
    aec6:	71 09       	sbc	r23, r1
    aec8:	80 91 35 0a 	lds	r24, 0x0A35	; 0x800a35 <player2>
    aecc:	90 91 36 0a 	lds	r25, 0x0A36	; 0x800a36 <player2+0x1>
    aed0:	43 e0       	ldi	r20, 0x03	; 3
    aed2:	50 e0       	ldi	r21, 0x00	; 0
    aed4:	03 97       	sbiw	r24, 0x03	; 3
    aed6:	0e 94 2e 53 	call	0xa65c	; 0xa65c <checkcollide>
checkcollide( player2.x +4, player2.y - 4 ,3);
    aeda:	60 91 37 0a 	lds	r22, 0x0A37	; 0x800a37 <player2+0x2>
    aede:	70 91 38 0a 	lds	r23, 0x0A38	; 0x800a38 <player2+0x3>
    aee2:	64 50       	subi	r22, 0x04	; 4
    aee4:	71 09       	sbc	r23, r1
    aee6:	80 91 35 0a 	lds	r24, 0x0A35	; 0x800a35 <player2>
    aeea:	90 91 36 0a 	lds	r25, 0x0A36	; 0x800a36 <player2+0x1>
    aeee:	43 e0       	ldi	r20, 0x03	; 3
    aef0:	50 e0       	ldi	r21, 0x00	; 0
    aef2:	04 96       	adiw	r24, 0x04	; 4
    aef4:	0e 94 2e 53 	call	0xa65c	; 0xa65c <checkcollide>

if (player2.y < oldy ) checkcollide( player2.x, player2.y - 22 ,2);
    aef8:	60 91 37 0a 	lds	r22, 0x0A37	; 0x800a37 <player2+0x2>
    aefc:	70 91 38 0a 	lds	r23, 0x0A38	; 0x800a38 <player2+0x3>
    af00:	80 91 a0 0a 	lds	r24, 0x0AA0	; 0x800aa0 <oldy>
    af04:	90 91 a1 0a 	lds	r25, 0x0AA1	; 0x800aa1 <oldy+0x1>
    af08:	68 17       	cp	r22, r24
    af0a:	79 07       	cpc	r23, r25
    af0c:	54 f4       	brge	.+20     	; 0xaf22 <moveplayer2+0x2fe>
    af0e:	66 51       	subi	r22, 0x16	; 22
    af10:	71 09       	sbc	r23, r1
    af12:	42 e0       	ldi	r20, 0x02	; 2
    af14:	50 e0       	ldi	r21, 0x00	; 0
    af16:	80 91 35 0a 	lds	r24, 0x0A35	; 0x800a35 <player2>
    af1a:	90 91 36 0a 	lds	r25, 0x0A36	; 0x800a36 <player2+0x1>
    af1e:	0e 94 2e 53 	call	0xa65c	; 0xa65c <checkcollide>
if (player2.y > oldy )  player2.touchground = false; 
    af22:	60 91 37 0a 	lds	r22, 0x0A37	; 0x800a37 <player2+0x2>
    af26:	70 91 38 0a 	lds	r23, 0x0A38	; 0x800a38 <player2+0x3>
    af2a:	80 91 a0 0a 	lds	r24, 0x0AA0	; 0x800aa0 <oldy>
    af2e:	90 91 a1 0a 	lds	r25, 0x0AA1	; 0x800aa1 <oldy+0x1>
    af32:	86 17       	cp	r24, r22
    af34:	97 07       	cpc	r25, r23
    af36:	8c f5       	brge	.+98     	; 0xaf9a <moveplayer2+0x376>
    af38:	10 92 46 0a 	sts	0x0A46, r1	; 0x800a46 <player2+0x11>
if (player2.y > oldy ) if (checkcollide( player2.x - 3 , player2.y,     0 )&1 || checkcollide( player2.x + 4 , player2.y     ,0 )&1) { player2.y = ( player2.y / 16 ) * 16 - 1;player2.jumping = false; player2.touchground = true;player2.action = 'w' ;};
    af3c:	80 91 35 0a 	lds	r24, 0x0A35	; 0x800a35 <player2>
    af40:	90 91 36 0a 	lds	r25, 0x0A36	; 0x800a36 <player2+0x1>
    af44:	40 e0       	ldi	r20, 0x00	; 0
    af46:	50 e0       	ldi	r21, 0x00	; 0
    af48:	03 97       	sbiw	r24, 0x03	; 3
    af4a:	0e 94 2e 53 	call	0xa65c	; 0xa65c <checkcollide>
    af4e:	80 ff       	sbrs	r24, 0
    af50:	15 c0       	rjmp	.+42     	; 0xaf7c <moveplayer2+0x358>
    af52:	80 91 37 0a 	lds	r24, 0x0A37	; 0x800a37 <player2+0x2>
    af56:	90 91 38 0a 	lds	r25, 0x0A38	; 0x800a38 <player2+0x3>
    af5a:	97 fd       	sbrc	r25, 7
    af5c:	0f 96       	adiw	r24, 0x0f	; 15
    af5e:	80 7f       	andi	r24, 0xF0	; 240
    af60:	01 97       	sbiw	r24, 0x01	; 1
    af62:	90 93 38 0a 	sts	0x0A38, r25	; 0x800a38 <player2+0x3>
    af66:	80 93 37 0a 	sts	0x0A37, r24	; 0x800a37 <player2+0x2>
    af6a:	10 92 49 0a 	sts	0x0A49, r1	; 0x800a49 <player2+0x14>
    af6e:	81 e0       	ldi	r24, 0x01	; 1
    af70:	80 93 46 0a 	sts	0x0A46, r24	; 0x800a46 <player2+0x11>
    af74:	87 e7       	ldi	r24, 0x77	; 119
    af76:	80 93 42 0a 	sts	0x0A42, r24	; 0x800a42 <player2+0xd>
    af7a:	0f c0       	rjmp	.+30     	; 0xaf9a <moveplayer2+0x376>
    af7c:	60 91 37 0a 	lds	r22, 0x0A37	; 0x800a37 <player2+0x2>
    af80:	70 91 38 0a 	lds	r23, 0x0A38	; 0x800a38 <player2+0x3>
    af84:	80 91 35 0a 	lds	r24, 0x0A35	; 0x800a35 <player2>
    af88:	90 91 36 0a 	lds	r25, 0x0A36	; 0x800a36 <player2+0x1>
    af8c:	40 e0       	ldi	r20, 0x00	; 0
    af8e:	50 e0       	ldi	r21, 0x00	; 0
    af90:	04 96       	adiw	r24, 0x04	; 4
    af92:	0e 94 2e 53 	call	0xa65c	; 0xa65c <checkcollide>
    af96:	80 fd       	sbrc	r24, 0
    af98:	dc cf       	rjmp	.-72     	; 0xaf52 <moveplayer2+0x32e>
if (player2.y < oldy ) if (checkcollide( player2.x - 3 , player2.y -21, 0 )&1 || checkcollide( player2.x + 4 , player2.y - 21,0 )&1)  { player2.y = oldy;player2.jumpcounter = 0;
    af9a:	60 91 37 0a 	lds	r22, 0x0A37	; 0x800a37 <player2+0x2>
    af9e:	70 91 38 0a 	lds	r23, 0x0A38	; 0x800a38 <player2+0x3>
    afa2:	80 91 a0 0a 	lds	r24, 0x0AA0	; 0x800aa0 <oldy>
    afa6:	90 91 a1 0a 	lds	r25, 0x0AA1	; 0x800aa1 <oldy+0x1>
    afaa:	68 17       	cp	r22, r24
    afac:	79 07       	cpc	r23, r25
    afae:	74 f5       	brge	.+92     	; 0xb00c <moveplayer2+0x3e8>
    afb0:	65 51       	subi	r22, 0x15	; 21
    afb2:	71 09       	sbc	r23, r1
    afb4:	80 91 35 0a 	lds	r24, 0x0A35	; 0x800a35 <player2>
    afb8:	90 91 36 0a 	lds	r25, 0x0A36	; 0x800a36 <player2+0x1>
    afbc:	40 e0       	ldi	r20, 0x00	; 0
    afbe:	50 e0       	ldi	r21, 0x00	; 0
    afc0:	03 97       	sbiw	r24, 0x03	; 3
    afc2:	0e 94 2e 53 	call	0xa65c	; 0xa65c <checkcollide>
    afc6:	80 ff       	sbrs	r24, 0
    afc8:	10 c0       	rjmp	.+32     	; 0xafea <moveplayer2+0x3c6>
    afca:	80 91 a0 0a 	lds	r24, 0x0AA0	; 0x800aa0 <oldy>
    afce:	90 91 a1 0a 	lds	r25, 0x0AA1	; 0x800aa1 <oldy+0x1>
    afd2:	90 93 38 0a 	sts	0x0A38, r25	; 0x800a38 <player2+0x3>
    afd6:	80 93 37 0a 	sts	0x0A37, r24	; 0x800a37 <player2+0x2>
    afda:	10 92 4f 0a 	sts	0x0A4F, r1	; 0x800a4f <player2+0x1a>
                                                                                                                                  TriggerFx(5,0xff,true);
    afde:	41 e0       	ldi	r20, 0x01	; 1
    afe0:	6f ef       	ldi	r22, 0xFF	; 255
    afe2:	85 e0       	ldi	r24, 0x05	; 5
    afe4:	0e 94 c1 43 	call	0x8782	; 0x8782 <TriggerFx>
    afe8:	11 c0       	rjmp	.+34     	; 0xb00c <moveplayer2+0x3e8>
checkcollide( player2.x +4, player2.y - 4 ,3);

if (player2.y < oldy ) checkcollide( player2.x, player2.y - 22 ,2);
if (player2.y > oldy )  player2.touchground = false; 
if (player2.y > oldy ) if (checkcollide( player2.x - 3 , player2.y,     0 )&1 || checkcollide( player2.x + 4 , player2.y     ,0 )&1) { player2.y = ( player2.y / 16 ) * 16 - 1;player2.jumping = false; player2.touchground = true;player2.action = 'w' ;};
if (player2.y < oldy ) if (checkcollide( player2.x - 3 , player2.y -21, 0 )&1 || checkcollide( player2.x + 4 , player2.y - 21,0 )&1)  { player2.y = oldy;player2.jumpcounter = 0;
    afea:	60 91 37 0a 	lds	r22, 0x0A37	; 0x800a37 <player2+0x2>
    afee:	70 91 38 0a 	lds	r23, 0x0A38	; 0x800a38 <player2+0x3>
    aff2:	65 51       	subi	r22, 0x15	; 21
    aff4:	71 09       	sbc	r23, r1
    aff6:	80 91 35 0a 	lds	r24, 0x0A35	; 0x800a35 <player2>
    affa:	90 91 36 0a 	lds	r25, 0x0A36	; 0x800a36 <player2+0x1>
    affe:	40 e0       	ldi	r20, 0x00	; 0
    b000:	50 e0       	ldi	r21, 0x00	; 0
    b002:	04 96       	adiw	r24, 0x04	; 4
    b004:	0e 94 2e 53 	call	0xa65c	; 0xa65c <checkcollide>
    b008:	80 fd       	sbrc	r24, 0
    b00a:	df cf       	rjmp	.-66     	; 0xafca <moveplayer2+0x3a6>
                                                                                                                                  TriggerFx(5,0xff,true);
                                                                                                                                 };    
if (player2.x > oldx ) if (checkcollide( player2.x + 5 , player2.y - 3 ,0 )&1 || checkcollide( player2.x + 5 , player2.y - 20,0 )&1)  player2.x = oldx;  
    b00c:	80 91 35 0a 	lds	r24, 0x0A35	; 0x800a35 <player2>
    b010:	90 91 36 0a 	lds	r25, 0x0A36	; 0x800a36 <player2+0x1>
    b014:	20 91 db 09 	lds	r18, 0x09DB	; 0x8009db <oldx>
    b018:	30 91 dc 09 	lds	r19, 0x09DC	; 0x8009dc <oldx+0x1>
    b01c:	28 17       	cp	r18, r24
    b01e:	39 07       	cpc	r19, r25
    b020:	3c f5       	brge	.+78     	; 0xb070 <moveplayer2+0x44c>
    b022:	60 91 37 0a 	lds	r22, 0x0A37	; 0x800a37 <player2+0x2>
    b026:	70 91 38 0a 	lds	r23, 0x0A38	; 0x800a38 <player2+0x3>
    b02a:	63 50       	subi	r22, 0x03	; 3
    b02c:	71 09       	sbc	r23, r1
    b02e:	40 e0       	ldi	r20, 0x00	; 0
    b030:	50 e0       	ldi	r21, 0x00	; 0
    b032:	05 96       	adiw	r24, 0x05	; 5
    b034:	0e 94 2e 53 	call	0xa65c	; 0xa65c <checkcollide>
    b038:	80 ff       	sbrs	r24, 0
    b03a:	09 c0       	rjmp	.+18     	; 0xb04e <moveplayer2+0x42a>
    b03c:	80 91 db 09 	lds	r24, 0x09DB	; 0x8009db <oldx>
    b040:	90 91 dc 09 	lds	r25, 0x09DC	; 0x8009dc <oldx+0x1>
    b044:	90 93 36 0a 	sts	0x0A36, r25	; 0x800a36 <player2+0x1>
    b048:	80 93 35 0a 	sts	0x0A35, r24	; 0x800a35 <player2>
    b04c:	11 c0       	rjmp	.+34     	; 0xb070 <moveplayer2+0x44c>
    b04e:	60 91 37 0a 	lds	r22, 0x0A37	; 0x800a37 <player2+0x2>
    b052:	70 91 38 0a 	lds	r23, 0x0A38	; 0x800a38 <player2+0x3>
    b056:	64 51       	subi	r22, 0x14	; 20
    b058:	71 09       	sbc	r23, r1
    b05a:	80 91 35 0a 	lds	r24, 0x0A35	; 0x800a35 <player2>
    b05e:	90 91 36 0a 	lds	r25, 0x0A36	; 0x800a36 <player2+0x1>
    b062:	40 e0       	ldi	r20, 0x00	; 0
    b064:	50 e0       	ldi	r21, 0x00	; 0
    b066:	05 96       	adiw	r24, 0x05	; 5
    b068:	0e 94 2e 53 	call	0xa65c	; 0xa65c <checkcollide>
    b06c:	80 fd       	sbrc	r24, 0
    b06e:	e6 cf       	rjmp	.-52     	; 0xb03c <moveplayer2+0x418>
if (player2.x < oldx ) if (checkcollide( player2.x - 4 , player2.y - 3 ,0 )&1 || checkcollide( player2.x - 4 , player2.y - 20,0 )&1)  player2.x = oldx; 
    b070:	80 91 35 0a 	lds	r24, 0x0A35	; 0x800a35 <player2>
    b074:	90 91 36 0a 	lds	r25, 0x0A36	; 0x800a36 <player2+0x1>
    b078:	20 91 db 09 	lds	r18, 0x09DB	; 0x8009db <oldx>
    b07c:	30 91 dc 09 	lds	r19, 0x09DC	; 0x8009dc <oldx+0x1>
    b080:	82 17       	cp	r24, r18
    b082:	93 07       	cpc	r25, r19
    b084:	3c f5       	brge	.+78     	; 0xb0d4 <moveplayer2+0x4b0>
    b086:	60 91 37 0a 	lds	r22, 0x0A37	; 0x800a37 <player2+0x2>
    b08a:	70 91 38 0a 	lds	r23, 0x0A38	; 0x800a38 <player2+0x3>
    b08e:	63 50       	subi	r22, 0x03	; 3
    b090:	71 09       	sbc	r23, r1
    b092:	40 e0       	ldi	r20, 0x00	; 0
    b094:	50 e0       	ldi	r21, 0x00	; 0
    b096:	04 97       	sbiw	r24, 0x04	; 4
    b098:	0e 94 2e 53 	call	0xa65c	; 0xa65c <checkcollide>
    b09c:	80 ff       	sbrs	r24, 0
    b09e:	09 c0       	rjmp	.+18     	; 0xb0b2 <moveplayer2+0x48e>
    b0a0:	80 91 db 09 	lds	r24, 0x09DB	; 0x8009db <oldx>
    b0a4:	90 91 dc 09 	lds	r25, 0x09DC	; 0x8009dc <oldx+0x1>
    b0a8:	90 93 36 0a 	sts	0x0A36, r25	; 0x800a36 <player2+0x1>
    b0ac:	80 93 35 0a 	sts	0x0A35, r24	; 0x800a35 <player2>
    b0b0:	11 c0       	rjmp	.+34     	; 0xb0d4 <moveplayer2+0x4b0>
    b0b2:	60 91 37 0a 	lds	r22, 0x0A37	; 0x800a37 <player2+0x2>
    b0b6:	70 91 38 0a 	lds	r23, 0x0A38	; 0x800a38 <player2+0x3>
    b0ba:	64 51       	subi	r22, 0x14	; 20
    b0bc:	71 09       	sbc	r23, r1
    b0be:	80 91 35 0a 	lds	r24, 0x0A35	; 0x800a35 <player2>
    b0c2:	90 91 36 0a 	lds	r25, 0x0A36	; 0x800a36 <player2+0x1>
    b0c6:	40 e0       	ldi	r20, 0x00	; 0
    b0c8:	50 e0       	ldi	r21, 0x00	; 0
    b0ca:	04 97       	sbiw	r24, 0x04	; 4
    b0cc:	0e 94 2e 53 	call	0xa65c	; 0xa65c <checkcollide>
    b0d0:	80 fd       	sbrc	r24, 0
    b0d2:	e6 cf       	rjmp	.-52     	; 0xb0a0 <moveplayer2+0x47c>
player2.ximpulse = 0;    
    b0d4:	10 92 47 0a 	sts	0x0A47, r1	; 0x800a47 <player2+0x12>
player2.yimpulse = 0;
    b0d8:	10 92 48 0a 	sts	0x0A48, r1	; 0x800a48 <player2+0x13>
if ( player2.x < 8 ) player2.x = player.x;   // Increase time penalty herer
    b0dc:	80 91 35 0a 	lds	r24, 0x0A35	; 0x800a35 <player2>
    b0e0:	90 91 36 0a 	lds	r25, 0x0A36	; 0x800a36 <player2+0x1>
    b0e4:	08 97       	sbiw	r24, 0x08	; 8
    b0e6:	44 f4       	brge	.+16     	; 0xb0f8 <moveplayer2+0x4d4>
    b0e8:	80 91 65 09 	lds	r24, 0x0965	; 0x800965 <player>
    b0ec:	90 91 66 09 	lds	r25, 0x0966	; 0x800966 <player+0x1>
    b0f0:	90 93 36 0a 	sts	0x0A36, r25	; 0x800a36 <player2+0x1>
    b0f4:	80 93 35 0a 	sts	0x0A35, r24	; 0x800a35 <player2>
if ( player2.x > 232 ) player2.x = player.x;    
    b0f8:	80 91 35 0a 	lds	r24, 0x0A35	; 0x800a35 <player2>
    b0fc:	90 91 36 0a 	lds	r25, 0x0A36	; 0x800a36 <player2+0x1>
    b100:	89 3e       	cpi	r24, 0xE9	; 233
    b102:	91 05       	cpc	r25, r1
    b104:	b4 f0       	brlt	.+44     	; 0xb132 <moveplayer2+0x50e>
    b106:	80 91 65 09 	lds	r24, 0x0965	; 0x800965 <player>
    b10a:	90 91 66 09 	lds	r25, 0x0966	; 0x800966 <player+0x1>
    b10e:	90 93 36 0a 	sts	0x0A36, r25	; 0x800a36 <player2+0x1>
    b112:	80 93 35 0a 	sts	0x0A35, r24	; 0x800a35 <player2>
    b116:	08 95       	ret

if ( !(joy&BTN_B) ) {
player2.bpressed = false;
};
if ( joy&BTN_B && player2.touchground) {
	if(bananaCount > 0 && player2.bpressed == false)
    b118:	30 91 4b 0a 	lds	r19, 0x0A4B	; 0x800a4b <player2+0x16>
    b11c:	31 11       	cpse	r19, r1
    b11e:	e9 cd       	rjmp	.-1070   	; 0xacf2 <moveplayer2+0xce>
	{
	bananaCount = bananaCount - 1;
    b120:	21 50       	subi	r18, 0x01	; 1
    b122:	20 93 03 01 	sts	0x0103, r18	; 0x800103 <bananaCount>
    player2.bananaBool = true;
    b126:	21 e0       	ldi	r18, 0x01	; 1
    b128:	20 93 4d 0a 	sts	0x0A4D, r18	; 0x800a4d <player2+0x18>
	player2.bpressed = true;
    b12c:	20 93 4b 0a 	sts	0x0A4B, r18	; 0x800a4b <player2+0x16>
    b130:	e0 cd       	rjmp	.-1088   	; 0xacf2 <moveplayer2+0xce>
    b132:	08 95       	ret

0000b134 <setheadline>:
printtileint( 4 ,0,score,4);
//printtileint( 12 ,0,bonus,2);   
}

void setheadline()
{
    b134:	cf 93       	push	r28
    b136:	c0 e0       	ldi	r28, 0x00	; 0
for (int x = 0; x < 32; x++) DrawMap2(x,VRAM_TILES_V,nb);
    b138:	41 ee       	ldi	r20, 0xE1	; 225
    b13a:	56 e7       	ldi	r21, 0x76	; 118
    b13c:	60 e2       	ldi	r22, 0x20	; 32
    b13e:	8c 2f       	mov	r24, r28
    b140:	0e 94 c2 4d 	call	0x9b84	; 0x9b84 <DrawMap>
    b144:	cf 5f       	subi	r28, 0xFF	; 255
    b146:	c0 32       	cpi	r28, 0x20	; 32
    b148:	b9 f7       	brne	.-18     	; 0xb138 <setheadline+0x4>
}
    b14a:	cf 91       	pop	r28
    b14c:	08 95       	ret

0000b14e <drawmonster>:

void drawmonster()
{
    b14e:	0f 93       	push	r16
if (owl.onscreen)
    b150:	80 91 5b 0a 	lds	r24, 0x0A5B	; 0x800a5b <owl+0x9>
    b154:	88 23       	and	r24, r24
    b156:	09 f4       	brne	.+2      	; 0xb15a <drawmonster+0xc>
    b158:	43 c0       	rjmp	.+134    	; 0xb1e0 <drawmonster+0x92>
{
if (!owl.alive) { MapSprite2(owlIndex , owl1 ,0); MoveSprite(owlIndex , owl.x, owl.y  ,2 ,2);return;}; 
    b15a:	80 91 5c 0a 	lds	r24, 0x0A5C	; 0x800a5c <owl+0xa>
    b15e:	81 11       	cpse	r24, r1
    b160:	0e c0       	rjmp	.+28     	; 0xb17e <drawmonster+0x30>
    b162:	40 e0       	ldi	r20, 0x00	; 0
    b164:	6b e0       	ldi	r22, 0x0B	; 11
    b166:	77 e4       	ldi	r23, 0x47	; 71
    b168:	86 e0       	ldi	r24, 0x06	; 6
    b16a:	0e 94 48 4d 	call	0x9a90	; 0x9a90 <MapSprite2>
    b16e:	02 e0       	ldi	r16, 0x02	; 2
    b170:	22 e0       	ldi	r18, 0x02	; 2
    b172:	40 91 54 0a 	lds	r20, 0x0A54	; 0x800a54 <owl+0x2>
    b176:	60 91 52 0a 	lds	r22, 0x0A52	; 0x800a52 <owl>
    b17a:	86 e0       	ldi	r24, 0x06	; 6
    b17c:	46 c0       	rjmp	.+140    	; 0xb20a <drawmonster+0xbc>
if (aniframe < 10 ) 
    b17e:	90 91 9f 0a 	lds	r25, 0x0A9F	; 0x800a9f <aniframe>
    b182:	80 91 7e 09 	lds	r24, 0x097E	; 0x80097e <player+0x19>
    b186:	9a 30       	cpi	r25, 0x0A	; 10
    b188:	90 f4       	brcc	.+36     	; 0xb1ae <drawmonster+0x60>
{
    if(player.killer == true)
    {
    MoveSprite(owlIndex , owl.x, owl.y  ,2 ,2);
    b18a:	02 e0       	ldi	r16, 0x02	; 2
    b18c:	22 e0       	ldi	r18, 0x02	; 2
    b18e:	40 91 54 0a 	lds	r20, 0x0A54	; 0x800a54 <owl+0x2>
    b192:	60 91 52 0a 	lds	r22, 0x0A52	; 0x800a52 <owl>
if (owl.onscreen)
{
if (!owl.alive) { MapSprite2(owlIndex , owl1 ,0); MoveSprite(owlIndex , owl.x, owl.y  ,2 ,2);return;}; 
if (aniframe < 10 ) 
{
    if(player.killer == true)
    b196:	88 23       	and	r24, r24
    b198:	29 f0       	breq	.+10     	; 0xb1a4 <drawmonster+0x56>
    {
    MoveSprite(owlIndex , owl.x, owl.y  ,2 ,2);
    b19a:	86 e0       	ldi	r24, 0x06	; 6
    b19c:	0e 94 95 4d 	call	0x9b2a	; 0x9b2a <MoveSprite>
    MapSprite2(owlIndex , owl1 ,0); 
    b1a0:	40 e0       	ldi	r20, 0x00	; 0
    b1a2:	12 c0       	rjmp	.+36     	; 0xb1c8 <drawmonster+0x7a>
    }
    else{
    MoveSprite(owlIndex , owl.x, owl.y  ,2 ,2);
    b1a4:	86 e0       	ldi	r24, 0x06	; 6
    b1a6:	0e 94 95 4d 	call	0x9b2a	; 0x9b2a <MoveSprite>
    MapSprite2(owlIndex , owl0 ,0); 
    b1aa:	40 e0       	ldi	r20, 0x00	; 0
    b1ac:	14 c0       	rjmp	.+40     	; 0xb1d6 <drawmonster+0x88>
    b1ae:	60 91 52 0a 	lds	r22, 0x0A52	; 0x800a52 <owl>
}
else
{
    if(player.killer == true)
    {
    MoveSprite(owlIndex , owl.x -1 , owl.y  ,2 ,2);
    b1b2:	61 50       	subi	r22, 0x01	; 1
    b1b4:	02 e0       	ldi	r16, 0x02	; 2
    b1b6:	22 e0       	ldi	r18, 0x02	; 2
    b1b8:	40 91 54 0a 	lds	r20, 0x0A54	; 0x800a54 <owl+0x2>
    MapSprite2(owlIndex , owl0 ,0); 
    }
}
else
{
    if(player.killer == true)
    b1bc:	88 23       	and	r24, r24
    b1be:	39 f0       	breq	.+14     	; 0xb1ce <drawmonster+0x80>
    {
    MoveSprite(owlIndex , owl.x -1 , owl.y  ,2 ,2);
    b1c0:	86 e0       	ldi	r24, 0x06	; 6
    b1c2:	0e 94 95 4d 	call	0x9b2a	; 0x9b2a <MoveSprite>
    MapSprite2(owlIndex , owl1 ,1);
    b1c6:	41 e0       	ldi	r20, 0x01	; 1
    b1c8:	6b e0       	ldi	r22, 0x0B	; 11
    b1ca:	77 e4       	ldi	r23, 0x47	; 71
    b1cc:	06 c0       	rjmp	.+12     	; 0xb1da <drawmonster+0x8c>
    }
    else{
    MoveSprite(owlIndex , owl.x -1 , owl.y  ,2 ,2);
    b1ce:	86 e0       	ldi	r24, 0x06	; 6
    b1d0:	0e 94 95 4d 	call	0x9b2a	; 0x9b2a <MoveSprite>
    MapSprite2(owlIndex , owl0 ,1); 
    b1d4:	41 e0       	ldi	r20, 0x01	; 1
    b1d6:	61 e1       	ldi	r22, 0x11	; 17
    b1d8:	77 e4       	ldi	r23, 0x47	; 71
    b1da:	86 e0       	ldi	r24, 0x06	; 6
    b1dc:	0e 94 48 4d 	call	0x9a90	; 0x9a90 <MapSprite2>
    }
};
};
    
if (blob.onscreen)
    b1e0:	80 91 63 09 	lds	r24, 0x0963	; 0x800963 <blob+0x9>
    b1e4:	88 23       	and	r24, r24
    b1e6:	69 f1       	breq	.+90     	; 0xb242 <drawmonster+0xf4>
{
if (!blob.alive) { MapSprite2(blobIndex , blob1 ,0);  MoveSprite(blobIndex ,blob.x, blob.y  ,2 ,2);return;}; 
    b1e8:	80 91 64 09 	lds	r24, 0x0964	; 0x800964 <blob+0xa>
    b1ec:	81 11       	cpse	r24, r1
    b1ee:	10 c0       	rjmp	.+32     	; 0xb210 <drawmonster+0xc2>
    b1f0:	40 e0       	ldi	r20, 0x00	; 0
    b1f2:	63 ef       	ldi	r22, 0xF3	; 243
    b1f4:	76 e4       	ldi	r23, 0x46	; 70
    b1f6:	88 e0       	ldi	r24, 0x08	; 8
    b1f8:	0e 94 48 4d 	call	0x9a90	; 0x9a90 <MapSprite2>
    b1fc:	02 e0       	ldi	r16, 0x02	; 2
    b1fe:	22 e0       	ldi	r18, 0x02	; 2
    b200:	40 91 5c 09 	lds	r20, 0x095C	; 0x80095c <blob+0x2>
    b204:	60 91 5a 09 	lds	r22, 0x095A	; 0x80095a <blob>
    b208:	88 e0       	ldi	r24, 0x08	; 8
    b20a:	0e 94 95 4d 	call	0x9b2a	; 0x9b2a <MoveSprite>
    b20e:	19 c0       	rjmp	.+50     	; 0xb242 <drawmonster+0xf4>
if (aniframe < 10 ) 
    b210:	80 91 9f 0a 	lds	r24, 0x0A9F	; 0x800a9f <aniframe>
{
    MoveSprite(owlIndex ,blob.x, blob.y  ,2 ,2);
    b214:	02 e0       	ldi	r16, 0x02	; 2
    b216:	22 e0       	ldi	r18, 0x02	; 2
    b218:	40 91 5c 09 	lds	r20, 0x095C	; 0x80095c <blob+0x2>
    b21c:	60 91 5a 09 	lds	r22, 0x095A	; 0x80095a <blob>
};
    
if (blob.onscreen)
{
if (!blob.alive) { MapSprite2(blobIndex , blob1 ,0);  MoveSprite(blobIndex ,blob.x, blob.y  ,2 ,2);return;}; 
if (aniframe < 10 ) 
    b220:	8a 30       	cpi	r24, 0x0A	; 10
    b222:	28 f4       	brcc	.+10     	; 0xb22e <drawmonster+0xe0>
{
    MoveSprite(owlIndex ,blob.x, blob.y  ,2 ,2);
    b224:	86 e0       	ldi	r24, 0x06	; 6
    b226:	0e 94 95 4d 	call	0x9b2a	; 0x9b2a <MoveSprite>
    MapSprite2(owlIndex ,blob0 ,0); 
    b22a:	40 e0       	ldi	r20, 0x00	; 0
    b22c:	04 c0       	rjmp	.+8      	; 0xb236 <drawmonster+0xe8>
}
else
{
    MoveSprite(owlIndex ,blob.x , blob.y  ,2 ,2);
    b22e:	86 e0       	ldi	r24, 0x06	; 6
    b230:	0e 94 95 4d 	call	0x9b2a	; 0x9b2a <MoveSprite>
    MapSprite2(owlIndex ,blob0 ,1); 
    b234:	41 e0       	ldi	r20, 0x01	; 1
    b236:	69 ef       	ldi	r22, 0xF9	; 249
    b238:	76 e4       	ldi	r23, 0x46	; 70
    b23a:	86 e0       	ldi	r24, 0x06	; 6
};
};    
   
}
    b23c:	0f 91       	pop	r16
    MapSprite2(owlIndex ,blob0 ,0); 
}
else
{
    MoveSprite(owlIndex ,blob.x , blob.y  ,2 ,2);
    MapSprite2(owlIndex ,blob0 ,1); 
    b23e:	0c 94 48 4d 	jmp	0x9a90	; 0x9a90 <MapSprite2>
};
};    
   
}
    b242:	0f 91       	pop	r16
    b244:	08 95       	ret

0000b246 <movemonster>:

void movemonster()
{
    b246:	0f 93       	push	r16
if (owl.onscreen) 
    b248:	80 91 5b 0a 	lds	r24, 0x0A5B	; 0x800a5b <owl+0x9>
    b24c:	88 23       	and	r24, r24
    b24e:	09 f4       	brne	.+2      	; 0xb252 <movemonster+0xc>
    b250:	c1 c0       	rjmp	.+386    	; 0xb3d4 <movemonster+0x18e>
{
 
    owl.x = owl.x2 >> 2;
    b252:	80 91 56 0a 	lds	r24, 0x0A56	; 0x800a56 <owl+0x4>
    b256:	90 91 57 0a 	lds	r25, 0x0A57	; 0x800a57 <owl+0x5>
    oldx = owl.x;
    b25a:	9c 01       	movw	r18, r24
    b25c:	35 95       	asr	r19
    b25e:	27 95       	ror	r18
    b260:	35 95       	asr	r19
    b262:	27 95       	ror	r18
    b264:	30 93 dc 09 	sts	0x09DC, r19	; 0x8009dc <oldx+0x1>
    b268:	20 93 db 09 	sts	0x09DB, r18	; 0x8009db <oldx>
    oldy = owl.y; 
    b26c:	20 91 54 0a 	lds	r18, 0x0A54	; 0x800a54 <owl+0x2>
    b270:	30 91 55 0a 	lds	r19, 0x0A55	; 0x800a55 <owl+0x3>
    b274:	30 93 a1 0a 	sts	0x0AA1, r19	; 0x800aa1 <oldy+0x1>
    b278:	20 93 a0 0a 	sts	0x0AA0, r18	; 0x800aa0 <oldy>
    oldx2 = owl.x2;
    b27c:	90 93 9a 0a 	sts	0x0A9A, r25	; 0x800a9a <oldx2+0x1>
    b280:	80 93 99 0a 	sts	0x0A99, r24	; 0x800a99 <oldx2>
    owl.y = owl.y  + gravity + owl.yimpulse;
    b284:	b9 01       	movw	r22, r18
    b286:	6e 5f       	subi	r22, 0xFE	; 254
    b288:	7f 4f       	sbci	r23, 0xFF	; 255
    b28a:	40 91 5a 0a 	lds	r20, 0x0A5A	; 0x800a5a <owl+0x8>
    b28e:	64 0f       	add	r22, r20
    b290:	71 1d       	adc	r23, r1
    b292:	47 fd       	sbrc	r20, 7
    b294:	7a 95       	dec	r23
    b296:	70 93 55 0a 	sts	0x0A55, r23	; 0x800a55 <owl+0x3>
    b29a:	60 93 54 0a 	sts	0x0A54, r22	; 0x800a54 <owl+0x2>
    
    owl.x2 = owl.x2 + owl.ximpulse;
    b29e:	40 91 59 0a 	lds	r20, 0x0A59	; 0x800a59 <owl+0x7>
    b2a2:	84 0f       	add	r24, r20
    b2a4:	91 1d       	adc	r25, r1
    b2a6:	47 fd       	sbrc	r20, 7
    b2a8:	9a 95       	dec	r25
    b2aa:	90 93 57 0a 	sts	0x0A57, r25	; 0x800a57 <owl+0x5>
    b2ae:	80 93 56 0a 	sts	0x0A56, r24	; 0x800a56 <owl+0x4>
    owl.x = owl.x2 >> 2;
    b2b2:	95 95       	asr	r25
    b2b4:	87 95       	ror	r24
    b2b6:	95 95       	asr	r25
    b2b8:	87 95       	ror	r24
    b2ba:	90 93 53 0a 	sts	0x0A53, r25	; 0x800a53 <owl+0x1>
    b2be:	80 93 52 0a 	sts	0x0A52, r24	; 0x800a52 <owl>
    if (owl.y > oldy ) if (checkcollide( owl.x + 3 , owl.y + 16,     0 )&1 || checkcollide( owl.x + 12 , owl.y +16    ,0 )&1) { owl.y = ( owl.y / 16 ) * 16   ;};
    b2c2:	26 17       	cp	r18, r22
    b2c4:	37 07       	cpc	r19, r23
    b2c6:	34 f5       	brge	.+76     	; 0xb314 <movemonster+0xce>
    b2c8:	60 5f       	subi	r22, 0xF0	; 240
    b2ca:	7f 4f       	sbci	r23, 0xFF	; 255
    b2cc:	40 e0       	ldi	r20, 0x00	; 0
    b2ce:	50 e0       	ldi	r21, 0x00	; 0
    b2d0:	03 96       	adiw	r24, 0x03	; 3
    b2d2:	0e 94 2e 53 	call	0xa65c	; 0xa65c <checkcollide>
    b2d6:	80 ff       	sbrs	r24, 0
    b2d8:	0c c0       	rjmp	.+24     	; 0xb2f2 <movemonster+0xac>
    b2da:	80 91 54 0a 	lds	r24, 0x0A54	; 0x800a54 <owl+0x2>
    b2de:	90 91 55 0a 	lds	r25, 0x0A55	; 0x800a55 <owl+0x3>
    b2e2:	97 fd       	sbrc	r25, 7
    b2e4:	0f 96       	adiw	r24, 0x0f	; 15
    b2e6:	80 7f       	andi	r24, 0xF0	; 240
    b2e8:	90 93 55 0a 	sts	0x0A55, r25	; 0x800a55 <owl+0x3>
    b2ec:	80 93 54 0a 	sts	0x0A54, r24	; 0x800a54 <owl+0x2>
    b2f0:	11 c0       	rjmp	.+34     	; 0xb314 <movemonster+0xce>
    b2f2:	60 91 54 0a 	lds	r22, 0x0A54	; 0x800a54 <owl+0x2>
    b2f6:	70 91 55 0a 	lds	r23, 0x0A55	; 0x800a55 <owl+0x3>
    b2fa:	60 5f       	subi	r22, 0xF0	; 240
    b2fc:	7f 4f       	sbci	r23, 0xFF	; 255
    b2fe:	80 91 52 0a 	lds	r24, 0x0A52	; 0x800a52 <owl>
    b302:	90 91 53 0a 	lds	r25, 0x0A53	; 0x800a53 <owl+0x1>
    b306:	40 e0       	ldi	r20, 0x00	; 0
    b308:	50 e0       	ldi	r21, 0x00	; 0
    b30a:	0c 96       	adiw	r24, 0x0c	; 12
    b30c:	0e 94 2e 53 	call	0xa65c	; 0xa65c <checkcollide>
    b310:	80 fd       	sbrc	r24, 0
    b312:	e3 cf       	rjmp	.-58     	; 0xb2da <movemonster+0x94>
    if (owl.x > oldx ) if (checkcollide( owl.x + 12, owl.y + 8 ,0 )&1 )  { owl.x2 = oldx2; owl.ximpulse =   -1;};
    b314:	80 91 52 0a 	lds	r24, 0x0A52	; 0x800a52 <owl>
    b318:	90 91 53 0a 	lds	r25, 0x0A53	; 0x800a53 <owl+0x1>
    b31c:	20 91 db 09 	lds	r18, 0x09DB	; 0x8009db <oldx>
    b320:	30 91 dc 09 	lds	r19, 0x09DC	; 0x8009dc <oldx+0x1>
    b324:	28 17       	cp	r18, r24
    b326:	39 07       	cpc	r19, r25
    b328:	c4 f4       	brge	.+48     	; 0xb35a <movemonster+0x114>
    b32a:	60 91 54 0a 	lds	r22, 0x0A54	; 0x800a54 <owl+0x2>
    b32e:	70 91 55 0a 	lds	r23, 0x0A55	; 0x800a55 <owl+0x3>
    b332:	68 5f       	subi	r22, 0xF8	; 248
    b334:	7f 4f       	sbci	r23, 0xFF	; 255
    b336:	40 e0       	ldi	r20, 0x00	; 0
    b338:	50 e0       	ldi	r21, 0x00	; 0
    b33a:	0c 96       	adiw	r24, 0x0c	; 12
    b33c:	0e 94 2e 53 	call	0xa65c	; 0xa65c <checkcollide>
    b340:	80 ff       	sbrs	r24, 0
    b342:	0b c0       	rjmp	.+22     	; 0xb35a <movemonster+0x114>
    b344:	80 91 99 0a 	lds	r24, 0x0A99	; 0x800a99 <oldx2>
    b348:	90 91 9a 0a 	lds	r25, 0x0A9A	; 0x800a9a <oldx2+0x1>
    b34c:	90 93 57 0a 	sts	0x0A57, r25	; 0x800a57 <owl+0x5>
    b350:	80 93 56 0a 	sts	0x0A56, r24	; 0x800a56 <owl+0x4>
    b354:	8f ef       	ldi	r24, 0xFF	; 255
    b356:	80 93 59 0a 	sts	0x0A59, r24	; 0x800a59 <owl+0x7>
    if (owl.x < oldx ) if (checkcollide( owl.x + 2 , owl.y + 8 ,0 )&1 )  { owl.x2 = oldx2; owl.ximpulse =   +1;};
    b35a:	80 91 52 0a 	lds	r24, 0x0A52	; 0x800a52 <owl>
    b35e:	90 91 53 0a 	lds	r25, 0x0A53	; 0x800a53 <owl+0x1>
    b362:	20 91 db 09 	lds	r18, 0x09DB	; 0x8009db <oldx>
    b366:	30 91 dc 09 	lds	r19, 0x09DC	; 0x8009dc <oldx+0x1>
    b36a:	82 17       	cp	r24, r18
    b36c:	93 07       	cpc	r25, r19
    b36e:	c4 f4       	brge	.+48     	; 0xb3a0 <movemonster+0x15a>
    b370:	60 91 54 0a 	lds	r22, 0x0A54	; 0x800a54 <owl+0x2>
    b374:	70 91 55 0a 	lds	r23, 0x0A55	; 0x800a55 <owl+0x3>
    b378:	68 5f       	subi	r22, 0xF8	; 248
    b37a:	7f 4f       	sbci	r23, 0xFF	; 255
    b37c:	40 e0       	ldi	r20, 0x00	; 0
    b37e:	50 e0       	ldi	r21, 0x00	; 0
    b380:	02 96       	adiw	r24, 0x02	; 2
    b382:	0e 94 2e 53 	call	0xa65c	; 0xa65c <checkcollide>
    b386:	80 ff       	sbrs	r24, 0
    b388:	0b c0       	rjmp	.+22     	; 0xb3a0 <movemonster+0x15a>
    b38a:	80 91 99 0a 	lds	r24, 0x0A99	; 0x800a99 <oldx2>
    b38e:	90 91 9a 0a 	lds	r25, 0x0A9A	; 0x800a9a <oldx2+0x1>
    b392:	90 93 57 0a 	sts	0x0A57, r25	; 0x800a57 <owl+0x5>
    b396:	80 93 56 0a 	sts	0x0A56, r24	; 0x800a56 <owl+0x4>
    b39a:	81 e0       	ldi	r24, 0x01	; 1
    b39c:	80 93 59 0a 	sts	0x0A59, r24	; 0x800a59 <owl+0x7>
    if (owl.y > 240 || owl.y < 0 || owl.x < -16 || owl.x > 240 )  {MonsteronScreen = false;MoveSprite(owlIndex,-20,-20,2,2); owl.onscreen = false;};
    b3a0:	80 91 54 0a 	lds	r24, 0x0A54	; 0x800a54 <owl+0x2>
    b3a4:	90 91 55 0a 	lds	r25, 0x0A55	; 0x800a55 <owl+0x3>
    b3a8:	81 3f       	cpi	r24, 0xF1	; 241
    b3aa:	91 05       	cpc	r25, r1
    b3ac:	40 f4       	brcc	.+16     	; 0xb3be <movemonster+0x178>
    b3ae:	80 91 52 0a 	lds	r24, 0x0A52	; 0x800a52 <owl>
    b3b2:	90 91 53 0a 	lds	r25, 0x0A53	; 0x800a53 <owl+0x1>
    b3b6:	40 96       	adiw	r24, 0x10	; 16
    b3b8:	81 30       	cpi	r24, 0x01	; 1
    b3ba:	91 40       	sbci	r25, 0x01	; 1
    b3bc:	58 f0       	brcs	.+22     	; 0xb3d4 <movemonster+0x18e>
    b3be:	10 92 34 0a 	sts	0x0A34, r1	; 0x800a34 <MonsteronScreen>
    b3c2:	02 e0       	ldi	r16, 0x02	; 2
    b3c4:	22 e0       	ldi	r18, 0x02	; 2
    b3c6:	4c ee       	ldi	r20, 0xEC	; 236
    b3c8:	6c ee       	ldi	r22, 0xEC	; 236
    b3ca:	86 e0       	ldi	r24, 0x06	; 6
    b3cc:	0e 94 95 4d 	call	0x9b2a	; 0x9b2a <MoveSprite>
    b3d0:	10 92 5b 0a 	sts	0x0A5B, r1	; 0x800a5b <owl+0x9>
}
if (blob.onscreen) 
    b3d4:	80 91 63 09 	lds	r24, 0x0963	; 0x800963 <blob+0x9>
    b3d8:	88 23       	and	r24, r24
    b3da:	09 f4       	brne	.+2      	; 0xb3de <movemonster+0x198>
    b3dc:	c2 c0       	rjmp	.+388    	; 0xb562 <movemonster+0x31c>
{
     
    blob.x = blob.x2 >> 2;
    b3de:	80 91 5e 09 	lds	r24, 0x095E	; 0x80095e <blob+0x4>
    b3e2:	90 91 5f 09 	lds	r25, 0x095F	; 0x80095f <blob+0x5>
    oldx = blob.x;
    b3e6:	9c 01       	movw	r18, r24
    b3e8:	35 95       	asr	r19
    b3ea:	27 95       	ror	r18
    b3ec:	35 95       	asr	r19
    b3ee:	27 95       	ror	r18
    b3f0:	30 93 dc 09 	sts	0x09DC, r19	; 0x8009dc <oldx+0x1>
    b3f4:	20 93 db 09 	sts	0x09DB, r18	; 0x8009db <oldx>
    oldy = blob.y; 
    b3f8:	20 91 5c 09 	lds	r18, 0x095C	; 0x80095c <blob+0x2>
    b3fc:	30 91 5d 09 	lds	r19, 0x095D	; 0x80095d <blob+0x3>
    b400:	30 93 a1 0a 	sts	0x0AA1, r19	; 0x800aa1 <oldy+0x1>
    b404:	20 93 a0 0a 	sts	0x0AA0, r18	; 0x800aa0 <oldy>
    oldx2 = blob.x2;
    b408:	90 93 9a 0a 	sts	0x0A9A, r25	; 0x800a9a <oldx2+0x1>
    b40c:	80 93 99 0a 	sts	0x0A99, r24	; 0x800a99 <oldx2>
    blob.y = blob.y  + gravity + blob.yimpulse;
    b410:	b9 01       	movw	r22, r18
    b412:	6e 5f       	subi	r22, 0xFE	; 254
    b414:	7f 4f       	sbci	r23, 0xFF	; 255
    b416:	40 91 62 09 	lds	r20, 0x0962	; 0x800962 <blob+0x8>
    b41a:	64 0f       	add	r22, r20
    b41c:	71 1d       	adc	r23, r1
    b41e:	47 fd       	sbrc	r20, 7
    b420:	7a 95       	dec	r23
    b422:	70 93 5d 09 	sts	0x095D, r23	; 0x80095d <blob+0x3>
    b426:	60 93 5c 09 	sts	0x095C, r22	; 0x80095c <blob+0x2>
    blob.x2 = blob.x2 + blob.ximpulse;
    b42a:	40 91 61 09 	lds	r20, 0x0961	; 0x800961 <blob+0x7>
    b42e:	84 0f       	add	r24, r20
    b430:	91 1d       	adc	r25, r1
    b432:	47 fd       	sbrc	r20, 7
    b434:	9a 95       	dec	r25
    b436:	90 93 5f 09 	sts	0x095F, r25	; 0x80095f <blob+0x5>
    b43a:	80 93 5e 09 	sts	0x095E, r24	; 0x80095e <blob+0x4>
    blob.x = blob.x2 >> 2;
    b43e:	95 95       	asr	r25
    b440:	87 95       	ror	r24
    b442:	95 95       	asr	r25
    b444:	87 95       	ror	r24
    b446:	90 93 5b 09 	sts	0x095B, r25	; 0x80095b <blob+0x1>
    b44a:	80 93 5a 09 	sts	0x095A, r24	; 0x80095a <blob>
    if (blob.y > oldy ) if (checkcollide( blob.x + 3 , blob.y + 16,     0 )&1 || checkcollide( blob.x + 12 , blob.y +16    ,0 )&1) { blob.y = ( blob.y / 16 ) * 16   ;};
    b44e:	26 17       	cp	r18, r22
    b450:	37 07       	cpc	r19, r23
    b452:	34 f5       	brge	.+76     	; 0xb4a0 <movemonster+0x25a>
    b454:	60 5f       	subi	r22, 0xF0	; 240
    b456:	7f 4f       	sbci	r23, 0xFF	; 255
    b458:	40 e0       	ldi	r20, 0x00	; 0
    b45a:	50 e0       	ldi	r21, 0x00	; 0
    b45c:	03 96       	adiw	r24, 0x03	; 3
    b45e:	0e 94 2e 53 	call	0xa65c	; 0xa65c <checkcollide>
    b462:	80 ff       	sbrs	r24, 0
    b464:	0c c0       	rjmp	.+24     	; 0xb47e <movemonster+0x238>
    b466:	80 91 5c 09 	lds	r24, 0x095C	; 0x80095c <blob+0x2>
    b46a:	90 91 5d 09 	lds	r25, 0x095D	; 0x80095d <blob+0x3>
    b46e:	97 fd       	sbrc	r25, 7
    b470:	0f 96       	adiw	r24, 0x0f	; 15
    b472:	80 7f       	andi	r24, 0xF0	; 240
    b474:	90 93 5d 09 	sts	0x095D, r25	; 0x80095d <blob+0x3>
    b478:	80 93 5c 09 	sts	0x095C, r24	; 0x80095c <blob+0x2>
    b47c:	11 c0       	rjmp	.+34     	; 0xb4a0 <movemonster+0x25a>
    b47e:	60 91 5c 09 	lds	r22, 0x095C	; 0x80095c <blob+0x2>
    b482:	70 91 5d 09 	lds	r23, 0x095D	; 0x80095d <blob+0x3>
    b486:	60 5f       	subi	r22, 0xF0	; 240
    b488:	7f 4f       	sbci	r23, 0xFF	; 255
    b48a:	80 91 5a 09 	lds	r24, 0x095A	; 0x80095a <blob>
    b48e:	90 91 5b 09 	lds	r25, 0x095B	; 0x80095b <blob+0x1>
    b492:	40 e0       	ldi	r20, 0x00	; 0
    b494:	50 e0       	ldi	r21, 0x00	; 0
    b496:	0c 96       	adiw	r24, 0x0c	; 12
    b498:	0e 94 2e 53 	call	0xa65c	; 0xa65c <checkcollide>
    b49c:	80 fd       	sbrc	r24, 0
    b49e:	e3 cf       	rjmp	.-58     	; 0xb466 <movemonster+0x220>
    if (blob.x > oldx ) if (!(checkcollide( blob.x + 17, blob.y + 17 ,0 )&1) )  { blob.x2 = oldx2; blob.ximpulse =   -2;};
    b4a0:	80 91 5a 09 	lds	r24, 0x095A	; 0x80095a <blob>
    b4a4:	90 91 5b 09 	lds	r25, 0x095B	; 0x80095b <blob+0x1>
    b4a8:	20 91 db 09 	lds	r18, 0x09DB	; 0x8009db <oldx>
    b4ac:	30 91 dc 09 	lds	r19, 0x09DC	; 0x8009dc <oldx+0x1>
    b4b0:	28 17       	cp	r18, r24
    b4b2:	39 07       	cpc	r19, r25
    b4b4:	c4 f4       	brge	.+48     	; 0xb4e6 <movemonster+0x2a0>
    b4b6:	60 91 5c 09 	lds	r22, 0x095C	; 0x80095c <blob+0x2>
    b4ba:	70 91 5d 09 	lds	r23, 0x095D	; 0x80095d <blob+0x3>
    b4be:	6f 5e       	subi	r22, 0xEF	; 239
    b4c0:	7f 4f       	sbci	r23, 0xFF	; 255
    b4c2:	40 e0       	ldi	r20, 0x00	; 0
    b4c4:	50 e0       	ldi	r21, 0x00	; 0
    b4c6:	41 96       	adiw	r24, 0x11	; 17
    b4c8:	0e 94 2e 53 	call	0xa65c	; 0xa65c <checkcollide>
    b4cc:	80 fd       	sbrc	r24, 0
    b4ce:	0b c0       	rjmp	.+22     	; 0xb4e6 <movemonster+0x2a0>
    b4d0:	80 91 99 0a 	lds	r24, 0x0A99	; 0x800a99 <oldx2>
    b4d4:	90 91 9a 0a 	lds	r25, 0x0A9A	; 0x800a9a <oldx2+0x1>
    b4d8:	90 93 5f 09 	sts	0x095F, r25	; 0x80095f <blob+0x5>
    b4dc:	80 93 5e 09 	sts	0x095E, r24	; 0x80095e <blob+0x4>
    b4e0:	8e ef       	ldi	r24, 0xFE	; 254
    b4e2:	80 93 61 09 	sts	0x0961, r24	; 0x800961 <blob+0x7>
    if (blob.x < oldx ) if (!(checkcollide( blob.x -  1, blob.y + 17 ,0 )&1) )  { blob.x2 = oldx2; blob.ximpulse =   +2;};
    b4e6:	80 91 5a 09 	lds	r24, 0x095A	; 0x80095a <blob>
    b4ea:	90 91 5b 09 	lds	r25, 0x095B	; 0x80095b <blob+0x1>
    b4ee:	20 91 db 09 	lds	r18, 0x09DB	; 0x8009db <oldx>
    b4f2:	30 91 dc 09 	lds	r19, 0x09DC	; 0x8009dc <oldx+0x1>
    b4f6:	82 17       	cp	r24, r18
    b4f8:	93 07       	cpc	r25, r19
    b4fa:	c4 f4       	brge	.+48     	; 0xb52c <movemonster+0x2e6>
    b4fc:	60 91 5c 09 	lds	r22, 0x095C	; 0x80095c <blob+0x2>
    b500:	70 91 5d 09 	lds	r23, 0x095D	; 0x80095d <blob+0x3>
    b504:	6f 5e       	subi	r22, 0xEF	; 239
    b506:	7f 4f       	sbci	r23, 0xFF	; 255
    b508:	40 e0       	ldi	r20, 0x00	; 0
    b50a:	50 e0       	ldi	r21, 0x00	; 0
    b50c:	01 97       	sbiw	r24, 0x01	; 1
    b50e:	0e 94 2e 53 	call	0xa65c	; 0xa65c <checkcollide>
    b512:	80 fd       	sbrc	r24, 0
    b514:	0b c0       	rjmp	.+22     	; 0xb52c <movemonster+0x2e6>
    b516:	80 91 99 0a 	lds	r24, 0x0A99	; 0x800a99 <oldx2>
    b51a:	90 91 9a 0a 	lds	r25, 0x0A9A	; 0x800a9a <oldx2+0x1>
    b51e:	90 93 5f 09 	sts	0x095F, r25	; 0x80095f <blob+0x5>
    b522:	80 93 5e 09 	sts	0x095E, r24	; 0x80095e <blob+0x4>
    b526:	82 e0       	ldi	r24, 0x02	; 2
    b528:	80 93 61 09 	sts	0x0961, r24	; 0x800961 <blob+0x7>
    if (blob.y > 240 || blob.y < 0 || blob.x <= -16 || blob.x > 240 )  {MonsteronScreen = false; MoveSprite(owlIndex,-20,-20,2,2);blob.onscreen = false;};
    b52c:	80 91 5c 09 	lds	r24, 0x095C	; 0x80095c <blob+0x2>
    b530:	90 91 5d 09 	lds	r25, 0x095D	; 0x80095d <blob+0x3>
    b534:	81 3f       	cpi	r24, 0xF1	; 241
    b536:	91 05       	cpc	r25, r1
    b538:	48 f4       	brcc	.+18     	; 0xb54c <movemonster+0x306>
    b53a:	80 91 5a 09 	lds	r24, 0x095A	; 0x80095a <blob>
    b53e:	90 91 5b 09 	lds	r25, 0x095B	; 0x80095b <blob+0x1>
    b542:	0f 96       	adiw	r24, 0x0f	; 15
    b544:	8f 3f       	cpi	r24, 0xFF	; 255
    b546:	91 05       	cpc	r25, r1
    b548:	61 f0       	breq	.+24     	; 0xb562 <movemonster+0x31c>
    b54a:	58 f0       	brcs	.+22     	; 0xb562 <movemonster+0x31c>
    b54c:	10 92 34 0a 	sts	0x0A34, r1	; 0x800a34 <MonsteronScreen>
    b550:	02 e0       	ldi	r16, 0x02	; 2
    b552:	22 e0       	ldi	r18, 0x02	; 2
    b554:	4c ee       	ldi	r20, 0xEC	; 236
    b556:	6c ee       	ldi	r22, 0xEC	; 236
    b558:	86 e0       	ldi	r24, 0x06	; 6
    b55a:	0e 94 95 4d 	call	0x9b2a	; 0x9b2a <MoveSprite>
    b55e:	10 92 63 09 	sts	0x0963, r1	; 0x800963 <blob+0x9>
}   

    
}
    b562:	0f 91       	pop	r16
    b564:	08 95       	ret

0000b566 <checkplayer>:
void checkplayer(int x,int y)
{
    if(x >= player2.x - 10 && x <= player2.x + 10 && y >= player2.y - 10 && y <= player2.y + 10)
    b566:	20 91 35 0a 	lds	r18, 0x0A35	; 0x800a35 <player2>
    b56a:	30 91 36 0a 	lds	r19, 0x0A36	; 0x800a36 <player2+0x1>
    b56e:	a9 01       	movw	r20, r18
    b570:	4a 50       	subi	r20, 0x0A	; 10
    b572:	51 09       	sbc	r21, r1
    b574:	84 17       	cp	r24, r20
    b576:	95 07       	cpc	r25, r21
    b578:	64 f1       	brlt	.+88     	; 0xb5d2 <checkplayer+0x6c>
    b57a:	26 5f       	subi	r18, 0xF6	; 246
    b57c:	3f 4f       	sbci	r19, 0xFF	; 255
    b57e:	28 17       	cp	r18, r24
    b580:	39 07       	cpc	r19, r25
    b582:	3c f1       	brlt	.+78     	; 0xb5d2 <checkplayer+0x6c>
    b584:	80 91 37 0a 	lds	r24, 0x0A37	; 0x800a37 <player2+0x2>
    b588:	90 91 38 0a 	lds	r25, 0x0A38	; 0x800a38 <player2+0x3>
    b58c:	9c 01       	movw	r18, r24
    b58e:	2a 50       	subi	r18, 0x0A	; 10
    b590:	31 09       	sbc	r19, r1
    b592:	62 17       	cp	r22, r18
    b594:	73 07       	cpc	r23, r19
    b596:	ec f0       	brlt	.+58     	; 0xb5d2 <checkplayer+0x6c>
    b598:	0a 96       	adiw	r24, 0x0a	; 10
    b59a:	86 17       	cp	r24, r22
    b59c:	97 07       	cpc	r25, r23
    b59e:	cc f0       	brlt	.+50     	; 0xb5d2 <checkplayer+0x6c>
    {   
    died = true;
    b5a0:	81 e0       	ldi	r24, 0x01	; 1
    b5a2:	80 93 9c 0a 	sts	0x0A9C, r24	; 0x800a9c <died>
    lives--;    
    b5a6:	80 91 51 0a 	lds	r24, 0x0A51	; 0x800a51 <lives>
    b5aa:	81 50       	subi	r24, 0x01	; 1
    b5ac:	80 93 51 0a 	sts	0x0A51, r24	; 0x800a51 <lives>
    isplaying = false; 
    b5b0:	10 92 97 0a 	sts	0x0A97, r1	; 0x800a97 <isplaying>
    play = false;
    b5b4:	10 92 de 09 	sts	0x09DE, r1	; 0x8009de <play>
    bonus = 0; 
    b5b8:	10 92 95 0a 	sts	0x0A95, r1	; 0x800a95 <bonus+0x1>
    b5bc:	10 92 94 0a 	sts	0x0A94, r1	; 0x800a94 <bonus>
    TriggerFx(9,0xff,true);
    b5c0:	41 e0       	ldi	r20, 0x01	; 1
    b5c2:	6f ef       	ldi	r22, 0xFF	; 255
    b5c4:	89 e0       	ldi	r24, 0x09	; 9
    b5c6:	0e 94 c1 43 	call	0x8782	; 0x8782 <TriggerFx>
    WaitVsync(240); 
    b5ca:	80 ef       	ldi	r24, 0xF0	; 240
    b5cc:	90 e0       	ldi	r25, 0x00	; 0
    b5ce:	0c 94 01 4e 	jmp	0x9c02	; 0x9c02 <WaitVsync>
    b5d2:	08 95       	ret

0000b5d4 <checkmonster>:
    }
}
void checkmonster(int x, int y,int z)
{
    b5d4:	ef 92       	push	r14
    b5d6:	ff 92       	push	r15
    b5d8:	0f 93       	push	r16
    b5da:	1f 93       	push	r17
    b5dc:	cf 93       	push	r28
    b5de:	df 93       	push	r29
if (!MonsteronScreen) return;
    b5e0:	20 91 34 0a 	lds	r18, 0x0A34	; 0x800a34 <MonsteronScreen>
    b5e4:	22 23       	and	r18, r18
    b5e6:	09 f4       	brne	.+2      	; 0xb5ea <checkmonster+0x16>
    b5e8:	c3 c0       	rjmp	.+390    	; 0xb770 <checkmonster+0x19c>
    b5ea:	7a 01       	movw	r14, r20
    b5ec:	eb 01       	movw	r28, r22
    b5ee:	8c 01       	movw	r16, r24

if   (owl.onscreen && owl.alive)
    b5f0:	80 91 5b 0a 	lds	r24, 0x0A5B	; 0x800a5b <owl+0x9>
    b5f4:	88 23       	and	r24, r24
    b5f6:	09 f4       	brne	.+2      	; 0xb5fa <checkmonster+0x26>
    b5f8:	55 c0       	rjmp	.+170    	; 0xb6a4 <checkmonster+0xd0>
    b5fa:	80 91 5c 0a 	lds	r24, 0x0A5C	; 0x800a5c <owl+0xa>
    b5fe:	88 23       	and	r24, r24
    b600:	09 f4       	brne	.+2      	; 0xb604 <checkmonster+0x30>
    b602:	50 c0       	rjmp	.+160    	; 0xb6a4 <checkmonster+0xd0>
                    {
   if ( x >= owl.x +4 && x<= owl.x + 11 && y > owl.y+3 &&  y  < owl.y + 15 )
    b604:	80 91 52 0a 	lds	r24, 0x0A52	; 0x800a52 <owl>
    b608:	90 91 53 0a 	lds	r25, 0x0A53	; 0x800a53 <owl+0x1>
    b60c:	9c 01       	movw	r18, r24
    b60e:	2d 5f       	subi	r18, 0xFD	; 253
    b610:	3f 4f       	sbci	r19, 0xFF	; 255
    b612:	20 17       	cp	r18, r16
    b614:	31 07       	cpc	r19, r17
    b616:	0c f0       	brlt	.+2      	; 0xb61a <checkmonster+0x46>
    b618:	45 c0       	rjmp	.+138    	; 0xb6a4 <checkmonster+0xd0>
    b61a:	0b 96       	adiw	r24, 0x0b	; 11
    b61c:	80 17       	cp	r24, r16
    b61e:	91 07       	cpc	r25, r17
    b620:	0c f4       	brge	.+2      	; 0xb624 <checkmonster+0x50>
    b622:	40 c0       	rjmp	.+128    	; 0xb6a4 <checkmonster+0xd0>
    b624:	80 91 54 0a 	lds	r24, 0x0A54	; 0x800a54 <owl+0x2>
    b628:	90 91 55 0a 	lds	r25, 0x0A55	; 0x800a55 <owl+0x3>
    b62c:	9c 01       	movw	r18, r24
    b62e:	2d 5f       	subi	r18, 0xFD	; 253
    b630:	3f 4f       	sbci	r19, 0xFF	; 255
    b632:	26 17       	cp	r18, r22
    b634:	37 07       	cpc	r19, r23
    b636:	b4 f5       	brge	.+108    	; 0xb6a4 <checkmonster+0xd0>
    b638:	0e 96       	adiw	r24, 0x0e	; 14
    b63a:	86 17       	cp	r24, r22
    b63c:	97 07       	cpc	r25, r23
    b63e:	94 f1       	brlt	.+100    	; 0xb6a4 <checkmonster+0xd0>
   {
    if ( z== 0)
    b640:	45 2b       	or	r20, r21
    b642:	d1 f4       	brne	.+52     	; 0xb678 <checkmonster+0xa4>
    {
    died = true;
    b644:	81 e0       	ldi	r24, 0x01	; 1
    b646:	80 93 9c 0a 	sts	0x0A9C, r24	; 0x800a9c <died>
    lives--;    
    b64a:	80 91 51 0a 	lds	r24, 0x0A51	; 0x800a51 <lives>
    b64e:	81 50       	subi	r24, 0x01	; 1
    b650:	80 93 51 0a 	sts	0x0A51, r24	; 0x800a51 <lives>
    isplaying = false; 
    b654:	10 92 97 0a 	sts	0x0A97, r1	; 0x800a97 <isplaying>
    play = false;
    b658:	10 92 de 09 	sts	0x09DE, r1	; 0x8009de <play>
    bonus = 0;  
    b65c:	10 92 95 0a 	sts	0x0A95, r1	; 0x800a95 <bonus+0x1>
    b660:	10 92 94 0a 	sts	0x0A94, r1	; 0x800a94 <bonus>
    TriggerFx(9,0xff,true);
    b664:	41 e0       	ldi	r20, 0x01	; 1
    b666:	6f ef       	ldi	r22, 0xFF	; 255
    b668:	89 e0       	ldi	r24, 0x09	; 9
    b66a:	0e 94 c1 43 	call	0x8782	; 0x8782 <TriggerFx>
    WaitVsync(240); 
    b66e:	80 ef       	ldi	r24, 0xF0	; 240
    b670:	90 e0       	ldi	r25, 0x00	; 0
    b672:	0e 94 01 4e 	call	0x9c02	; 0x9c02 <WaitVsync>
    b676:	16 c0       	rjmp	.+44     	; 0xb6a4 <checkmonster+0xd0>
    }
       else
       {
        owl.alive = false; 
    b678:	10 92 5c 0a 	sts	0x0A5C, r1	; 0x800a5c <owl+0xa>
        owl.ximpulse = 0;
    b67c:	10 92 59 0a 	sts	0x0A59, r1	; 0x800a59 <owl+0x7>
        owl.yimpulse = 0; 
    b680:	10 92 5a 0a 	sts	0x0A5A, r1	; 0x800a5a <owl+0x8>
        score = score + 50;
    b684:	80 91 c5 09 	lds	r24, 0x09C5	; 0x8009c5 <score>
    b688:	90 91 c6 09 	lds	r25, 0x09C6	; 0x8009c6 <score+0x1>
    b68c:	c2 96       	adiw	r24, 0x32	; 50
    b68e:	90 93 c6 09 	sts	0x09C6, r25	; 0x8009c6 <score+0x1>
    b692:	80 93 c5 09 	sts	0x09C5, r24	; 0x8009c5 <score>
        updatepoints();
    b696:	0e 94 1d 53 	call	0xa63a	; 0xa63a <updatepoints>
        TriggerFx(8,0xff,true);
    b69a:	41 e0       	ldi	r20, 0x01	; 1
    b69c:	6f ef       	ldi	r22, 0xFF	; 255
    b69e:	88 e0       	ldi	r24, 0x08	; 8
    b6a0:	0e 94 c1 43 	call	0x8782	; 0x8782 <TriggerFx>
       };
   };     
   };
    
 if   (blob.onscreen && blob.alive)
    b6a4:	80 91 63 09 	lds	r24, 0x0963	; 0x800963 <blob+0x9>
    b6a8:	88 23       	and	r24, r24
    b6aa:	09 f4       	brne	.+2      	; 0xb6ae <checkmonster+0xda>
    b6ac:	61 c0       	rjmp	.+194    	; 0xb770 <checkmonster+0x19c>
    b6ae:	80 91 64 09 	lds	r24, 0x0964	; 0x800964 <blob+0xa>
    b6b2:	88 23       	and	r24, r24
    b6b4:	09 f4       	brne	.+2      	; 0xb6b8 <checkmonster+0xe4>
    b6b6:	5c c0       	rjmp	.+184    	; 0xb770 <checkmonster+0x19c>
                    {
   if ( x >= blob.x +3 && x<= blob.x + 12 && y > blob.y+1 &&  y  < blob.y + 13 )
    b6b8:	80 91 5a 09 	lds	r24, 0x095A	; 0x80095a <blob>
    b6bc:	90 91 5b 09 	lds	r25, 0x095B	; 0x80095b <blob+0x1>
    b6c0:	9c 01       	movw	r18, r24
    b6c2:	2e 5f       	subi	r18, 0xFE	; 254
    b6c4:	3f 4f       	sbci	r19, 0xFF	; 255
    b6c6:	20 17       	cp	r18, r16
    b6c8:	31 07       	cpc	r19, r17
    b6ca:	0c f0       	brlt	.+2      	; 0xb6ce <checkmonster+0xfa>
    b6cc:	51 c0       	rjmp	.+162    	; 0xb770 <checkmonster+0x19c>
    b6ce:	0c 96       	adiw	r24, 0x0c	; 12
    b6d0:	80 17       	cp	r24, r16
    b6d2:	91 07       	cpc	r25, r17
    b6d4:	0c f4       	brge	.+2      	; 0xb6d8 <checkmonster+0x104>
    b6d6:	4c c0       	rjmp	.+152    	; 0xb770 <checkmonster+0x19c>
    b6d8:	80 91 5c 09 	lds	r24, 0x095C	; 0x80095c <blob+0x2>
    b6dc:	90 91 5d 09 	lds	r25, 0x095D	; 0x80095d <blob+0x3>
    b6e0:	9c 01       	movw	r18, r24
    b6e2:	2f 5f       	subi	r18, 0xFF	; 255
    b6e4:	3f 4f       	sbci	r19, 0xFF	; 255
    b6e6:	2c 17       	cp	r18, r28
    b6e8:	3d 07       	cpc	r19, r29
    b6ea:	0c f0       	brlt	.+2      	; 0xb6ee <checkmonster+0x11a>
    b6ec:	41 c0       	rjmp	.+130    	; 0xb770 <checkmonster+0x19c>
    b6ee:	0c 96       	adiw	r24, 0x0c	; 12
    b6f0:	8c 17       	cp	r24, r28
    b6f2:	9d 07       	cpc	r25, r29
    b6f4:	ec f1       	brlt	.+122    	; 0xb770 <checkmonster+0x19c>
   {
      if ( z== 0)
    b6f6:	ef 28       	or	r14, r15
    b6f8:	f9 f4       	brne	.+62     	; 0xb738 <checkmonster+0x164>
    {
     died = true;
    b6fa:	81 e0       	ldi	r24, 0x01	; 1
    b6fc:	80 93 9c 0a 	sts	0x0A9C, r24	; 0x800a9c <died>
    lives--;    
    b700:	80 91 51 0a 	lds	r24, 0x0A51	; 0x800a51 <lives>
    b704:	81 50       	subi	r24, 0x01	; 1
    b706:	80 93 51 0a 	sts	0x0A51, r24	; 0x800a51 <lives>
    isplaying = false;
    b70a:	10 92 97 0a 	sts	0x0A97, r1	; 0x800a97 <isplaying>
    play = false;
    b70e:	10 92 de 09 	sts	0x09DE, r1	; 0x8009de <play>
    bonus = 0; 
    b712:	10 92 95 0a 	sts	0x0A95, r1	; 0x800a95 <bonus+0x1>
    b716:	10 92 94 0a 	sts	0x0A94, r1	; 0x800a94 <bonus>
    TriggerFx(9,0xff,true);
    b71a:	41 e0       	ldi	r20, 0x01	; 1
    b71c:	6f ef       	ldi	r22, 0xFF	; 255
    b71e:	89 e0       	ldi	r24, 0x09	; 9
    b720:	0e 94 c1 43 	call	0x8782	; 0x8782 <TriggerFx>
    WaitVsync(240); 
    b724:	80 ef       	ldi	r24, 0xF0	; 240
    b726:	90 e0       	ldi	r25, 0x00	; 0
       
    
    
    

}
    b728:	df 91       	pop	r29
    b72a:	cf 91       	pop	r28
    b72c:	1f 91       	pop	r17
    b72e:	0f 91       	pop	r16
    b730:	ff 90       	pop	r15
    b732:	ef 90       	pop	r14
    lives--;    
    isplaying = false;
    play = false;
    bonus = 0; 
    TriggerFx(9,0xff,true);
    WaitVsync(240); 
    b734:	0c 94 01 4e 	jmp	0x9c02	; 0x9c02 <WaitVsync>
      }
    else
       {
        blob.alive = false;  
    b738:	10 92 64 09 	sts	0x0964, r1	; 0x800964 <blob+0xa>
        blob.ximpulse = 0;
    b73c:	10 92 61 09 	sts	0x0961, r1	; 0x800961 <blob+0x7>
        blob.yimpulse = 0;
    b740:	10 92 62 09 	sts	0x0962, r1	; 0x800962 <blob+0x8>
        score = score + 50;
    b744:	80 91 c5 09 	lds	r24, 0x09C5	; 0x8009c5 <score>
    b748:	90 91 c6 09 	lds	r25, 0x09C6	; 0x8009c6 <score+0x1>
    b74c:	c2 96       	adiw	r24, 0x32	; 50
    b74e:	90 93 c6 09 	sts	0x09C6, r25	; 0x8009c6 <score+0x1>
    b752:	80 93 c5 09 	sts	0x09C5, r24	; 0x8009c5 <score>
        updatepoints();
    b756:	0e 94 1d 53 	call	0xa63a	; 0xa63a <updatepoints>
        TriggerFx(8,0xff,true);
    b75a:	41 e0       	ldi	r20, 0x01	; 1
    b75c:	6f ef       	ldi	r22, 0xFF	; 255
    b75e:	88 e0       	ldi	r24, 0x08	; 8
       
    
    
    

}
    b760:	df 91       	pop	r29
    b762:	cf 91       	pop	r28
    b764:	1f 91       	pop	r17
    b766:	0f 91       	pop	r16
    b768:	ff 90       	pop	r15
    b76a:	ef 90       	pop	r14
        blob.alive = false;  
        blob.ximpulse = 0;
        blob.yimpulse = 0;
        score = score + 50;
        updatepoints();
        TriggerFx(8,0xff,true);
    b76c:	0c 94 c1 43 	jmp	0x8782	; 0x8782 <TriggerFx>
       
    
    
    

}
    b770:	df 91       	pop	r29
    b772:	cf 91       	pop	r28
    b774:	1f 91       	pop	r17
    b776:	0f 91       	pop	r16
    b778:	ff 90       	pop	r15
    b77a:	ef 90       	pop	r14
    b77c:	08 95       	ret

0000b77e <moveplayer>:
bool play;

void moveplayer()
{
 
player.mushroomCount = 10;
    b77e:	8a e0       	ldi	r24, 0x0A	; 10
    b780:	90 e0       	ldi	r25, 0x00	; 0
    b782:	90 93 6c 09 	sts	0x096C, r25	; 0x80096c <player+0x7>
    b786:	80 93 6b 09 	sts	0x096B, r24	; 0x80096b <player+0x6>
unsigned int joy=ReadJoypad(0);
    b78a:	80 e0       	ldi	r24, 0x00	; 0
    b78c:	0e 94 6e 41 	call	0x82dc	; 0x82dc <ReadJoypad>
if(player.stuck)
    b790:	20 91 6f 09 	lds	r18, 0x096F	; 0x80096f <player+0xa>
    b794:	22 23       	and	r18, r18
    b796:	a1 f0       	breq	.+40     	; 0xb7c0 <moveplayer+0x42>
{
player.sCount = player.sCount + 1;
    b798:	20 91 6d 09 	lds	r18, 0x096D	; 0x80096d <player+0x8>
    b79c:	30 91 6e 09 	lds	r19, 0x096E	; 0x80096e <player+0x9>
    b7a0:	2f 5f       	subi	r18, 0xFF	; 255
    b7a2:	3f 4f       	sbci	r19, 0xFF	; 255
if(player.sCount >= 100)
    b7a4:	24 36       	cpi	r18, 0x64	; 100
    b7a6:	31 05       	cpc	r19, r1
    b7a8:	2c f4       	brge	.+10     	; 0xb7b4 <moveplayer+0x36>
 
player.mushroomCount = 10;
unsigned int joy=ReadJoypad(0);
if(player.stuck)
{
player.sCount = player.sCount + 1;
    b7aa:	30 93 6e 09 	sts	0x096E, r19	; 0x80096e <player+0x9>
    b7ae:	20 93 6d 09 	sts	0x096D, r18	; 0x80096d <player+0x8>
    b7b2:	06 c0       	rjmp	.+12     	; 0xb7c0 <moveplayer+0x42>
if(player.sCount >= 100)
{
player.sCount = 0;
    b7b4:	10 92 6e 09 	sts	0x096E, r1	; 0x80096e <player+0x9>
    b7b8:	10 92 6d 09 	sts	0x096D, r1	; 0x80096d <player+0x8>
player.stuck = false;
    b7bc:	10 92 6f 09 	sts	0x096F, r1	; 0x80096f <player+0xa>
}
}
//if (joy&BTN_B) TriggerFx(6,0xff,true);
if (introplaying && joy&BTN_START) { introplaying = false;return;}; 
    b7c0:	20 91 81 09 	lds	r18, 0x0981	; 0x800981 <introplaying>
    b7c4:	22 23       	and	r18, r18
    b7c6:	29 f0       	breq	.+10     	; 0xb7d2 <moveplayer+0x54>
    b7c8:	83 ff       	sbrs	r24, 3
    b7ca:	8b c0       	rjmp	.+278    	; 0xb8e2 <moveplayer+0x164>
    b7cc:	10 92 81 09 	sts	0x0981, r1	; 0x800981 <introplaying>
    b7d0:	08 95       	ret
if (!introplaying)
{

 
if (joy&BTN_LEFT && player.stuck == false) { 
    b7d2:	86 ff       	sbrs	r24, 6
    b7d4:	15 c0       	rjmp	.+42     	; 0xb800 <moveplayer+0x82>
    b7d6:	20 91 6f 09 	lds	r18, 0x096F	; 0x80096f <player+0xa>
    b7da:	21 11       	cpse	r18, r1
    b7dc:	11 c0       	rjmp	.+34     	; 0xb800 <moveplayer+0x82>
player.direction = 'l';
    b7de:	2c e6       	ldi	r18, 0x6C	; 108
    b7e0:	20 93 73 09 	sts	0x0973, r18	; 0x800973 <player+0xe>
player.action = 'w';
    b7e4:	27 e7       	ldi	r18, 0x77	; 119
    b7e6:	20 93 72 09 	sts	0x0972, r18	; 0x800972 <player+0xd>
player.facing = 1;
    b7ea:	21 e0       	ldi	r18, 0x01	; 1
    b7ec:	30 e0       	ldi	r19, 0x00	; 0
    b7ee:	30 93 71 09 	sts	0x0971, r19	; 0x800971 <player+0xc>
    b7f2:	20 93 70 09 	sts	0x0970, r18	; 0x800970 <player+0xb>
player.ximpulse = -player.speed; 
    b7f6:	20 91 69 09 	lds	r18, 0x0969	; 0x800969 <player+0x4>
    b7fa:	21 95       	neg	r18
    b7fc:	20 93 77 09 	sts	0x0977, r18	; 0x800977 <player+0x12>
};
if (joy&BTN_RIGHT && player.stuck == false) {
    b800:	87 ff       	sbrs	r24, 7
    b802:	12 c0       	rjmp	.+36     	; 0xb828 <moveplayer+0xaa>
    b804:	20 91 6f 09 	lds	r18, 0x096F	; 0x80096f <player+0xa>
    b808:	21 11       	cpse	r18, r1
    b80a:	0e c0       	rjmp	.+28     	; 0xb828 <moveplayer+0xaa>
player.direction = 'r';
    b80c:	22 e7       	ldi	r18, 0x72	; 114
    b80e:	20 93 73 09 	sts	0x0973, r18	; 0x800973 <player+0xe>
player.action = 'w';
    b812:	27 e7       	ldi	r18, 0x77	; 119
    b814:	20 93 72 09 	sts	0x0972, r18	; 0x800972 <player+0xd>
player.facing = 0;
    b818:	10 92 71 09 	sts	0x0971, r1	; 0x800971 <player+0xc>
    b81c:	10 92 70 09 	sts	0x0970, r1	; 0x800970 <player+0xb>
player.ximpulse = player.speed; 
    b820:	20 91 69 09 	lds	r18, 0x0969	; 0x800969 <player+0x4>
    b824:	20 93 77 09 	sts	0x0977, r18	; 0x800977 <player+0x12>
};
if ( !(joy&BTN_A) ) {
    b828:	ac 01       	movw	r20, r24
    b82a:	44 27       	eor	r20, r20
    b82c:	51 70       	andi	r21, 0x01	; 1
    b82e:	90 fd       	sbrc	r25, 0
    b830:	09 c0       	rjmp	.+18     	; 0xb844 <moveplayer+0xc6>
player.yimpulse = 0;
    b832:	10 92 78 09 	sts	0x0978, r1	; 0x800978 <player+0x13>
player.jumpreleased = true;
    b836:	21 e0       	ldi	r18, 0x01	; 1
    b838:	20 93 7a 09 	sts	0x097A, r18	; 0x80097a <player+0x15>
player.jumping = false;
    b83c:	10 92 79 09 	sts	0x0979, r1	; 0x800979 <player+0x14>
player.jumpcounter = 0;
    b840:	10 92 7f 09 	sts	0x097F, r1	; 0x80097f <player+0x1a>
};
if ( !(joy&BTN_B) ) {
    b844:	80 fd       	sbrc	r24, 0
    b846:	03 c0       	rjmp	.+6      	; 0xb84e <moveplayer+0xd0>
player.bpressed = false;
    b848:	10 92 7b 09 	sts	0x097B, r1	; 0x80097b <player+0x16>
    b84c:	08 c0       	rjmp	.+16     	; 0xb85e <moveplayer+0xe0>
};
if ( joy&BTN_B && player.touchground) {
    b84e:	20 91 76 09 	lds	r18, 0x0976	; 0x800976 <player+0x11>
    b852:	22 23       	and	r18, r18
    b854:	21 f0       	breq	.+8      	; 0xb85e <moveplayer+0xe0>
	if(bananaCount > 0 && player.bpressed == false)
    b856:	20 91 03 01 	lds	r18, 0x0103	; 0x800103 <bananaCount>
    b85a:	21 11       	cpse	r18, r1
    b85c:	ab c2       	rjmp	.+1366   	; 0xbdb4 <moveplayer+0x636>
	bananaCount = bananaCount - 1;
    player.killer = true;
	player.bpressed = true;
	};
};  
if ( !(joy&BTN_Y) ) {
    b85e:	81 fd       	sbrc	r24, 1
    b860:	03 c0       	rjmp	.+6      	; 0xb868 <moveplayer+0xea>
player.ypressed = false;
    b862:	10 92 7c 09 	sts	0x097C, r1	; 0x80097c <player+0x17>
    b866:	19 c0       	rjmp	.+50     	; 0xb89a <moveplayer+0x11c>
};
if ( joy&BTN_Y) {
	if(player.mushroomCount > 0 && player.ypressed == false)
    b868:	80 91 6b 09 	lds	r24, 0x096B	; 0x80096b <player+0x6>
    b86c:	90 91 6c 09 	lds	r25, 0x096C	; 0x80096c <player+0x7>
    b870:	18 16       	cp	r1, r24
    b872:	19 06       	cpc	r1, r25
    b874:	94 f4       	brge	.+36     	; 0xb89a <moveplayer+0x11c>
    b876:	20 91 7c 09 	lds	r18, 0x097C	; 0x80097c <player+0x17>
    b87a:	21 11       	cpse	r18, r1
    b87c:	0e c0       	rjmp	.+28     	; 0xb89a <moveplayer+0x11c>
	{
	player.mushroomCount = player.mushroomCount - 1;
    b87e:	01 97       	sbiw	r24, 0x01	; 1
    b880:	90 93 6c 09 	sts	0x096C, r25	; 0x80096c <player+0x7>
    b884:	80 93 6b 09 	sts	0x096B, r24	; 0x80096b <player+0x6>
	player.speed = 10;
    b888:	8a e0       	ldi	r24, 0x0A	; 10
    b88a:	90 e0       	ldi	r25, 0x00	; 0
    b88c:	90 93 6a 09 	sts	0x096A, r25	; 0x80096a <player+0x5>
    b890:	80 93 69 09 	sts	0x0969, r24	; 0x800969 <player+0x4>
	player.ypressed = true;
    b894:	81 e0       	ldi	r24, 0x01	; 1
    b896:	80 93 7c 09 	sts	0x097C, r24	; 0x80097c <player+0x17>
	};
};    


if (joy&BTN_A && player.touchground && player.jumpreleased && player.stuck == false) {
    b89a:	45 2b       	or	r20, r21
    b89c:	11 f1       	breq	.+68     	; 0xb8e2 <moveplayer+0x164>
    b89e:	80 91 76 09 	lds	r24, 0x0976	; 0x800976 <player+0x11>
    b8a2:	88 23       	and	r24, r24
    b8a4:	f1 f0       	breq	.+60     	; 0xb8e2 <moveplayer+0x164>
    b8a6:	80 91 7a 09 	lds	r24, 0x097A	; 0x80097a <player+0x15>
    b8aa:	88 23       	and	r24, r24
    b8ac:	d1 f0       	breq	.+52     	; 0xb8e2 <moveplayer+0x164>
    b8ae:	80 91 6f 09 	lds	r24, 0x096F	; 0x80096f <player+0xa>
    b8b2:	81 11       	cpse	r24, r1
    b8b4:	16 c0       	rjmp	.+44     	; 0xb8e2 <moveplayer+0x164>
player.action = 'j';
    b8b6:	8a e6       	ldi	r24, 0x6A	; 106
    b8b8:	80 93 72 09 	sts	0x0972, r24	; 0x800972 <player+0xd>
player.yimpulse = 0;
    b8bc:	10 92 78 09 	sts	0x0978, r1	; 0x800978 <player+0x13>
player.jumping = true;
    b8c0:	81 e0       	ldi	r24, 0x01	; 1
    b8c2:	80 93 79 09 	sts	0x0979, r24	; 0x800979 <player+0x14>
player.touchground = false;
    b8c6:	10 92 76 09 	sts	0x0976, r1	; 0x800976 <player+0x11>
player.jumpreleased = false;
    b8ca:	10 92 7a 09 	sts	0x097A, r1	; 0x80097a <player+0x15>
player.jumpcounter++ ; 
    b8ce:	80 91 7f 09 	lds	r24, 0x097F	; 0x80097f <player+0x1a>
    b8d2:	8f 5f       	subi	r24, 0xFF	; 255
    b8d4:	80 93 7f 09 	sts	0x097F, r24	; 0x80097f <player+0x1a>
TriggerFx(4,0xff,true);
    b8d8:	41 e0       	ldi	r20, 0x01	; 1
    b8da:	6f ef       	ldi	r22, 0xFF	; 255
    b8dc:	84 e0       	ldi	r24, 0x04	; 4
    b8de:	0e 94 c1 43 	call	0x8782	; 0x8782 <TriggerFx>
};
};

oldx = player.x;
    b8e2:	20 91 65 09 	lds	r18, 0x0965	; 0x800965 <player>
    b8e6:	30 91 66 09 	lds	r19, 0x0966	; 0x800966 <player+0x1>
    b8ea:	30 93 dc 09 	sts	0x09DC, r19	; 0x8009dc <oldx+0x1>
    b8ee:	20 93 db 09 	sts	0x09DB, r18	; 0x8009db <oldx>
oldy = player.y;
    b8f2:	60 91 67 09 	lds	r22, 0x0967	; 0x800967 <player+0x2>
    b8f6:	70 91 68 09 	lds	r23, 0x0968	; 0x800968 <player+0x3>
    b8fa:	70 93 a1 0a 	sts	0x0AA1, r23	; 0x800aa1 <oldy+0x1>
    b8fe:	60 93 a0 0a 	sts	0x0AA0, r22	; 0x800aa0 <oldy>
if (player.jumpcounter > 0 &&  player.jumpcounter <= 25 )  player.yimpulse = -4;
    b902:	80 91 7f 09 	lds	r24, 0x097F	; 0x80097f <player+0x1a>
    b906:	9f ef       	ldi	r25, 0xFF	; 255
    b908:	98 0f       	add	r25, r24
    b90a:	99 31       	cpi	r25, 0x19	; 25
    b90c:	18 f4       	brcc	.+6      	; 0xb914 <moveplayer+0x196>
    b90e:	9c ef       	ldi	r25, 0xFC	; 252
    b910:	90 93 78 09 	sts	0x0978, r25	; 0x800978 <player+0x13>
if (player.jumpcounter > 25 &&  player.jumpcounter <= 36 )  player.yimpulse = -3;   
    b914:	96 ee       	ldi	r25, 0xE6	; 230
    b916:	98 0f       	add	r25, r24
    b918:	9b 30       	cpi	r25, 0x0B	; 11
    b91a:	18 f4       	brcc	.+6      	; 0xb922 <moveplayer+0x1a4>
    b91c:	9d ef       	ldi	r25, 0xFD	; 253
    b91e:	90 93 78 09 	sts	0x0978, r25	; 0x800978 <player+0x13>
if (player.jumpcounter > 36 &&  player.jumpcounter <= 40 ) player.yimpulse = -2;   
    b922:	9b ed       	ldi	r25, 0xDB	; 219
    b924:	98 0f       	add	r25, r24
    b926:	94 30       	cpi	r25, 0x04	; 4
    b928:	18 f4       	brcc	.+6      	; 0xb930 <moveplayer+0x1b2>
    b92a:	9e ef       	ldi	r25, 0xFE	; 254
    b92c:	90 93 78 09 	sts	0x0978, r25	; 0x800978 <player+0x13>
if (player.jumpcounter > 40 &&  player.jumpcounter <= 46 ) player.yimpulse = -1;  
    b930:	97 ed       	ldi	r25, 0xD7	; 215
    b932:	98 0f       	add	r25, r24
    b934:	96 30       	cpi	r25, 0x06	; 6
    b936:	20 f4       	brcc	.+8      	; 0xb940 <moveplayer+0x1c2>
    b938:	9f ef       	ldi	r25, 0xFF	; 255
    b93a:	90 93 78 09 	sts	0x0978, r25	; 0x800978 <player+0x13>
    b93e:	02 c0       	rjmp	.+4      	; 0xb944 <moveplayer+0x1c6>
if ( player.jumpcounter > 0 ) player.jumpcounter++;
    b940:	88 23       	and	r24, r24
    b942:	19 f0       	breq	.+6      	; 0xb94a <moveplayer+0x1cc>
    b944:	8f 5f       	subi	r24, 0xFF	; 255
    b946:	80 93 7f 09 	sts	0x097F, r24	; 0x80097f <player+0x1a>
if ( player.jumpcounter > 46 ) player.jumpcounter = 0;
    b94a:	80 91 7f 09 	lds	r24, 0x097F	; 0x80097f <player+0x1a>
    b94e:	8f 32       	cpi	r24, 0x2F	; 47
    b950:	10 f0       	brcs	.+4      	; 0xb956 <moveplayer+0x1d8>
    b952:	10 92 7f 09 	sts	0x097F, r1	; 0x80097f <player+0x1a>
player.x = player.x + player.ximpulse;
    b956:	80 91 77 09 	lds	r24, 0x0977	; 0x800977 <player+0x12>
    b95a:	a9 01       	movw	r20, r18
    b95c:	48 0f       	add	r20, r24
    b95e:	51 1d       	adc	r21, r1
    b960:	87 fd       	sbrc	r24, 7
    b962:	5a 95       	dec	r21
    b964:	ca 01       	movw	r24, r20
    b966:	50 93 66 09 	sts	0x0966, r21	; 0x800966 <player+0x1>
    b96a:	40 93 65 09 	sts	0x0965, r20	; 0x800965 <player>
player.y = player.y + player.yimpulse + gravity ;
    b96e:	40 91 78 09 	lds	r20, 0x0978	; 0x800978 <player+0x13>
    b972:	64 0f       	add	r22, r20
    b974:	71 1d       	adc	r23, r1
    b976:	47 fd       	sbrc	r20, 7
    b978:	7a 95       	dec	r23
    b97a:	6e 5f       	subi	r22, 0xFE	; 254
    b97c:	7f 4f       	sbci	r23, 0xFF	; 255
    b97e:	70 93 68 09 	sts	0x0968, r23	; 0x800968 <player+0x3>
    b982:	60 93 67 09 	sts	0x0967, r22	; 0x800967 <player+0x2>
if (player.x > oldx ) { player.aniframe++;player.direction = 'r';};
    b986:	28 17       	cp	r18, r24
    b988:	39 07       	cpc	r19, r25
    b98a:	3c f4       	brge	.+14     	; 0xb99a <moveplayer+0x21c>
    b98c:	20 91 80 09 	lds	r18, 0x0980	; 0x800980 <player+0x1b>
    b990:	2f 5f       	subi	r18, 0xFF	; 255
    b992:	20 93 80 09 	sts	0x0980, r18	; 0x800980 <player+0x1b>
    b996:	22 e7       	ldi	r18, 0x72	; 114
    b998:	09 c0       	rjmp	.+18     	; 0xb9ac <moveplayer+0x22e>
if (player.x < oldx ) { player.aniframe++;player.direction = 'l';};
    b99a:	82 17       	cp	r24, r18
    b99c:	93 07       	cpc	r25, r19
    b99e:	4c f4       	brge	.+18     	; 0xb9b2 <moveplayer+0x234>
    b9a0:	20 91 80 09 	lds	r18, 0x0980	; 0x800980 <player+0x1b>
    b9a4:	2f 5f       	subi	r18, 0xFF	; 255
    b9a6:	20 93 80 09 	sts	0x0980, r18	; 0x800980 <player+0x1b>
    b9aa:	2c e6       	ldi	r18, 0x6C	; 108
    b9ac:	20 93 73 09 	sts	0x0973, r18	; 0x800973 <player+0xe>
    b9b0:	05 c0       	rjmp	.+10     	; 0xb9bc <moveplayer+0x23e>
if (player.x == oldx  ) { player.aniframe = 0;};
    b9b2:	28 17       	cp	r18, r24
    b9b4:	39 07       	cpc	r19, r25
    b9b6:	11 f4       	brne	.+4      	; 0xb9bc <moveplayer+0x23e>
    b9b8:	10 92 80 09 	sts	0x0980, r1	; 0x800980 <player+0x1b>
if (player.aniframe > 0 ) player.aniframe++;
    b9bc:	20 91 80 09 	lds	r18, 0x0980	; 0x800980 <player+0x1b>
    b9c0:	22 23       	and	r18, r18
    b9c2:	19 f0       	breq	.+6      	; 0xb9ca <moveplayer+0x24c>
    b9c4:	2f 5f       	subi	r18, 0xFF	; 255
    b9c6:	20 93 80 09 	sts	0x0980, r18	; 0x800980 <player+0x1b>
if (player.aniframe>24) player.aniframe = 1;
    b9ca:	20 91 80 09 	lds	r18, 0x0980	; 0x800980 <player+0x1b>
    b9ce:	29 31       	cpi	r18, 0x19	; 25
    b9d0:	18 f0       	brcs	.+6      	; 0xb9d8 <moveplayer+0x25a>
    b9d2:	21 e0       	ldi	r18, 0x01	; 1
    b9d4:	20 93 80 09 	sts	0x0980, r18	; 0x800980 <player+0x1b>
if(checkBanana(player.x + 4, player.y ,1) == 1)
    b9d8:	41 e0       	ldi	r20, 0x01	; 1
    b9da:	50 e0       	ldi	r21, 0x00	; 0
    b9dc:	04 96       	adiw	r24, 0x04	; 4
    b9de:	0e 94 34 52 	call	0xa468	; 0xa468 <checkBanana>
    b9e2:	01 97       	sbiw	r24, 0x01	; 1
    b9e4:	19 f4       	brne	.+6      	; 0xb9ec <moveplayer+0x26e>
{
    player.stuck = true;
    b9e6:	81 e0       	ldi	r24, 0x01	; 1
    b9e8:	80 93 6f 09 	sts	0x096F, r24	; 0x80096f <player+0xa>
} 
if(player.bananaBool == true)
    b9ec:	80 91 7d 09 	lds	r24, 0x097D	; 0x80097d <player+0x18>
    b9f0:	88 23       	and	r24, r24
    b9f2:	79 f0       	breq	.+30     	; 0xba12 <moveplayer+0x294>
{
makeBanana2(player.x + 4, player.y,1);
    b9f4:	60 91 67 09 	lds	r22, 0x0967	; 0x800967 <player+0x2>
    b9f8:	70 91 68 09 	lds	r23, 0x0968	; 0x800968 <player+0x3>
    b9fc:	80 91 65 09 	lds	r24, 0x0965	; 0x800965 <player>
    ba00:	90 91 66 09 	lds	r25, 0x0966	; 0x800966 <player+0x1>
    ba04:	41 e0       	ldi	r20, 0x01	; 1
    ba06:	50 e0       	ldi	r21, 0x00	; 0
    ba08:	04 96       	adiw	r24, 0x04	; 4
    ba0a:	0e 94 d6 51 	call	0xa3ac	; 0xa3ac <makeBanana2>
player.bananaBool = false;
    ba0e:	10 92 7d 09 	sts	0x097D, r1	; 0x80097d <player+0x18>
}
checkcollide( player.x, player.y - 4 ,1);
    ba12:	60 91 67 09 	lds	r22, 0x0967	; 0x800967 <player+0x2>
    ba16:	70 91 68 09 	lds	r23, 0x0968	; 0x800968 <player+0x3>
    ba1a:	64 50       	subi	r22, 0x04	; 4
    ba1c:	71 09       	sbc	r23, r1
    ba1e:	41 e0       	ldi	r20, 0x01	; 1
    ba20:	50 e0       	ldi	r21, 0x00	; 0
    ba22:	80 91 65 09 	lds	r24, 0x0965	; 0x800965 <player>
    ba26:	90 91 66 09 	lds	r25, 0x0966	; 0x800966 <player+0x1>
    ba2a:	0e 94 2e 53 	call	0xa65c	; 0xa65c <checkcollide>
checkcollide( player.x -3, player.y - 4 ,3);
    ba2e:	60 91 67 09 	lds	r22, 0x0967	; 0x800967 <player+0x2>
    ba32:	70 91 68 09 	lds	r23, 0x0968	; 0x800968 <player+0x3>
    ba36:	64 50       	subi	r22, 0x04	; 4
    ba38:	71 09       	sbc	r23, r1
    ba3a:	80 91 65 09 	lds	r24, 0x0965	; 0x800965 <player>
    ba3e:	90 91 66 09 	lds	r25, 0x0966	; 0x800966 <player+0x1>
    ba42:	43 e0       	ldi	r20, 0x03	; 3
    ba44:	50 e0       	ldi	r21, 0x00	; 0
    ba46:	03 97       	sbiw	r24, 0x03	; 3
    ba48:	0e 94 2e 53 	call	0xa65c	; 0xa65c <checkcollide>
checkcollide( player.x +4, player.y - 4 ,3);
    ba4c:	60 91 67 09 	lds	r22, 0x0967	; 0x800967 <player+0x2>
    ba50:	70 91 68 09 	lds	r23, 0x0968	; 0x800968 <player+0x3>
    ba54:	64 50       	subi	r22, 0x04	; 4
    ba56:	71 09       	sbc	r23, r1
    ba58:	80 91 65 09 	lds	r24, 0x0965	; 0x800965 <player>
    ba5c:	90 91 66 09 	lds	r25, 0x0966	; 0x800966 <player+0x1>
    ba60:	43 e0       	ldi	r20, 0x03	; 3
    ba62:	50 e0       	ldi	r21, 0x00	; 0
    ba64:	04 96       	adiw	r24, 0x04	; 4
    ba66:	0e 94 2e 53 	call	0xa65c	; 0xa65c <checkcollide>

if (player.y < oldy ) checkcollide( player.x, player.y - 22 ,2);
    ba6a:	60 91 67 09 	lds	r22, 0x0967	; 0x800967 <player+0x2>
    ba6e:	70 91 68 09 	lds	r23, 0x0968	; 0x800968 <player+0x3>
    ba72:	80 91 a0 0a 	lds	r24, 0x0AA0	; 0x800aa0 <oldy>
    ba76:	90 91 a1 0a 	lds	r25, 0x0AA1	; 0x800aa1 <oldy+0x1>
    ba7a:	68 17       	cp	r22, r24
    ba7c:	79 07       	cpc	r23, r25
    ba7e:	54 f4       	brge	.+20     	; 0xba94 <moveplayer+0x316>
    ba80:	66 51       	subi	r22, 0x16	; 22
    ba82:	71 09       	sbc	r23, r1
    ba84:	42 e0       	ldi	r20, 0x02	; 2
    ba86:	50 e0       	ldi	r21, 0x00	; 0
    ba88:	80 91 65 09 	lds	r24, 0x0965	; 0x800965 <player>
    ba8c:	90 91 66 09 	lds	r25, 0x0966	; 0x800966 <player+0x1>
    ba90:	0e 94 2e 53 	call	0xa65c	; 0xa65c <checkcollide>
if (player.y > oldy )  player.touchground = false; 
    ba94:	60 91 67 09 	lds	r22, 0x0967	; 0x800967 <player+0x2>
    ba98:	70 91 68 09 	lds	r23, 0x0968	; 0x800968 <player+0x3>
    ba9c:	80 91 a0 0a 	lds	r24, 0x0AA0	; 0x800aa0 <oldy>
    baa0:	90 91 a1 0a 	lds	r25, 0x0AA1	; 0x800aa1 <oldy+0x1>
    baa4:	86 17       	cp	r24, r22
    baa6:	97 07       	cpc	r25, r23
    baa8:	8c f5       	brge	.+98     	; 0xbb0c <moveplayer+0x38e>
    baaa:	10 92 76 09 	sts	0x0976, r1	; 0x800976 <player+0x11>
if (player.y > oldy ) if (checkcollide( player.x - 3 , player.y,     0 )&1 || checkcollide( player.x + 4 , player.y     ,0 )&1) { player.y = ( player.y / 16 ) * 16 - 1;player.jumping = false; player.touchground = true;player.action = 'w' ;};
    baae:	80 91 65 09 	lds	r24, 0x0965	; 0x800965 <player>
    bab2:	90 91 66 09 	lds	r25, 0x0966	; 0x800966 <player+0x1>
    bab6:	40 e0       	ldi	r20, 0x00	; 0
    bab8:	50 e0       	ldi	r21, 0x00	; 0
    baba:	03 97       	sbiw	r24, 0x03	; 3
    babc:	0e 94 2e 53 	call	0xa65c	; 0xa65c <checkcollide>
    bac0:	80 ff       	sbrs	r24, 0
    bac2:	15 c0       	rjmp	.+42     	; 0xbaee <moveplayer+0x370>
    bac4:	80 91 67 09 	lds	r24, 0x0967	; 0x800967 <player+0x2>
    bac8:	90 91 68 09 	lds	r25, 0x0968	; 0x800968 <player+0x3>
    bacc:	97 fd       	sbrc	r25, 7
    bace:	0f 96       	adiw	r24, 0x0f	; 15
    bad0:	80 7f       	andi	r24, 0xF0	; 240
    bad2:	01 97       	sbiw	r24, 0x01	; 1
    bad4:	90 93 68 09 	sts	0x0968, r25	; 0x800968 <player+0x3>
    bad8:	80 93 67 09 	sts	0x0967, r24	; 0x800967 <player+0x2>
    badc:	10 92 79 09 	sts	0x0979, r1	; 0x800979 <player+0x14>
    bae0:	81 e0       	ldi	r24, 0x01	; 1
    bae2:	80 93 76 09 	sts	0x0976, r24	; 0x800976 <player+0x11>
    bae6:	87 e7       	ldi	r24, 0x77	; 119
    bae8:	80 93 72 09 	sts	0x0972, r24	; 0x800972 <player+0xd>
    baec:	0f c0       	rjmp	.+30     	; 0xbb0c <moveplayer+0x38e>
    baee:	60 91 67 09 	lds	r22, 0x0967	; 0x800967 <player+0x2>
    baf2:	70 91 68 09 	lds	r23, 0x0968	; 0x800968 <player+0x3>
    baf6:	80 91 65 09 	lds	r24, 0x0965	; 0x800965 <player>
    bafa:	90 91 66 09 	lds	r25, 0x0966	; 0x800966 <player+0x1>
    bafe:	40 e0       	ldi	r20, 0x00	; 0
    bb00:	50 e0       	ldi	r21, 0x00	; 0
    bb02:	04 96       	adiw	r24, 0x04	; 4
    bb04:	0e 94 2e 53 	call	0xa65c	; 0xa65c <checkcollide>
    bb08:	80 fd       	sbrc	r24, 0
    bb0a:	dc cf       	rjmp	.-72     	; 0xbac4 <moveplayer+0x346>
if (player.y < oldy ) if (checkcollide( player.x - 3 , player.y -21, 0 )&1 || checkcollide( player.x + 4 , player.y - 21,0 )&1)  { player.y = oldy;player.jumpcounter = 0;
    bb0c:	60 91 67 09 	lds	r22, 0x0967	; 0x800967 <player+0x2>
    bb10:	70 91 68 09 	lds	r23, 0x0968	; 0x800968 <player+0x3>
    bb14:	80 91 a0 0a 	lds	r24, 0x0AA0	; 0x800aa0 <oldy>
    bb18:	90 91 a1 0a 	lds	r25, 0x0AA1	; 0x800aa1 <oldy+0x1>
    bb1c:	68 17       	cp	r22, r24
    bb1e:	79 07       	cpc	r23, r25
    bb20:	74 f5       	brge	.+92     	; 0xbb7e <moveplayer+0x400>
    bb22:	65 51       	subi	r22, 0x15	; 21
    bb24:	71 09       	sbc	r23, r1
    bb26:	80 91 65 09 	lds	r24, 0x0965	; 0x800965 <player>
    bb2a:	90 91 66 09 	lds	r25, 0x0966	; 0x800966 <player+0x1>
    bb2e:	40 e0       	ldi	r20, 0x00	; 0
    bb30:	50 e0       	ldi	r21, 0x00	; 0
    bb32:	03 97       	sbiw	r24, 0x03	; 3
    bb34:	0e 94 2e 53 	call	0xa65c	; 0xa65c <checkcollide>
    bb38:	80 ff       	sbrs	r24, 0
    bb3a:	10 c0       	rjmp	.+32     	; 0xbb5c <moveplayer+0x3de>
    bb3c:	80 91 a0 0a 	lds	r24, 0x0AA0	; 0x800aa0 <oldy>
    bb40:	90 91 a1 0a 	lds	r25, 0x0AA1	; 0x800aa1 <oldy+0x1>
    bb44:	90 93 68 09 	sts	0x0968, r25	; 0x800968 <player+0x3>
    bb48:	80 93 67 09 	sts	0x0967, r24	; 0x800967 <player+0x2>
    bb4c:	10 92 7f 09 	sts	0x097F, r1	; 0x80097f <player+0x1a>
                                                                                                                                  TriggerFx(5,0xff,true);
    bb50:	41 e0       	ldi	r20, 0x01	; 1
    bb52:	6f ef       	ldi	r22, 0xFF	; 255
    bb54:	85 e0       	ldi	r24, 0x05	; 5
    bb56:	0e 94 c1 43 	call	0x8782	; 0x8782 <TriggerFx>
    bb5a:	11 c0       	rjmp	.+34     	; 0xbb7e <moveplayer+0x400>
checkcollide( player.x +4, player.y - 4 ,3);

if (player.y < oldy ) checkcollide( player.x, player.y - 22 ,2);
if (player.y > oldy )  player.touchground = false; 
if (player.y > oldy ) if (checkcollide( player.x - 3 , player.y,     0 )&1 || checkcollide( player.x + 4 , player.y     ,0 )&1) { player.y = ( player.y / 16 ) * 16 - 1;player.jumping = false; player.touchground = true;player.action = 'w' ;};
if (player.y < oldy ) if (checkcollide( player.x - 3 , player.y -21, 0 )&1 || checkcollide( player.x + 4 , player.y - 21,0 )&1)  { player.y = oldy;player.jumpcounter = 0;
    bb5c:	60 91 67 09 	lds	r22, 0x0967	; 0x800967 <player+0x2>
    bb60:	70 91 68 09 	lds	r23, 0x0968	; 0x800968 <player+0x3>
    bb64:	65 51       	subi	r22, 0x15	; 21
    bb66:	71 09       	sbc	r23, r1
    bb68:	80 91 65 09 	lds	r24, 0x0965	; 0x800965 <player>
    bb6c:	90 91 66 09 	lds	r25, 0x0966	; 0x800966 <player+0x1>
    bb70:	40 e0       	ldi	r20, 0x00	; 0
    bb72:	50 e0       	ldi	r21, 0x00	; 0
    bb74:	04 96       	adiw	r24, 0x04	; 4
    bb76:	0e 94 2e 53 	call	0xa65c	; 0xa65c <checkcollide>
    bb7a:	80 fd       	sbrc	r24, 0
    bb7c:	df cf       	rjmp	.-66     	; 0xbb3c <moveplayer+0x3be>
                                                                                                                                  TriggerFx(5,0xff,true);
                                                                                                                                 };    
if (player.x > oldx ) if (checkcollide( player.x + 5 , player.y - 3 ,0 )&1 || checkcollide( player.x + 5 , player.y - 20,0 )&1)  player.x = oldx;  
    bb7e:	80 91 65 09 	lds	r24, 0x0965	; 0x800965 <player>
    bb82:	90 91 66 09 	lds	r25, 0x0966	; 0x800966 <player+0x1>
    bb86:	20 91 db 09 	lds	r18, 0x09DB	; 0x8009db <oldx>
    bb8a:	30 91 dc 09 	lds	r19, 0x09DC	; 0x8009dc <oldx+0x1>
    bb8e:	28 17       	cp	r18, r24
    bb90:	39 07       	cpc	r19, r25
    bb92:	3c f5       	brge	.+78     	; 0xbbe2 <moveplayer+0x464>
    bb94:	60 91 67 09 	lds	r22, 0x0967	; 0x800967 <player+0x2>
    bb98:	70 91 68 09 	lds	r23, 0x0968	; 0x800968 <player+0x3>
    bb9c:	63 50       	subi	r22, 0x03	; 3
    bb9e:	71 09       	sbc	r23, r1
    bba0:	40 e0       	ldi	r20, 0x00	; 0
    bba2:	50 e0       	ldi	r21, 0x00	; 0
    bba4:	05 96       	adiw	r24, 0x05	; 5
    bba6:	0e 94 2e 53 	call	0xa65c	; 0xa65c <checkcollide>
    bbaa:	80 ff       	sbrs	r24, 0
    bbac:	09 c0       	rjmp	.+18     	; 0xbbc0 <moveplayer+0x442>
    bbae:	80 91 db 09 	lds	r24, 0x09DB	; 0x8009db <oldx>
    bbb2:	90 91 dc 09 	lds	r25, 0x09DC	; 0x8009dc <oldx+0x1>
    bbb6:	90 93 66 09 	sts	0x0966, r25	; 0x800966 <player+0x1>
    bbba:	80 93 65 09 	sts	0x0965, r24	; 0x800965 <player>
    bbbe:	11 c0       	rjmp	.+34     	; 0xbbe2 <moveplayer+0x464>
    bbc0:	60 91 67 09 	lds	r22, 0x0967	; 0x800967 <player+0x2>
    bbc4:	70 91 68 09 	lds	r23, 0x0968	; 0x800968 <player+0x3>
    bbc8:	64 51       	subi	r22, 0x14	; 20
    bbca:	71 09       	sbc	r23, r1
    bbcc:	80 91 65 09 	lds	r24, 0x0965	; 0x800965 <player>
    bbd0:	90 91 66 09 	lds	r25, 0x0966	; 0x800966 <player+0x1>
    bbd4:	40 e0       	ldi	r20, 0x00	; 0
    bbd6:	50 e0       	ldi	r21, 0x00	; 0
    bbd8:	05 96       	adiw	r24, 0x05	; 5
    bbda:	0e 94 2e 53 	call	0xa65c	; 0xa65c <checkcollide>
    bbde:	80 fd       	sbrc	r24, 0
    bbe0:	e6 cf       	rjmp	.-52     	; 0xbbae <moveplayer+0x430>
if (player.x < oldx ) if (checkcollide( player.x - 4 , player.y - 3 ,0 )&1 || checkcollide( player.x - 4 , player.y - 20,0 )&1)  player.x = oldx; 
    bbe2:	80 91 65 09 	lds	r24, 0x0965	; 0x800965 <player>
    bbe6:	90 91 66 09 	lds	r25, 0x0966	; 0x800966 <player+0x1>
    bbea:	20 91 db 09 	lds	r18, 0x09DB	; 0x8009db <oldx>
    bbee:	30 91 dc 09 	lds	r19, 0x09DC	; 0x8009dc <oldx+0x1>
    bbf2:	82 17       	cp	r24, r18
    bbf4:	93 07       	cpc	r25, r19
    bbf6:	3c f5       	brge	.+78     	; 0xbc46 <moveplayer+0x4c8>
    bbf8:	60 91 67 09 	lds	r22, 0x0967	; 0x800967 <player+0x2>
    bbfc:	70 91 68 09 	lds	r23, 0x0968	; 0x800968 <player+0x3>
    bc00:	63 50       	subi	r22, 0x03	; 3
    bc02:	71 09       	sbc	r23, r1
    bc04:	40 e0       	ldi	r20, 0x00	; 0
    bc06:	50 e0       	ldi	r21, 0x00	; 0
    bc08:	04 97       	sbiw	r24, 0x04	; 4
    bc0a:	0e 94 2e 53 	call	0xa65c	; 0xa65c <checkcollide>
    bc0e:	80 ff       	sbrs	r24, 0
    bc10:	09 c0       	rjmp	.+18     	; 0xbc24 <moveplayer+0x4a6>
    bc12:	80 91 db 09 	lds	r24, 0x09DB	; 0x8009db <oldx>
    bc16:	90 91 dc 09 	lds	r25, 0x09DC	; 0x8009dc <oldx+0x1>
    bc1a:	90 93 66 09 	sts	0x0966, r25	; 0x800966 <player+0x1>
    bc1e:	80 93 65 09 	sts	0x0965, r24	; 0x800965 <player>
    bc22:	11 c0       	rjmp	.+34     	; 0xbc46 <moveplayer+0x4c8>
    bc24:	60 91 67 09 	lds	r22, 0x0967	; 0x800967 <player+0x2>
    bc28:	70 91 68 09 	lds	r23, 0x0968	; 0x800968 <player+0x3>
    bc2c:	64 51       	subi	r22, 0x14	; 20
    bc2e:	71 09       	sbc	r23, r1
    bc30:	80 91 65 09 	lds	r24, 0x0965	; 0x800965 <player>
    bc34:	90 91 66 09 	lds	r25, 0x0966	; 0x800966 <player+0x1>
    bc38:	40 e0       	ldi	r20, 0x00	; 0
    bc3a:	50 e0       	ldi	r21, 0x00	; 0
    bc3c:	04 97       	sbiw	r24, 0x04	; 4
    bc3e:	0e 94 2e 53 	call	0xa65c	; 0xa65c <checkcollide>
    bc42:	80 fd       	sbrc	r24, 0
    bc44:	e6 cf       	rjmp	.-52     	; 0xbc12 <moveplayer+0x494>
//if (player.y > oldy )   checkmonster(player.x + 4, player.y ,1 );
//if (player.y > oldy )   checkmonster(player.x - 4, player.y ,1 );
//if (player.y > oldy )   checkmonster(player.x , player.y ,1 );
if(player.killer == true)
    bc46:	20 91 7e 09 	lds	r18, 0x097E	; 0x80097e <player+0x19>
    bc4a:	80 91 65 09 	lds	r24, 0x0965	; 0x800965 <player>
    bc4e:	90 91 66 09 	lds	r25, 0x0966	; 0x800966 <player+0x1>
    bc52:	60 91 67 09 	lds	r22, 0x0967	; 0x800967 <player+0x2>
    bc56:	70 91 68 09 	lds	r23, 0x0968	; 0x800968 <player+0x3>
{
checkmonster(player.x +4, player.y -3,1 );
    bc5a:	63 50       	subi	r22, 0x03	; 3
    bc5c:	71 09       	sbc	r23, r1
if (player.x > oldx ) if (checkcollide( player.x + 5 , player.y - 3 ,0 )&1 || checkcollide( player.x + 5 , player.y - 20,0 )&1)  player.x = oldx;  
if (player.x < oldx ) if (checkcollide( player.x - 4 , player.y - 3 ,0 )&1 || checkcollide( player.x - 4 , player.y - 20,0 )&1)  player.x = oldx; 
//if (player.y > oldy )   checkmonster(player.x + 4, player.y ,1 );
//if (player.y > oldy )   checkmonster(player.x - 4, player.y ,1 );
//if (player.y > oldy )   checkmonster(player.x , player.y ,1 );
if(player.killer == true)
    bc5e:	22 23       	and	r18, r18
    bc60:	d9 f1       	breq	.+118    	; 0xbcd8 <moveplayer+0x55a>
{
checkmonster(player.x +4, player.y -3,1 );
    bc62:	41 e0       	ldi	r20, 0x01	; 1
    bc64:	50 e0       	ldi	r21, 0x00	; 0
    bc66:	04 96       	adiw	r24, 0x04	; 4
    bc68:	0e 94 ea 5a 	call	0xb5d4	; 0xb5d4 <checkmonster>
checkmonster(player.x +4, player.y -19,1 );
    bc6c:	60 91 67 09 	lds	r22, 0x0967	; 0x800967 <player+0x2>
    bc70:	70 91 68 09 	lds	r23, 0x0968	; 0x800968 <player+0x3>
    bc74:	63 51       	subi	r22, 0x13	; 19
    bc76:	71 09       	sbc	r23, r1
    bc78:	80 91 65 09 	lds	r24, 0x0965	; 0x800965 <player>
    bc7c:	90 91 66 09 	lds	r25, 0x0966	; 0x800966 <player+0x1>
    bc80:	41 e0       	ldi	r20, 0x01	; 1
    bc82:	50 e0       	ldi	r21, 0x00	; 0
    bc84:	04 96       	adiw	r24, 0x04	; 4
    bc86:	0e 94 ea 5a 	call	0xb5d4	; 0xb5d4 <checkmonster>
checkmonster(player.x -3, player.y -3 ,1);
    bc8a:	60 91 67 09 	lds	r22, 0x0967	; 0x800967 <player+0x2>
    bc8e:	70 91 68 09 	lds	r23, 0x0968	; 0x800968 <player+0x3>
    bc92:	63 50       	subi	r22, 0x03	; 3
    bc94:	71 09       	sbc	r23, r1
    bc96:	80 91 65 09 	lds	r24, 0x0965	; 0x800965 <player>
    bc9a:	90 91 66 09 	lds	r25, 0x0966	; 0x800966 <player+0x1>
    bc9e:	41 e0       	ldi	r20, 0x01	; 1
    bca0:	50 e0       	ldi	r21, 0x00	; 0
    bca2:	03 97       	sbiw	r24, 0x03	; 3
    bca4:	0e 94 ea 5a 	call	0xb5d4	; 0xb5d4 <checkmonster>
checkmonster(player.x -3, player.y -19 ,1);  
    bca8:	60 91 67 09 	lds	r22, 0x0967	; 0x800967 <player+0x2>
    bcac:	70 91 68 09 	lds	r23, 0x0968	; 0x800968 <player+0x3>
    bcb0:	63 51       	subi	r22, 0x13	; 19
    bcb2:	71 09       	sbc	r23, r1
    bcb4:	80 91 65 09 	lds	r24, 0x0965	; 0x800965 <player>
    bcb8:	90 91 66 09 	lds	r25, 0x0966	; 0x800966 <player+0x1>
    bcbc:	41 e0       	ldi	r20, 0x01	; 1
    bcbe:	50 e0       	ldi	r21, 0x00	; 0
    bcc0:	03 97       	sbiw	r24, 0x03	; 3
    bcc2:	0e 94 ea 5a 	call	0xb5d4	; 0xb5d4 <checkmonster>
checkmonster(player.x , player.y -22 ,1);
    bcc6:	60 91 67 09 	lds	r22, 0x0967	; 0x800967 <player+0x2>
    bcca:	70 91 68 09 	lds	r23, 0x0968	; 0x800968 <player+0x3>
    bcce:	66 51       	subi	r22, 0x16	; 22
    bcd0:	71 09       	sbc	r23, r1
    bcd2:	41 e0       	ldi	r20, 0x01	; 1
    bcd4:	50 e0       	ldi	r21, 0x00	; 0
    bcd6:	3a c0       	rjmp	.+116    	; 0xbd4c <moveplayer+0x5ce>
checkplayer(player.x,player.y);
}
else{
    checkmonster(player.x +4, player.y -3,0 );
    bcd8:	40 e0       	ldi	r20, 0x00	; 0
    bcda:	50 e0       	ldi	r21, 0x00	; 0
    bcdc:	04 96       	adiw	r24, 0x04	; 4
    bcde:	0e 94 ea 5a 	call	0xb5d4	; 0xb5d4 <checkmonster>
    checkmonster(player.x +4, player.y -19,0 );
    bce2:	60 91 67 09 	lds	r22, 0x0967	; 0x800967 <player+0x2>
    bce6:	70 91 68 09 	lds	r23, 0x0968	; 0x800968 <player+0x3>
    bcea:	63 51       	subi	r22, 0x13	; 19
    bcec:	71 09       	sbc	r23, r1
    bcee:	80 91 65 09 	lds	r24, 0x0965	; 0x800965 <player>
    bcf2:	90 91 66 09 	lds	r25, 0x0966	; 0x800966 <player+0x1>
    bcf6:	40 e0       	ldi	r20, 0x00	; 0
    bcf8:	50 e0       	ldi	r21, 0x00	; 0
    bcfa:	04 96       	adiw	r24, 0x04	; 4
    bcfc:	0e 94 ea 5a 	call	0xb5d4	; 0xb5d4 <checkmonster>
    checkmonster(player.x -3, player.y -3 ,0);
    bd00:	60 91 67 09 	lds	r22, 0x0967	; 0x800967 <player+0x2>
    bd04:	70 91 68 09 	lds	r23, 0x0968	; 0x800968 <player+0x3>
    bd08:	63 50       	subi	r22, 0x03	; 3
    bd0a:	71 09       	sbc	r23, r1
    bd0c:	80 91 65 09 	lds	r24, 0x0965	; 0x800965 <player>
    bd10:	90 91 66 09 	lds	r25, 0x0966	; 0x800966 <player+0x1>
    bd14:	40 e0       	ldi	r20, 0x00	; 0
    bd16:	50 e0       	ldi	r21, 0x00	; 0
    bd18:	03 97       	sbiw	r24, 0x03	; 3
    bd1a:	0e 94 ea 5a 	call	0xb5d4	; 0xb5d4 <checkmonster>
    checkmonster(player.x -3, player.y -19 ,0);  
    bd1e:	60 91 67 09 	lds	r22, 0x0967	; 0x800967 <player+0x2>
    bd22:	70 91 68 09 	lds	r23, 0x0968	; 0x800968 <player+0x3>
    bd26:	63 51       	subi	r22, 0x13	; 19
    bd28:	71 09       	sbc	r23, r1
    bd2a:	80 91 65 09 	lds	r24, 0x0965	; 0x800965 <player>
    bd2e:	90 91 66 09 	lds	r25, 0x0966	; 0x800966 <player+0x1>
    bd32:	40 e0       	ldi	r20, 0x00	; 0
    bd34:	50 e0       	ldi	r21, 0x00	; 0
    bd36:	03 97       	sbiw	r24, 0x03	; 3
    bd38:	0e 94 ea 5a 	call	0xb5d4	; 0xb5d4 <checkmonster>
    checkmonster(player.x , player.y -22 ,0);
    bd3c:	60 91 67 09 	lds	r22, 0x0967	; 0x800967 <player+0x2>
    bd40:	70 91 68 09 	lds	r23, 0x0968	; 0x800968 <player+0x3>
    bd44:	66 51       	subi	r22, 0x16	; 22
    bd46:	71 09       	sbc	r23, r1
    bd48:	40 e0       	ldi	r20, 0x00	; 0
    bd4a:	50 e0       	ldi	r21, 0x00	; 0
    bd4c:	80 91 65 09 	lds	r24, 0x0965	; 0x800965 <player>
    bd50:	90 91 66 09 	lds	r25, 0x0966	; 0x800966 <player+0x1>
    bd54:	0e 94 ea 5a 	call	0xb5d4	; 0xb5d4 <checkmonster>
    checkplayer(player.x,player.y);
    bd58:	60 91 67 09 	lds	r22, 0x0967	; 0x800967 <player+0x2>
    bd5c:	70 91 68 09 	lds	r23, 0x0968	; 0x800968 <player+0x3>
    bd60:	80 91 65 09 	lds	r24, 0x0965	; 0x800965 <player>
    bd64:	90 91 66 09 	lds	r25, 0x0966	; 0x800966 <player+0x1>
    bd68:	0e 94 b3 5a 	call	0xb566	; 0xb566 <checkplayer>
}
//if (player.y > oldy )   checkmonster(player.x + 4, player.y ,0 );
player.ximpulse = 0;    
    bd6c:	10 92 77 09 	sts	0x0977, r1	; 0x800977 <player+0x12>
player.yimpulse = 0;
    bd70:	10 92 78 09 	sts	0x0978, r1	; 0x800978 <player+0x13>
if ( player.x < 8 ) player.x = player2.x - 30;   // Increase time penalty herer
    bd74:	80 91 65 09 	lds	r24, 0x0965	; 0x800965 <player>
    bd78:	90 91 66 09 	lds	r25, 0x0966	; 0x800966 <player+0x1>
    bd7c:	08 97       	sbiw	r24, 0x08	; 8
    bd7e:	4c f4       	brge	.+18     	; 0xbd92 <moveplayer+0x614>
    bd80:	80 91 35 0a 	lds	r24, 0x0A35	; 0x800a35 <player2>
    bd84:	90 91 36 0a 	lds	r25, 0x0A36	; 0x800a36 <player2+0x1>
    bd88:	4e 97       	sbiw	r24, 0x1e	; 30
    bd8a:	90 93 66 09 	sts	0x0966, r25	; 0x800966 <player+0x1>
    bd8e:	80 93 65 09 	sts	0x0965, r24	; 0x800965 <player>
if ( player.x > 232 ) player.x = player2.x - 30;    
    bd92:	80 91 65 09 	lds	r24, 0x0965	; 0x800965 <player>
    bd96:	90 91 66 09 	lds	r25, 0x0966	; 0x800966 <player+0x1>
    bd9a:	89 3e       	cpi	r24, 0xE9	; 233
    bd9c:	91 05       	cpc	r25, r1
    bd9e:	bc f0       	brlt	.+46     	; 0xbdce <moveplayer+0x650>
    bda0:	80 91 35 0a 	lds	r24, 0x0A35	; 0x800a35 <player2>
    bda4:	90 91 36 0a 	lds	r25, 0x0A36	; 0x800a36 <player2+0x1>
    bda8:	4e 97       	sbiw	r24, 0x1e	; 30
    bdaa:	90 93 66 09 	sts	0x0966, r25	; 0x800966 <player+0x1>
    bdae:	80 93 65 09 	sts	0x0965, r24	; 0x800965 <player>
    bdb2:	08 95       	ret
};
if ( !(joy&BTN_B) ) {
player.bpressed = false;
};
if ( joy&BTN_B && player.touchground) {
	if(bananaCount > 0 && player.bpressed == false)
    bdb4:	30 91 7b 09 	lds	r19, 0x097B	; 0x80097b <player+0x16>
    bdb8:	31 11       	cpse	r19, r1
    bdba:	51 cd       	rjmp	.-1374   	; 0xb85e <moveplayer+0xe0>
	{
	bananaCount = bananaCount - 1;
    bdbc:	21 50       	subi	r18, 0x01	; 1
    bdbe:	20 93 03 01 	sts	0x0103, r18	; 0x800103 <bananaCount>
    player.killer = true;
    bdc2:	21 e0       	ldi	r18, 0x01	; 1
    bdc4:	20 93 7e 09 	sts	0x097E, r18	; 0x80097e <player+0x19>
	player.bpressed = true;
    bdc8:	20 93 7b 09 	sts	0x097B, r18	; 0x80097b <player+0x16>
    bdcc:	48 cd       	rjmp	.-1392   	; 0xb85e <moveplayer+0xe0>
    bdce:	08 95       	ret

0000bdd0 <scrollmonster>:
}


void scrollmonster(int x)
{
if (owl.onscreen) owl.x2 =  owl.x2 + ( x << 2 );
    bdd0:	20 91 5b 0a 	lds	r18, 0x0A5B	; 0x800a5b <owl+0x9>
    bdd4:	22 23       	and	r18, r18
    bdd6:	79 f0       	breq	.+30     	; 0xbdf6 <scrollmonster+0x26>
    bdd8:	40 91 56 0a 	lds	r20, 0x0A56	; 0x800a56 <owl+0x4>
    bddc:	50 91 57 0a 	lds	r21, 0x0A57	; 0x800a57 <owl+0x5>
    bde0:	9c 01       	movw	r18, r24
    bde2:	22 0f       	add	r18, r18
    bde4:	33 1f       	adc	r19, r19
    bde6:	22 0f       	add	r18, r18
    bde8:	33 1f       	adc	r19, r19
    bdea:	24 0f       	add	r18, r20
    bdec:	35 1f       	adc	r19, r21
    bdee:	30 93 57 0a 	sts	0x0A57, r19	; 0x800a57 <owl+0x5>
    bdf2:	20 93 56 0a 	sts	0x0A56, r18	; 0x800a56 <owl+0x4>
if (blob.onscreen) blob.x2 =  blob.x2 + ( x << 2 );
    bdf6:	20 91 63 09 	lds	r18, 0x0963	; 0x800963 <blob+0x9>
    bdfa:	22 23       	and	r18, r18
    bdfc:	71 f0       	breq	.+28     	; 0xbe1a <scrollmonster+0x4a>
    bdfe:	88 0f       	add	r24, r24
    be00:	99 1f       	adc	r25, r25
    be02:	88 0f       	add	r24, r24
    be04:	99 1f       	adc	r25, r25
    be06:	20 91 5e 09 	lds	r18, 0x095E	; 0x80095e <blob+0x4>
    be0a:	30 91 5f 09 	lds	r19, 0x095F	; 0x80095f <blob+0x5>
    be0e:	82 0f       	add	r24, r18
    be10:	93 1f       	adc	r25, r19
    be12:	90 93 5f 09 	sts	0x095F, r25	; 0x80095f <blob+0x5>
    be16:	80 93 5e 09 	sts	0x095E, r24	; 0x80095e <blob+0x4>
    be1a:	08 95       	ret

0000be1c <setowl>:
}

void setowl(int x, int y )
{
if ( MonsteronScreen == true ) return;       
    be1c:	20 91 34 0a 	lds	r18, 0x0A34	; 0x800a34 <MonsteronScreen>
    be20:	21 11       	cpse	r18, r1
    be22:	38 c0       	rjmp	.+112    	; 0xbe94 <setowl+0x78>
if ( owl.onscreen == true ) return;    
    be24:	20 91 5b 0a 	lds	r18, 0x0A5B	; 0x800a5b <owl+0x9>
    be28:	21 11       	cpse	r18, r1
    be2a:	34 c0       	rjmp	.+104    	; 0xbe94 <setowl+0x78>
owl.x = x * 8;
    be2c:	33 e0       	ldi	r19, 0x03	; 3
    be2e:	88 0f       	add	r24, r24
    be30:	99 1f       	adc	r25, r25
    be32:	3a 95       	dec	r19
    be34:	e1 f7       	brne	.-8      	; 0xbe2e <setowl+0x12>
    be36:	90 93 53 0a 	sts	0x0A53, r25	; 0x800a53 <owl+0x1>
    be3a:	80 93 52 0a 	sts	0x0A52, r24	; 0x800a52 <owl>
if (scrolltiles > 0 )  owl.x = 15 * 16;
    be3e:	80 91 de 0a 	lds	r24, 0x0ADE	; 0x800ade <scrolltiles>
    be42:	88 23       	and	r24, r24
    be44:	31 f0       	breq	.+12     	; 0xbe52 <setowl+0x36>
    be46:	80 ef       	ldi	r24, 0xF0	; 240
    be48:	90 e0       	ldi	r25, 0x00	; 0
    be4a:	90 93 53 0a 	sts	0x0A53, r25	; 0x800a53 <owl+0x1>
    be4e:	80 93 52 0a 	sts	0x0A52, r24	; 0x800a52 <owl>
owl.y = y * 8;     
    be52:	83 e0       	ldi	r24, 0x03	; 3
    be54:	66 0f       	add	r22, r22
    be56:	77 1f       	adc	r23, r23
    be58:	8a 95       	dec	r24
    be5a:	e1 f7       	brne	.-8      	; 0xbe54 <setowl+0x38>
    be5c:	70 93 55 0a 	sts	0x0A55, r23	; 0x800a55 <owl+0x3>
    be60:	60 93 54 0a 	sts	0x0A54, r22	; 0x800a54 <owl+0x2>
owl.x2 = owl.x << 2;        
    be64:	80 91 52 0a 	lds	r24, 0x0A52	; 0x800a52 <owl>
    be68:	90 91 53 0a 	lds	r25, 0x0A53	; 0x800a53 <owl+0x1>
    be6c:	88 0f       	add	r24, r24
    be6e:	99 1f       	adc	r25, r25
    be70:	88 0f       	add	r24, r24
    be72:	99 1f       	adc	r25, r25
    be74:	90 93 57 0a 	sts	0x0A57, r25	; 0x800a57 <owl+0x5>
    be78:	80 93 56 0a 	sts	0x0A56, r24	; 0x800a56 <owl+0x4>
owl.ximpulse = -1;
    be7c:	8f ef       	ldi	r24, 0xFF	; 255
    be7e:	80 93 59 0a 	sts	0x0A59, r24	; 0x800a59 <owl+0x7>
owl.yimpulse = 0;    
    be82:	10 92 5a 0a 	sts	0x0A5A, r1	; 0x800a5a <owl+0x8>
owl.onscreen = true;
    be86:	81 e0       	ldi	r24, 0x01	; 1
    be88:	80 93 5b 0a 	sts	0x0A5B, r24	; 0x800a5b <owl+0x9>
owl.alive = true; 
    be8c:	80 93 5c 0a 	sts	0x0A5C, r24	; 0x800a5c <owl+0xa>
MonsteronScreen = true;     
    be90:	80 93 34 0a 	sts	0x0A34, r24	; 0x800a34 <MonsteronScreen>
    be94:	08 95       	ret

0000be96 <setblob>:
}

void setblob(int x, int y )
{
if ( MonsteronScreen == true ) return;    
    be96:	20 91 34 0a 	lds	r18, 0x0A34	; 0x800a34 <MonsteronScreen>
    be9a:	21 11       	cpse	r18, r1
    be9c:	38 c0       	rjmp	.+112    	; 0xbf0e <setblob+0x78>
if ( blob.onscreen == true ) return;    
    be9e:	20 91 63 09 	lds	r18, 0x0963	; 0x800963 <blob+0x9>
    bea2:	21 11       	cpse	r18, r1
    bea4:	34 c0       	rjmp	.+104    	; 0xbf0e <setblob+0x78>
blob.x = x * 8;
    bea6:	33 e0       	ldi	r19, 0x03	; 3
    bea8:	88 0f       	add	r24, r24
    beaa:	99 1f       	adc	r25, r25
    beac:	3a 95       	dec	r19
    beae:	e1 f7       	brne	.-8      	; 0xbea8 <setblob+0x12>
    beb0:	90 93 5b 09 	sts	0x095B, r25	; 0x80095b <blob+0x1>
    beb4:	80 93 5a 09 	sts	0x095A, r24	; 0x80095a <blob>
if (scrolltiles > 0 )  blob.x = 15 * 16;
    beb8:	80 91 de 0a 	lds	r24, 0x0ADE	; 0x800ade <scrolltiles>
    bebc:	88 23       	and	r24, r24
    bebe:	31 f0       	breq	.+12     	; 0xbecc <setblob+0x36>
    bec0:	80 ef       	ldi	r24, 0xF0	; 240
    bec2:	90 e0       	ldi	r25, 0x00	; 0
    bec4:	90 93 5b 09 	sts	0x095B, r25	; 0x80095b <blob+0x1>
    bec8:	80 93 5a 09 	sts	0x095A, r24	; 0x80095a <blob>
blob.y = y * 8;     
    becc:	83 e0       	ldi	r24, 0x03	; 3
    bece:	66 0f       	add	r22, r22
    bed0:	77 1f       	adc	r23, r23
    bed2:	8a 95       	dec	r24
    bed4:	e1 f7       	brne	.-8      	; 0xbece <setblob+0x38>
    bed6:	70 93 5d 09 	sts	0x095D, r23	; 0x80095d <blob+0x3>
    beda:	60 93 5c 09 	sts	0x095C, r22	; 0x80095c <blob+0x2>
blob.x2 = blob.x << 2;        
    bede:	80 91 5a 09 	lds	r24, 0x095A	; 0x80095a <blob>
    bee2:	90 91 5b 09 	lds	r25, 0x095B	; 0x80095b <blob+0x1>
    bee6:	88 0f       	add	r24, r24
    bee8:	99 1f       	adc	r25, r25
    beea:	88 0f       	add	r24, r24
    beec:	99 1f       	adc	r25, r25
    beee:	90 93 5f 09 	sts	0x095F, r25	; 0x80095f <blob+0x5>
    bef2:	80 93 5e 09 	sts	0x095E, r24	; 0x80095e <blob+0x4>
blob.ximpulse = -2;
    bef6:	8e ef       	ldi	r24, 0xFE	; 254
    bef8:	80 93 61 09 	sts	0x0961, r24	; 0x800961 <blob+0x7>
blob.yimpulse = 0;    
    befc:	10 92 62 09 	sts	0x0962, r1	; 0x800962 <blob+0x8>
blob.onscreen = true;
    bf00:	81 e0       	ldi	r24, 0x01	; 1
    bf02:	80 93 63 09 	sts	0x0963, r24	; 0x800963 <blob+0x9>
blob.alive = true;   
    bf06:	80 93 64 09 	sts	0x0964, r24	; 0x800964 <blob+0xa>
MonsteronScreen = true;    
    bf0a:	80 93 34 0a 	sts	0x0A34, r24	; 0x800a34 <MonsteronScreen>
    bf0e:	08 95       	ret

0000bf10 <drawlevel>:
                }
     		}
}

void drawlevel(int x)
{
    bf10:	6f 92       	push	r6
    bf12:	7f 92       	push	r7
    bf14:	8f 92       	push	r8
    bf16:	bf 92       	push	r11
    bf18:	cf 92       	push	r12
    bf1a:	df 92       	push	r13
    bf1c:	ef 92       	push	r14
    bf1e:	ff 92       	push	r15
    bf20:	0f 93       	push	r16
    bf22:	1f 93       	push	r17
    bf24:	cf 93       	push	r28
    bf26:	df 93       	push	r29
int ly;
char bl;
lx = Levelx;
lx = lx >> 4;

player.stuck = false;
    bf28:	10 92 6f 09 	sts	0x096F, r1	; 0x80096f <player+0xa>
player2.stuck = false;
    bf2c:	10 92 3f 0a 	sts	0x0A3F, r1	; 0x800a3f <player2+0xa>
player.sCount =0;
    bf30:	10 92 6e 09 	sts	0x096E, r1	; 0x80096e <player+0x9>
    bf34:	10 92 6d 09 	sts	0x096D, r1	; 0x80096d <player+0x8>
player2.sCount =0;
    bf38:	10 92 3e 0a 	sts	0x0A3E, r1	; 0x800a3e <player2+0x9>
    bf3c:	10 92 3d 0a 	sts	0x0A3D, r1	; 0x800a3d <player2+0x8>
    bf40:	01 e0       	ldi	r16, 0x01	; 1
    bf42:	e1 2c       	mov	r14, r1
    bf44:	f1 2c       	mov	r15, r1
int xi;
int yi;
char c;
int destx;

for (xi = 0; xi < 16; xi++)
    bf46:	c1 2c       	mov	r12, r1
    bf48:	d1 2c       	mov	r13, r1
if ( level == 7 )   c=pgm_read_byte(&(level7[(yi*levelwidth)+xi]));  
if ( level == 8 )   c=pgm_read_byte(&(level8[(yi*levelwidth)+xi]));  
if ( level == 9 )   c=pgm_read_byte(&(level9[(yi*levelwidth)+xi]));  
    destx = xi * 2;
    
    if ( c == 1 ) DrawMap2(destx  ,yi *2  ,ground);
    bf4a:	be 2c       	mov	r11, r14
    bf4c:	36 01       	movw	r6, r12
    bf4e:	c0 e0       	ldi	r28, 0x00	; 0
    bf50:	d0 e0       	ldi	r29, 0x00	; 0
for (xi = 0; xi < 16; xi++)
    {
    for (yi = 0; yi < 14; yi++)
    {
//if ( level == 0 )   c=pgm_read_byte(&(intro0[(yi*levelwidth)+xi+(Levelx)]));
if ( level == 0 )   c=pgm_read_byte(&(intro0[(yi*levelwidth)+xi]));
    bf52:	80 91 dd 09 	lds	r24, 0x09DD	; 0x8009dd <level>
    bf56:	81 11       	cpse	r24, r1
    bf58:	04 c0       	rjmp	.+8      	; 0xbf62 <drawlevel+0x52>
    bf5a:	f3 01       	movw	r30, r6
    bf5c:	e1 58       	subi	r30, 0x81	; 129
    bf5e:	fa 4c       	sbci	r31, 0xCA	; 202
    bf60:	35 c0       	rjmp	.+106    	; 0xbfcc <drawlevel+0xbc>
if ( level == 1 )   c=pgm_read_byte(&(level1[(yi*levelwidth)+xi]));
    bf62:	81 30       	cpi	r24, 0x01	; 1
    bf64:	21 f4       	brne	.+8      	; 0xbf6e <drawlevel+0x5e>
    bf66:	f3 01       	movw	r30, r6
    bf68:	ed 56       	subi	r30, 0x6D	; 109
    bf6a:	ff 4c       	sbci	r31, 0xCF	; 207
    bf6c:	2f c0       	rjmp	.+94     	; 0xbfcc <drawlevel+0xbc>
if ( level == 2 )   c=pgm_read_byte(&(level2[(yi*levelwidth)+xi]));
    bf6e:	82 30       	cpi	r24, 0x02	; 2
    bf70:	21 f4       	brne	.+8      	; 0xbf7a <drawlevel+0x6a>
    bf72:	f3 01       	movw	r30, r6
    bf74:	e9 55       	subi	r30, 0x59	; 89
    bf76:	f4 4d       	sbci	r31, 0xD4	; 212
    bf78:	29 c0       	rjmp	.+82     	; 0xbfcc <drawlevel+0xbc>
if ( level == 3 )   c=pgm_read_byte(&(level3[(yi*levelwidth)+xi]));
    bf7a:	83 30       	cpi	r24, 0x03	; 3
    bf7c:	21 f4       	brne	.+8      	; 0xbf86 <drawlevel+0x76>
    bf7e:	f3 01       	movw	r30, r6
    bf80:	e5 54       	subi	r30, 0x45	; 69
    bf82:	f9 4d       	sbci	r31, 0xD9	; 217
    bf84:	23 c0       	rjmp	.+70     	; 0xbfcc <drawlevel+0xbc>
if ( level == 4 )   c=pgm_read_byte(&(level4[(yi*levelwidth)+xi]));
    bf86:	84 30       	cpi	r24, 0x04	; 4
    bf88:	21 f4       	brne	.+8      	; 0xbf92 <drawlevel+0x82>
    bf8a:	f3 01       	movw	r30, r6
    bf8c:	e1 53       	subi	r30, 0x31	; 49
    bf8e:	fe 4d       	sbci	r31, 0xDE	; 222
    bf90:	1d c0       	rjmp	.+58     	; 0xbfcc <drawlevel+0xbc>
if ( level == 5 )   c=pgm_read_byte(&(level5[(yi*levelwidth)+xi]));
    bf92:	85 30       	cpi	r24, 0x05	; 5
    bf94:	21 f4       	brne	.+8      	; 0xbf9e <drawlevel+0x8e>
    bf96:	f3 01       	movw	r30, r6
    bf98:	ed 51       	subi	r30, 0x1D	; 29
    bf9a:	f3 4e       	sbci	r31, 0xE3	; 227
    bf9c:	17 c0       	rjmp	.+46     	; 0xbfcc <drawlevel+0xbc>
if ( level == 6 )   c=pgm_read_byte(&(level6[(yi*levelwidth)+xi]));    
    bf9e:	86 30       	cpi	r24, 0x06	; 6
    bfa0:	21 f4       	brne	.+8      	; 0xbfaa <drawlevel+0x9a>
    bfa2:	f3 01       	movw	r30, r6
    bfa4:	e9 50       	subi	r30, 0x09	; 9
    bfa6:	f8 4e       	sbci	r31, 0xE8	; 232
    bfa8:	11 c0       	rjmp	.+34     	; 0xbfcc <drawlevel+0xbc>
if ( level == 7 )   c=pgm_read_byte(&(level7[(yi*levelwidth)+xi]));  
    bfaa:	87 30       	cpi	r24, 0x07	; 7
    bfac:	21 f4       	brne	.+8      	; 0xbfb6 <drawlevel+0xa6>
    bfae:	f3 01       	movw	r30, r6
    bfb0:	e5 5f       	subi	r30, 0xF5	; 245
    bfb2:	fc 4e       	sbci	r31, 0xEC	; 236
    bfb4:	0b c0       	rjmp	.+22     	; 0xbfcc <drawlevel+0xbc>
if ( level == 8 )   c=pgm_read_byte(&(level8[(yi*levelwidth)+xi]));  
    bfb6:	88 30       	cpi	r24, 0x08	; 8
    bfb8:	21 f4       	brne	.+8      	; 0xbfc2 <drawlevel+0xb2>
    bfba:	f3 01       	movw	r30, r6
    bfbc:	e1 5e       	subi	r30, 0xE1	; 225
    bfbe:	f1 4f       	sbci	r31, 0xF1	; 241
    bfc0:	05 c0       	rjmp	.+10     	; 0xbfcc <drawlevel+0xbc>
if ( level == 9 )   c=pgm_read_byte(&(level9[(yi*levelwidth)+xi]));  
    bfc2:	89 30       	cpi	r24, 0x09	; 9
    bfc4:	21 f4       	brne	.+8      	; 0xbfce <drawlevel+0xbe>
    bfc6:	f3 01       	movw	r30, r6
    bfc8:	ed 5c       	subi	r30, 0xCD	; 205
    bfca:	f6 4f       	sbci	r31, 0xF6	; 246
    bfcc:	14 91       	lpm	r17, Z
    destx = xi * 2;
    
    if ( c == 1 ) DrawMap2(destx  ,yi *2  ,ground);
    bfce:	11 30       	cpi	r17, 0x01	; 1
    bfd0:	19 f4       	brne	.+6      	; 0xbfd8 <drawlevel+0xc8>
    bfd2:	47 eb       	ldi	r20, 0xB7	; 183
    bfd4:	57 e7       	ldi	r21, 0x77	; 119
    bfd6:	cd c0       	rjmp	.+410    	; 0xc172 <drawlevel+0x262>
    if ( c == 2 ) DrawMap2(destx  ,yi *2  ,block0);
    bfd8:	12 30       	cpi	r17, 0x02	; 2
    bfda:	19 f4       	brne	.+6      	; 0xbfe2 <drawlevel+0xd2>
    bfdc:	45 ec       	ldi	r20, 0xC5	; 197
    bfde:	57 e7       	ldi	r21, 0x77	; 119
    bfe0:	c8 c0       	rjmp	.+400    	; 0xc172 <drawlevel+0x262>
    if ( c == 3 ) DrawMap2(destx  ,yi *2  ,block1);
    bfe2:	13 30       	cpi	r17, 0x03	; 3
    bfe4:	19 f4       	brne	.+6      	; 0xbfec <drawlevel+0xdc>
    bfe6:	4f eb       	ldi	r20, 0xBF	; 191
    bfe8:	57 e7       	ldi	r21, 0x77	; 119
    bfea:	c3 c0       	rjmp	.+390    	; 0xc172 <drawlevel+0x262>
    if ( c == 4 ) DrawMap2(destx  ,yi *2  ,block2);
    bfec:	14 30       	cpi	r17, 0x04	; 4
    bfee:	19 f4       	brne	.+6      	; 0xbff6 <drawlevel+0xe6>
    bff0:	45 e7       	ldi	r20, 0x75	; 117
    bff2:	57 e7       	ldi	r21, 0x77	; 119
    bff4:	be c0       	rjmp	.+380    	; 0xc172 <drawlevel+0x262>
    if ( c == 5 ) DrawMap2(destx  ,yi *2  ,ground1);
    bff6:	15 30       	cpi	r17, 0x05	; 5
    bff8:	19 f4       	brne	.+6      	; 0xc000 <drawlevel+0xf0>
    bffa:	4f ea       	ldi	r20, 0xAF	; 175
    bffc:	57 e7       	ldi	r21, 0x77	; 119
    bffe:	b9 c0       	rjmp	.+370    	; 0xc172 <drawlevel+0x262>
    if ( c == 6 ) DrawMap2(destx  ,yi *2  ,ground2);
    c000:	16 30       	cpi	r17, 0x06	; 6
    c002:	19 f4       	brne	.+6      	; 0xc00a <drawlevel+0xfa>
    c004:	47 ea       	ldi	r20, 0xA7	; 167
    c006:	57 e7       	ldi	r21, 0x77	; 119
    c008:	b4 c0       	rjmp	.+360    	; 0xc172 <drawlevel+0x262>
    if ( c == 7 ) DrawMap2(destx  ,yi *2  ,block3);
    c00a:	17 30       	cpi	r17, 0x07	; 7
    c00c:	19 f4       	brne	.+6      	; 0xc014 <drawlevel+0x104>
    c00e:	4f e6       	ldi	r20, 0x6F	; 111
    c010:	57 e7       	ldi	r21, 0x77	; 119
    c012:	af c0       	rjmp	.+350    	; 0xc172 <drawlevel+0x262>
    if ( c == 8 ) DrawMap2(destx  ,yi *2  ,ground3);
    c014:	18 30       	cpi	r17, 0x08	; 8
    c016:	19 f4       	brne	.+6      	; 0xc01e <drawlevel+0x10e>
    c018:	4f e9       	ldi	r20, 0x9F	; 159
    c01a:	57 e7       	ldi	r21, 0x77	; 119
    c01c:	aa c0       	rjmp	.+340    	; 0xc172 <drawlevel+0x262>
    if ( c == 9 ) DrawMap2(destx  ,yi *2  ,block4);
    c01e:	19 30       	cpi	r17, 0x09	; 9
    c020:	19 f4       	brne	.+6      	; 0xc028 <drawlevel+0x118>
    c022:	49 e9       	ldi	r20, 0x99	; 153
    c024:	57 e7       	ldi	r21, 0x77	; 119
    c026:	a5 c0       	rjmp	.+330    	; 0xc172 <drawlevel+0x262>
    if ( c == 10 ) DrawMap2(destx ,yi *2  ,block5);
    c028:	1a 30       	cpi	r17, 0x0A	; 10
    c02a:	19 f4       	brne	.+6      	; 0xc032 <drawlevel+0x122>
    c02c:	43 e9       	ldi	r20, 0x93	; 147
    c02e:	57 e7       	ldi	r21, 0x77	; 119
    c030:	a0 c0       	rjmp	.+320    	; 0xc172 <drawlevel+0x262>
    if ( c == 11 ) DrawMap2(destx ,yi *2  ,tube0);
    c032:	1b 30       	cpi	r17, 0x0B	; 11
    c034:	19 f4       	brne	.+6      	; 0xc03c <drawlevel+0x12c>
    c036:	46 e2       	ldi	r20, 0x26	; 38
    c038:	57 e7       	ldi	r21, 0x77	; 119
    c03a:	9b c0       	rjmp	.+310    	; 0xc172 <drawlevel+0x262>
    if ( c == 12 ) DrawMap2(destx ,yi *2  ,tube1);
    c03c:	1c 30       	cpi	r17, 0x0C	; 12
    c03e:	19 f4       	brne	.+6      	; 0xc046 <drawlevel+0x136>
    c040:	40 e2       	ldi	r20, 0x20	; 32
    c042:	57 e7       	ldi	r21, 0x77	; 119
    c044:	96 c0       	rjmp	.+300    	; 0xc172 <drawlevel+0x262>
    if ( c == 13 ) DrawMap2(destx ,yi *2  ,tube2);
    c046:	1d 30       	cpi	r17, 0x0D	; 13
    c048:	19 f4       	brne	.+6      	; 0xc050 <drawlevel+0x140>
    c04a:	4a e1       	ldi	r20, 0x1A	; 26
    c04c:	57 e7       	ldi	r21, 0x77	; 119
    c04e:	91 c0       	rjmp	.+290    	; 0xc172 <drawlevel+0x262>
    if ( c == 14 ) DrawMap2(destx ,yi *2  ,tube3);
    c050:	1e 30       	cpi	r17, 0x0E	; 14
    c052:	19 f4       	brne	.+6      	; 0xc05a <drawlevel+0x14a>
    c054:	44 e1       	ldi	r20, 0x14	; 20
    c056:	57 e7       	ldi	r21, 0x77	; 119
    c058:	8c c0       	rjmp	.+280    	; 0xc172 <drawlevel+0x262>
    if ( c == 15 ) DrawMap2(destx ,yi *2  ,tube4);
    c05a:	1f 30       	cpi	r17, 0x0F	; 15
    c05c:	19 f4       	brne	.+6      	; 0xc064 <drawlevel+0x154>
    c05e:	4e e0       	ldi	r20, 0x0E	; 14
    c060:	57 e7       	ldi	r21, 0x77	; 119
    c062:	87 c0       	rjmp	.+270    	; 0xc172 <drawlevel+0x262>
    if ( c == 16 ) DrawMap2(destx ,yi *2  ,tube5);
    c064:	10 31       	cpi	r17, 0x10	; 16
    c066:	19 f4       	brne	.+6      	; 0xc06e <drawlevel+0x15e>
    c068:	48 e0       	ldi	r20, 0x08	; 8
    c06a:	57 e7       	ldi	r21, 0x77	; 119
    c06c:	82 c0       	rjmp	.+260    	; 0xc172 <drawlevel+0x262>
    if ( c == 31 ) DrawMap2(destx ,yi *2  ,bush1);
    c06e:	1f 31       	cpi	r17, 0x1F	; 31
    c070:	19 f4       	brne	.+6      	; 0xc078 <drawlevel+0x168>
    c072:	46 e5       	ldi	r20, 0x56	; 86
    c074:	57 e7       	ldi	r21, 0x77	; 119
    c076:	7d c0       	rjmp	.+250    	; 0xc172 <drawlevel+0x262>
    if ( c == 32 ) DrawMap2(destx ,yi *2  ,bush2);
    c078:	10 32       	cpi	r17, 0x20	; 32
    c07a:	19 f4       	brne	.+6      	; 0xc082 <drawlevel+0x172>
    c07c:	40 e5       	ldi	r20, 0x50	; 80
    c07e:	57 e7       	ldi	r21, 0x77	; 119
    c080:	78 c0       	rjmp	.+240    	; 0xc172 <drawlevel+0x262>
    if ( c == 33 ) DrawMap2(destx ,yi *2  ,bush3);
    c082:	11 32       	cpi	r17, 0x21	; 33
    c084:	19 f4       	brne	.+6      	; 0xc08c <drawlevel+0x17c>
    c086:	4a e4       	ldi	r20, 0x4A	; 74
    c088:	57 e7       	ldi	r21, 0x77	; 119
    c08a:	73 c0       	rjmp	.+230    	; 0xc172 <drawlevel+0x262>
    if ( c == 34 ) DrawMap2(destx ,yi *2  ,bush4);
    c08c:	12 32       	cpi	r17, 0x22	; 34
    c08e:	19 f4       	brne	.+6      	; 0xc096 <drawlevel+0x186>
    c090:	44 e4       	ldi	r20, 0x44	; 68
    c092:	57 e7       	ldi	r21, 0x77	; 119
    c094:	6e c0       	rjmp	.+220    	; 0xc172 <drawlevel+0x262>
    if ( c == 35 ) DrawMap2(destx ,yi *2  ,cloud0);
    c096:	13 32       	cpi	r17, 0x23	; 35
    c098:	c9 f1       	breq	.+114    	; 0xc10c <drawlevel+0x1fc>
    if ( c == 36 ) DrawMap2(destx ,yi *2  ,cloud1);
    c09a:	14 32       	cpi	r17, 0x24	; 36
    c09c:	19 f4       	brne	.+6      	; 0xc0a4 <drawlevel+0x194>
    c09e:	48 e3       	ldi	r20, 0x38	; 56
    c0a0:	57 e7       	ldi	r21, 0x77	; 119
    c0a2:	67 c0       	rjmp	.+206    	; 0xc172 <drawlevel+0x262>
    if ( c == 37 ) DrawMap2(destx ,yi *2  ,cloud2);
    c0a4:	15 32       	cpi	r17, 0x25	; 37
    c0a6:	19 f4       	brne	.+6      	; 0xc0ae <drawlevel+0x19e>
    c0a8:	42 e3       	ldi	r20, 0x32	; 50
    c0aa:	57 e7       	ldi	r21, 0x77	; 119
    c0ac:	62 c0       	rjmp	.+196    	; 0xc172 <drawlevel+0x262>
    if ( c == 38 ) DrawMap2(destx ,yi *2  ,cloud3);
    c0ae:	16 32       	cpi	r17, 0x26	; 38
    c0b0:	19 f4       	brne	.+6      	; 0xc0b8 <drawlevel+0x1a8>
    c0b2:	4c e2       	ldi	r20, 0x2C	; 44
    c0b4:	57 e7       	ldi	r21, 0x77	; 119
    c0b6:	5d c0       	rjmp	.+186    	; 0xc172 <drawlevel+0x262>
    if ( c == 39 ) {DrawMap2(destx ,yi *2 ,bridge0);DrawMap2(destx +1 ,yi *2  ,bridge0);DrawMap2(destx  ,yi *2 +1 ,nb);DrawMap2(destx +1 ,yi *2 +1 ,nb);};
    c0b8:	17 32       	cpi	r17, 0x27	; 39
    c0ba:	c1 f4       	brne	.+48     	; 0xc0ec <drawlevel+0x1dc>
    c0bc:	4d ee       	ldi	r20, 0xED	; 237
    c0be:	56 e7       	ldi	r21, 0x76	; 118
    c0c0:	6c 2f       	mov	r22, r28
    c0c2:	8b 2d       	mov	r24, r11
    c0c4:	0e 94 c2 4d 	call	0x9b84	; 0x9b84 <DrawMap>
    c0c8:	4d ee       	ldi	r20, 0xED	; 237
    c0ca:	56 e7       	ldi	r21, 0x76	; 118
    c0cc:	6c 2f       	mov	r22, r28
    c0ce:	80 2f       	mov	r24, r16
    c0d0:	0e 94 c2 4d 	call	0x9b84	; 0x9b84 <DrawMap>
    c0d4:	41 ee       	ldi	r20, 0xE1	; 225
    c0d6:	56 e7       	ldi	r21, 0x76	; 118
    c0d8:	8c 2e       	mov	r8, r28
    c0da:	83 94       	inc	r8
    c0dc:	68 2d       	mov	r22, r8
    c0de:	8b 2d       	mov	r24, r11
    c0e0:	0e 94 c2 4d 	call	0x9b84	; 0x9b84 <DrawMap>
    c0e4:	41 ee       	ldi	r20, 0xE1	; 225
    c0e6:	56 e7       	ldi	r21, 0x76	; 118
    c0e8:	68 2d       	mov	r22, r8
    c0ea:	3d c0       	rjmp	.+122    	; 0xc166 <drawlevel+0x256>
    if ( c == 21 ) {makeWater(destx,yi *2,scrolltiles);}
    c0ec:	15 31       	cpi	r17, 0x15	; 21
    c0ee:	41 f4       	brne	.+16     	; 0xc100 <drawlevel+0x1f0>
    c0f0:	40 91 de 0a 	lds	r20, 0x0ADE	; 0x800ade <scrolltiles>
    c0f4:	50 e0       	ldi	r21, 0x00	; 0
    c0f6:	be 01       	movw	r22, r28
    c0f8:	c7 01       	movw	r24, r14
    c0fa:	0e 94 4f 51 	call	0xa29e	; 0xa29e <makeWater>
    c0fe:	4b c0       	rjmp	.+150    	; 0xc196 <drawlevel+0x286>

if ( c == 22 ) DrawMap2(destx ,yi *2  ,cloud0);
    c100:	16 31       	cpi	r17, 0x16	; 22
    c102:	21 f0       	breq	.+8      	; 0xc10c <drawlevel+0x1fc>
if ( c == 23 ) DrawMap2(destx ,yi *2  ,cloud0);
    c104:	17 31       	cpi	r17, 0x17	; 23
    c106:	11 f0       	breq	.+4      	; 0xc10c <drawlevel+0x1fc>
if ( c == 24 ) DrawMap2(destx ,yi *2  ,cloud0);
    c108:	18 31       	cpi	r17, 0x18	; 24
    c10a:	19 f4       	brne	.+6      	; 0xc112 <drawlevel+0x202>
    c10c:	4e e3       	ldi	r20, 0x3E	; 62
    c10e:	57 e7       	ldi	r21, 0x77	; 119
    c110:	30 c0       	rjmp	.+96     	; 0xc172 <drawlevel+0x262>
    if ( c == 25 ) DrawMap2(destx ,yi *2  ,door0);
    c112:	19 31       	cpi	r17, 0x19	; 25
    c114:	19 f4       	brne	.+6      	; 0xc11c <drawlevel+0x20c>
    c116:	4d e8       	ldi	r20, 0x8D	; 141
    c118:	57 e7       	ldi	r21, 0x77	; 119
    c11a:	2b c0       	rjmp	.+86     	; 0xc172 <drawlevel+0x262>
    if ( c == 26 ) DrawMap2(destx ,yi *2  ,door1);
    c11c:	1a 31       	cpi	r17, 0x1A	; 26
    c11e:	19 f4       	brne	.+6      	; 0xc126 <drawlevel+0x216>
    c120:	47 e8       	ldi	r20, 0x87	; 135
    c122:	57 e7       	ldi	r21, 0x77	; 119
    c124:	26 c0       	rjmp	.+76     	; 0xc172 <drawlevel+0x262>
    if ( c == 27 ) DrawMap2(destx ,yi *2  ,door2);
    c126:	1b 31       	cpi	r17, 0x1B	; 27
    c128:	19 f4       	brne	.+6      	; 0xc130 <drawlevel+0x220>
    c12a:	41 e8       	ldi	r20, 0x81	; 129
    c12c:	57 e7       	ldi	r21, 0x77	; 119
    c12e:	21 c0       	rjmp	.+66     	; 0xc172 <drawlevel+0x262>
    if ( c == 28 ) DrawMap2(destx ,yi *2  ,door3);
    c130:	1c 31       	cpi	r17, 0x1C	; 28
    c132:	19 f4       	brne	.+6      	; 0xc13a <drawlevel+0x22a>
    c134:	4b e7       	ldi	r20, 0x7B	; 123
    c136:	57 e7       	ldi	r21, 0x77	; 119
    c138:	1c c0       	rjmp	.+56     	; 0xc172 <drawlevel+0x262>
    if ( c == 29 ) {DrawMap2(destx ,yi *2  ,spike0); DrawMap2(destx + 1 ,yi *2  ,spike0); };
    c13a:	1d 31       	cpi	r17, 0x1D	; 29
    c13c:	49 f4       	brne	.+18     	; 0xc150 <drawlevel+0x240>
    c13e:	4d e6       	ldi	r20, 0x6D	; 109
    c140:	56 e7       	ldi	r21, 0x76	; 118
    c142:	6c 2f       	mov	r22, r28
    c144:	8b 2d       	mov	r24, r11
    c146:	0e 94 c2 4d 	call	0x9b84	; 0x9b84 <DrawMap>
    c14a:	4d e6       	ldi	r20, 0x6D	; 109
    c14c:	56 e7       	ldi	r21, 0x76	; 118
    c14e:	0a c0       	rjmp	.+20     	; 0xc164 <drawlevel+0x254>
    if ( c == 30 ) {DrawMap2(destx ,yi *2  ,spike1); DrawMap2(destx + 1 ,yi *2  ,spike1); };
    c150:	1e 31       	cpi	r17, 0x1E	; 30
    c152:	59 f4       	brne	.+22     	; 0xc16a <drawlevel+0x25a>
    c154:	49 e6       	ldi	r20, 0x69	; 105
    c156:	56 e7       	ldi	r21, 0x76	; 118
    c158:	6c 2f       	mov	r22, r28
    c15a:	8b 2d       	mov	r24, r11
    c15c:	0e 94 c2 4d 	call	0x9b84	; 0x9b84 <DrawMap>
    c160:	49 e6       	ldi	r20, 0x69	; 105
    c162:	56 e7       	ldi	r21, 0x76	; 118
    c164:	6c 2f       	mov	r22, r28
    c166:	80 2f       	mov	r24, r16
    c168:	06 c0       	rjmp	.+12     	; 0xc176 <drawlevel+0x266>
    if ( c == 41 ) DrawMap2(destx ,yi *2  ,diamond0); 
    c16a:	19 32       	cpi	r17, 0x29	; 41
    c16c:	39 f4       	brne	.+14     	; 0xc17c <drawlevel+0x26c>
    c16e:	49 e6       	ldi	r20, 0x69	; 105
    c170:	57 e7       	ldi	r21, 0x77	; 119
    c172:	6c 2f       	mov	r22, r28
    c174:	8b 2d       	mov	r24, r11
    c176:	0e 94 c2 4d 	call	0x9b84	; 0x9b84 <DrawMap>
    c17a:	0d c0       	rjmp	.+26     	; 0xc196 <drawlevel+0x286>
    if ( c == 50 ) setowl(destx,  yi *2);    
    c17c:	12 33       	cpi	r17, 0x32	; 50
    c17e:	29 f4       	brne	.+10     	; 0xc18a <drawlevel+0x27a>
    c180:	be 01       	movw	r22, r28
    c182:	c7 01       	movw	r24, r14
    c184:	0e 94 0e 5f 	call	0xbe1c	; 0xbe1c <setowl>
    c188:	06 c0       	rjmp	.+12     	; 0xc196 <drawlevel+0x286>
    if ( c == 51 ) setblob(destx, yi *2);    
    c18a:	13 33       	cpi	r17, 0x33	; 51
    c18c:	21 f4       	brne	.+8      	; 0xc196 <drawlevel+0x286>
    c18e:	be 01       	movw	r22, r28
    c190:	c7 01       	movw	r24, r14
    c192:	0e 94 4b 5f 	call	0xbe96	; 0xbe96 <setblob>
    c196:	22 96       	adiw	r28, 0x02	; 2
    c198:	8a e5       	ldi	r24, 0x5A	; 90
    c19a:	68 0e       	add	r6, r24
    c19c:	71 1c       	adc	r7, r1
char c;
int destx;

for (xi = 0; xi < 16; xi++)
    {
    for (yi = 0; yi < 14; yi++)
    c19e:	cc 31       	cpi	r28, 0x1C	; 28
    c1a0:	d1 05       	cpc	r29, r1
    c1a2:	09 f0       	breq	.+2      	; 0xc1a6 <drawlevel+0x296>
    c1a4:	d6 ce       	rjmp	.-596    	; 0xbf52 <drawlevel+0x42>
int xi;
int yi;
char c;
int destx;

for (xi = 0; xi < 16; xi++)
    c1a6:	8f ef       	ldi	r24, 0xFF	; 255
    c1a8:	c8 1a       	sub	r12, r24
    c1aa:	d8 0a       	sbc	r13, r24
    c1ac:	82 e0       	ldi	r24, 0x02	; 2
    c1ae:	e8 0e       	add	r14, r24
    c1b0:	f1 1c       	adc	r15, r1
    c1b2:	0e 5f       	subi	r16, 0xFE	; 254
    c1b4:	80 e2       	ldi	r24, 0x20	; 32
    c1b6:	e8 16       	cp	r14, r24
    c1b8:	f1 04       	cpc	r15, r1
    c1ba:	09 f0       	breq	.+2      	; 0xc1be <drawlevel+0x2ae>
    c1bc:	c6 ce       	rjmp	.-628    	; 0xbf4a <drawlevel+0x3a>
    if ( c == 50 ) setowl(destx,  yi *2);    
    if ( c == 51 ) setblob(destx, yi *2);    
    }
    }

}
    c1be:	df 91       	pop	r29
    c1c0:	cf 91       	pop	r28
    c1c2:	1f 91       	pop	r17
    c1c4:	0f 91       	pop	r16
    c1c6:	ff 90       	pop	r15
    c1c8:	ef 90       	pop	r14
    c1ca:	df 90       	pop	r13
    c1cc:	cf 90       	pop	r12
    c1ce:	bf 90       	pop	r11
    c1d0:	8f 90       	pop	r8
    c1d2:	7f 90       	pop	r7
    c1d4:	6f 90       	pop	r6
    c1d6:	08 95       	ret

0000c1d8 <updatelevel>:
//}
    }
    
}
void updatelevel()
{
    c1d8:	cf 92       	push	r12
    c1da:	df 92       	push	r13
    c1dc:	ef 92       	push	r14
    c1de:	ff 92       	push	r15
    c1e0:	1f 93       	push	r17
    c1e2:	cf 93       	push	r28
    c1e4:	df 93       	push	r29
    c1e6:	c0 e0       	ldi	r28, 0x00	; 0
    c1e8:	d0 e0       	ldi	r29, 0x00	; 0
int xi;
int yi;
char c;
    
    for (yi = 0; yi < 13; yi++)
    c1ea:	e1 2c       	mov	r14, r1
    c1ec:	f1 2c       	mov	r15, r1
    {
if (level == 0)    c=pgm_read_byte(&(intro0[(yi*levelwidth)+scrolltiles+16]));        
    c1ee:	80 91 dd 09 	lds	r24, 0x09DD	; 0x8009dd <level>
    c1f2:	81 11       	cpse	r24, r1
    c1f4:	08 c0       	rjmp	.+16     	; 0xc206 <updatelevel+0x2e>
    c1f6:	80 91 de 0a 	lds	r24, 0x0ADE	; 0x800ade <scrolltiles>
    c1fa:	fe 01       	movw	r30, r28
    c1fc:	e8 0f       	add	r30, r24
    c1fe:	f1 1d       	adc	r31, r1
    c200:	e1 57       	subi	r30, 0x71	; 113
    c202:	fa 4c       	sbci	r31, 0xCA	; 202
    c204:	59 c0       	rjmp	.+178    	; 0xc2b8 <updatelevel+0xe0>
if (level == 1)    c=pgm_read_byte(&(level1[(yi*levelwidth)+scrolltiles+16]));
    c206:	81 30       	cpi	r24, 0x01	; 1
    c208:	41 f4       	brne	.+16     	; 0xc21a <updatelevel+0x42>
    c20a:	80 91 de 0a 	lds	r24, 0x0ADE	; 0x800ade <scrolltiles>
    c20e:	fe 01       	movw	r30, r28
    c210:	e8 0f       	add	r30, r24
    c212:	f1 1d       	adc	r31, r1
    c214:	ed 55       	subi	r30, 0x5D	; 93
    c216:	ff 4c       	sbci	r31, 0xCF	; 207
    c218:	4f c0       	rjmp	.+158    	; 0xc2b8 <updatelevel+0xe0>
if (level == 2)    c=pgm_read_byte(&(level2[(yi*levelwidth)+scrolltiles+16]));
    c21a:	82 30       	cpi	r24, 0x02	; 2
    c21c:	41 f4       	brne	.+16     	; 0xc22e <updatelevel+0x56>
    c21e:	80 91 de 0a 	lds	r24, 0x0ADE	; 0x800ade <scrolltiles>
    c222:	fe 01       	movw	r30, r28
    c224:	e8 0f       	add	r30, r24
    c226:	f1 1d       	adc	r31, r1
    c228:	e9 54       	subi	r30, 0x49	; 73
    c22a:	f4 4d       	sbci	r31, 0xD4	; 212
    c22c:	45 c0       	rjmp	.+138    	; 0xc2b8 <updatelevel+0xe0>
if (level == 3)    c=pgm_read_byte(&(level3[(yi*levelwidth)+scrolltiles+16]));
    c22e:	83 30       	cpi	r24, 0x03	; 3
    c230:	41 f4       	brne	.+16     	; 0xc242 <updatelevel+0x6a>
    c232:	80 91 de 0a 	lds	r24, 0x0ADE	; 0x800ade <scrolltiles>
    c236:	fe 01       	movw	r30, r28
    c238:	e8 0f       	add	r30, r24
    c23a:	f1 1d       	adc	r31, r1
    c23c:	e5 53       	subi	r30, 0x35	; 53
    c23e:	f9 4d       	sbci	r31, 0xD9	; 217
    c240:	3b c0       	rjmp	.+118    	; 0xc2b8 <updatelevel+0xe0>
if (level == 4)    c=pgm_read_byte(&(level4[(yi*levelwidth)+scrolltiles+16]));
    c242:	84 30       	cpi	r24, 0x04	; 4
    c244:	41 f4       	brne	.+16     	; 0xc256 <updatelevel+0x7e>
    c246:	80 91 de 0a 	lds	r24, 0x0ADE	; 0x800ade <scrolltiles>
    c24a:	fe 01       	movw	r30, r28
    c24c:	e8 0f       	add	r30, r24
    c24e:	f1 1d       	adc	r31, r1
    c250:	e1 52       	subi	r30, 0x21	; 33
    c252:	fe 4d       	sbci	r31, 0xDE	; 222
    c254:	31 c0       	rjmp	.+98     	; 0xc2b8 <updatelevel+0xe0>
if (level == 5)    c=pgm_read_byte(&(level5[(yi*levelwidth)+scrolltiles+16]));
    c256:	85 30       	cpi	r24, 0x05	; 5
    c258:	41 f4       	brne	.+16     	; 0xc26a <updatelevel+0x92>
    c25a:	80 91 de 0a 	lds	r24, 0x0ADE	; 0x800ade <scrolltiles>
    c25e:	fe 01       	movw	r30, r28
    c260:	e8 0f       	add	r30, r24
    c262:	f1 1d       	adc	r31, r1
    c264:	ed 50       	subi	r30, 0x0D	; 13
    c266:	f3 4e       	sbci	r31, 0xE3	; 227
    c268:	27 c0       	rjmp	.+78     	; 0xc2b8 <updatelevel+0xe0>
if (level == 6)    c=pgm_read_byte(&(level6[(yi*levelwidth)+scrolltiles+16]));
    c26a:	86 30       	cpi	r24, 0x06	; 6
    c26c:	41 f4       	brne	.+16     	; 0xc27e <updatelevel+0xa6>
    c26e:	80 91 de 0a 	lds	r24, 0x0ADE	; 0x800ade <scrolltiles>
    c272:	fe 01       	movw	r30, r28
    c274:	e8 0f       	add	r30, r24
    c276:	f1 1d       	adc	r31, r1
    c278:	e9 5f       	subi	r30, 0xF9	; 249
    c27a:	f7 4e       	sbci	r31, 0xE7	; 231
    c27c:	1d c0       	rjmp	.+58     	; 0xc2b8 <updatelevel+0xe0>
if (level == 7)    c=pgm_read_byte(&(level7[(yi*levelwidth)+scrolltiles+16]));
    c27e:	87 30       	cpi	r24, 0x07	; 7
    c280:	41 f4       	brne	.+16     	; 0xc292 <updatelevel+0xba>
    c282:	80 91 de 0a 	lds	r24, 0x0ADE	; 0x800ade <scrolltiles>
    c286:	fe 01       	movw	r30, r28
    c288:	e8 0f       	add	r30, r24
    c28a:	f1 1d       	adc	r31, r1
    c28c:	e5 5e       	subi	r30, 0xE5	; 229
    c28e:	fc 4e       	sbci	r31, 0xEC	; 236
    c290:	13 c0       	rjmp	.+38     	; 0xc2b8 <updatelevel+0xe0>
if (level == 8)    c=pgm_read_byte(&(level8[(yi*levelwidth)+scrolltiles+16]));
    c292:	88 30       	cpi	r24, 0x08	; 8
    c294:	41 f4       	brne	.+16     	; 0xc2a6 <updatelevel+0xce>
    c296:	80 91 de 0a 	lds	r24, 0x0ADE	; 0x800ade <scrolltiles>
    c29a:	fe 01       	movw	r30, r28
    c29c:	e8 0f       	add	r30, r24
    c29e:	f1 1d       	adc	r31, r1
    c2a0:	e1 5d       	subi	r30, 0xD1	; 209
    c2a2:	f1 4f       	sbci	r31, 0xF1	; 241
    c2a4:	09 c0       	rjmp	.+18     	; 0xc2b8 <updatelevel+0xe0>
if (level == 9)    c=pgm_read_byte(&(level9[(yi*levelwidth)+scrolltiles+16]));
    c2a6:	89 30       	cpi	r24, 0x09	; 9
    c2a8:	41 f4       	brne	.+16     	; 0xc2ba <updatelevel+0xe2>
    c2aa:	80 91 de 0a 	lds	r24, 0x0ADE	; 0x800ade <scrolltiles>
    c2ae:	fe 01       	movw	r30, r28
    c2b0:	e8 0f       	add	r30, r24
    c2b2:	f1 1d       	adc	r31, r1
    c2b4:	ed 5b       	subi	r30, 0xBD	; 189
    c2b6:	f6 4f       	sbci	r31, 0xF6	; 246
    c2b8:	14 91       	lpm	r17, Z
    xi = yi << 1;
    c2ba:	67 01       	movw	r12, r14
    c2bc:	cc 0c       	add	r12, r12
    c2be:	dd 1c       	adc	r13, r13
    if ( c == 0 ) DrawMap2(destX,xi  ,bigblue0);
    c2c0:	11 11       	cpse	r17, r1
    c2c2:	10 c0       	rjmp	.+32     	; 0xc2e4 <updatelevel+0x10c>
    c2c4:	4b ec       	ldi	r20, 0xCB	; 203
    c2c6:	57 e7       	ldi	r21, 0x77	; 119
    c2c8:	6c 2d       	mov	r22, r12
    c2ca:	80 91 5d 0a 	lds	r24, 0x0A5D	; 0x800a5d <destX>
    c2ce:	0e 94 c2 4d 	call	0x9b84	; 0x9b84 <DrawMap>
    if ( c == 0 && yi == 12 ) DrawMap2(destX,xi + 1  ,bigblue0);    
    c2d2:	8c e0       	ldi	r24, 0x0C	; 12
    c2d4:	e8 16       	cp	r14, r24
    c2d6:	f1 04       	cpc	r15, r1
    c2d8:	29 f5       	brne	.+74     	; 0xc324 <updatelevel+0x14c>
    c2da:	61 e0       	ldi	r22, 0x01	; 1
    c2dc:	6c 0d       	add	r22, r12
    c2de:	4b ec       	ldi	r20, 0xCB	; 203
    c2e0:	57 e7       	ldi	r21, 0x77	; 119
    c2e2:	0f c0       	rjmp	.+30     	; 0xc302 <updatelevel+0x12a>
    if ( c == 1 ) DrawMap2(destX  ,xi  ,ground);
    c2e4:	11 30       	cpi	r17, 0x01	; 1
    c2e6:	19 f4       	brne	.+6      	; 0xc2ee <updatelevel+0x116>
    c2e8:	47 eb       	ldi	r20, 0xB7	; 183
    c2ea:	57 e7       	ldi	r21, 0x77	; 119
    c2ec:	09 c0       	rjmp	.+18     	; 0xc300 <updatelevel+0x128>
    if ( c == 2 ) DrawMap2(destX  ,xi  ,block0);
    c2ee:	12 30       	cpi	r17, 0x02	; 2
    c2f0:	19 f4       	brne	.+6      	; 0xc2f8 <updatelevel+0x120>
    c2f2:	45 ec       	ldi	r20, 0xC5	; 197
    c2f4:	57 e7       	ldi	r21, 0x77	; 119
    c2f6:	04 c0       	rjmp	.+8      	; 0xc300 <updatelevel+0x128>
    if ( c == 3 ) DrawMap2(destX  ,xi  ,block1);
    c2f8:	13 30       	cpi	r17, 0x03	; 3
    c2fa:	49 f5       	brne	.+82     	; 0xc34e <updatelevel+0x176>
    c2fc:	4f eb       	ldi	r20, 0xBF	; 191
    c2fe:	57 e7       	ldi	r21, 0x77	; 119
    if ( c == 26 ) DrawMap2(destX ,xi  ,door1);	
    if ( c == 27 ) DrawMap2(destX ,xi  ,door2);	
    if ( c == 28 ) DrawMap2(destX ,xi  ,door3);	    
    if ( c == 29 ) {DrawMap2(destX ,xi  ,spike0);DrawMap2(destX + 1,xi  ,spike0);};	
    if ( c == 30 ) {DrawMap2(destX ,xi  ,spike1);DrawMap2(destX + 1,xi  ,spike1);};
    if ( c == 41 ) DrawMap2(destX ,xi  ,diamond0);
    c300:	6c 2d       	mov	r22, r12
    c302:	80 91 5d 0a 	lds	r24, 0x0A5D	; 0x800a5d <destX>
    c306:	0e 94 c2 4d 	call	0x9b84	; 0x9b84 <DrawMap>
    c30a:	0c c0       	rjmp	.+24     	; 0xc324 <updatelevel+0x14c>
    if ( c == 35 ) DrawMap2(destX ,xi  ,cloud0);
    if ( c == 36 ) DrawMap2(destX ,xi  ,cloud1);
    if ( c == 37 ) DrawMap2(destX ,xi  ,cloud2);
    if ( c == 38 ) DrawMap2(destX ,xi  ,cloud3);
    if ( c == 39 ) {DrawMap2(destX,xi  ,bridge0);DrawMap2(destX +1 ,xi,bridge0);DrawMap2(destX  ,xi + 1 ,nb);DrawMap2(destX +1 ,xi + 1 ,nb);};
    if ( c == 21 ) {
    c30c:	15 31       	cpi	r17, 0x15	; 21
    c30e:	09 f0       	breq	.+2      	; 0xc312 <updatelevel+0x13a>
    c310:	a6 c0       	rjmp	.+332    	; 0xc45e <updatelevel+0x286>
        makeWater(destX,xi,scrolltiles);
    c312:	40 91 de 0a 	lds	r20, 0x0ADE	; 0x800ade <scrolltiles>
    c316:	50 e0       	ldi	r21, 0x00	; 0
    c318:	80 91 5d 0a 	lds	r24, 0x0A5D	; 0x800a5d <destX>
    c31c:	b6 01       	movw	r22, r12
    c31e:	90 e0       	ldi	r25, 0x00	; 0
    c320:	0e 94 4f 51 	call	0xa29e	; 0xa29e <makeWater>
{
int xi;
int yi;
char c;
    
    for (yi = 0; yi < 13; yi++)
    c324:	8f ef       	ldi	r24, 0xFF	; 255
    c326:	e8 1a       	sub	r14, r24
    c328:	f8 0a       	sbc	r15, r24
    c32a:	c6 5a       	subi	r28, 0xA6	; 166
    c32c:	df 4f       	sbci	r29, 0xFF	; 255
    c32e:	8d e0       	ldi	r24, 0x0D	; 13
    c330:	e8 16       	cp	r14, r24
    c332:	f1 04       	cpc	r15, r1
    c334:	09 f0       	breq	.+2      	; 0xc338 <updatelevel+0x160>
    c336:	5b cf       	rjmp	.-330    	; 0xc1ee <updatelevel+0x16>
    if ( c == 50 ) {DrawMap2(destX,xi  ,bigblue0);setowl(  destX ,xi );};
    if ( c == 51 ) {DrawMap2(destX,xi  ,bigblue0);setblob( destX ,xi );};
    }
//block2 -> block1
    
destX = destX + 2;
    c338:	80 91 5d 0a 	lds	r24, 0x0A5D	; 0x800a5d <destX>
    c33c:	8e 5f       	subi	r24, 0xFE	; 254
if(destX>=32){
    c33e:	80 32       	cpi	r24, 0x20	; 32
    c340:	18 f4       	brcc	.+6      	; 0xc348 <updatelevel+0x170>
    if ( c == 50 ) {DrawMap2(destX,xi  ,bigblue0);setowl(  destX ,xi );};
    if ( c == 51 ) {DrawMap2(destX,xi  ,bigblue0);setblob( destX ,xi );};
    }
//block2 -> block1
    
destX = destX + 2;
    c342:	80 93 5d 0a 	sts	0x0A5D, r24	; 0x800a5d <destX>
    c346:	e3 c0       	rjmp	.+454    	; 0xc50e <updatelevel+0x336>
if(destX>=32){
    destX=0;
    c348:	10 92 5d 0a 	sts	0x0A5D, r1	; 0x800a5d <destX>
}
}
    c34c:	e0 c0       	rjmp	.+448    	; 0xc50e <updatelevel+0x336>
    if ( c == 0 ) DrawMap2(destX,xi  ,bigblue0);
    if ( c == 0 && yi == 12 ) DrawMap2(destX,xi + 1  ,bigblue0);    
    if ( c == 1 ) DrawMap2(destX  ,xi  ,ground);
    if ( c == 2 ) DrawMap2(destX  ,xi  ,block0);
    if ( c == 3 ) DrawMap2(destX  ,xi  ,block1);
    if ( c == 4 ) DrawMap2(destX  ,xi  ,block2);
    c34e:	14 30       	cpi	r17, 0x04	; 4
    c350:	19 f4       	brne	.+6      	; 0xc358 <updatelevel+0x180>
    c352:	45 e7       	ldi	r20, 0x75	; 117
    c354:	57 e7       	ldi	r21, 0x77	; 119
    c356:	d4 cf       	rjmp	.-88     	; 0xc300 <updatelevel+0x128>
    if ( c == 5 ) DrawMap2(destX  ,xi  ,ground1);
    c358:	15 30       	cpi	r17, 0x05	; 5
    c35a:	19 f4       	brne	.+6      	; 0xc362 <updatelevel+0x18a>
    c35c:	4f ea       	ldi	r20, 0xAF	; 175
    c35e:	57 e7       	ldi	r21, 0x77	; 119
    c360:	cf cf       	rjmp	.-98     	; 0xc300 <updatelevel+0x128>
    if ( c == 6 ) DrawMap2(destX  ,xi  ,ground2);
    c362:	16 30       	cpi	r17, 0x06	; 6
    c364:	19 f4       	brne	.+6      	; 0xc36c <updatelevel+0x194>
    c366:	47 ea       	ldi	r20, 0xA7	; 167
    c368:	57 e7       	ldi	r21, 0x77	; 119
    c36a:	ca cf       	rjmp	.-108    	; 0xc300 <updatelevel+0x128>
    if ( c == 7 ) DrawMap2(destX  ,xi  ,block3);
    c36c:	17 30       	cpi	r17, 0x07	; 7
    c36e:	19 f4       	brne	.+6      	; 0xc376 <updatelevel+0x19e>
    c370:	4f e6       	ldi	r20, 0x6F	; 111
    c372:	57 e7       	ldi	r21, 0x77	; 119
    c374:	c5 cf       	rjmp	.-118    	; 0xc300 <updatelevel+0x128>
    if ( c == 8 ) DrawMap2(destX  ,xi  ,ground3);
    c376:	18 30       	cpi	r17, 0x08	; 8
    c378:	19 f4       	brne	.+6      	; 0xc380 <updatelevel+0x1a8>
    c37a:	4f e9       	ldi	r20, 0x9F	; 159
    c37c:	57 e7       	ldi	r21, 0x77	; 119
    c37e:	c0 cf       	rjmp	.-128    	; 0xc300 <updatelevel+0x128>
    if ( c == 9 ) DrawMap2(destX  ,xi  ,block4);
    c380:	19 30       	cpi	r17, 0x09	; 9
    c382:	19 f4       	brne	.+6      	; 0xc38a <updatelevel+0x1b2>
    c384:	49 e9       	ldi	r20, 0x99	; 153
    c386:	57 e7       	ldi	r21, 0x77	; 119
    c388:	bb cf       	rjmp	.-138    	; 0xc300 <updatelevel+0x128>
    if ( c == 10 ) DrawMap2(destX ,xi  ,block5);
    c38a:	1a 30       	cpi	r17, 0x0A	; 10
    c38c:	19 f4       	brne	.+6      	; 0xc394 <updatelevel+0x1bc>
    c38e:	43 e9       	ldi	r20, 0x93	; 147
    c390:	57 e7       	ldi	r21, 0x77	; 119
    c392:	b6 cf       	rjmp	.-148    	; 0xc300 <updatelevel+0x128>
    if ( c == 11 ) DrawMap2(destX ,xi  ,tube0);
    c394:	1b 30       	cpi	r17, 0x0B	; 11
    c396:	19 f4       	brne	.+6      	; 0xc39e <updatelevel+0x1c6>
    c398:	46 e2       	ldi	r20, 0x26	; 38
    c39a:	57 e7       	ldi	r21, 0x77	; 119
    c39c:	b1 cf       	rjmp	.-158    	; 0xc300 <updatelevel+0x128>
    if ( c == 12 ) DrawMap2(destX ,xi  ,tube1);
    c39e:	1c 30       	cpi	r17, 0x0C	; 12
    c3a0:	19 f4       	brne	.+6      	; 0xc3a8 <updatelevel+0x1d0>
    c3a2:	40 e2       	ldi	r20, 0x20	; 32
    c3a4:	57 e7       	ldi	r21, 0x77	; 119
    c3a6:	ac cf       	rjmp	.-168    	; 0xc300 <updatelevel+0x128>
    if ( c == 13 ) DrawMap2(destX ,xi  ,tube2);
    c3a8:	1d 30       	cpi	r17, 0x0D	; 13
    c3aa:	19 f4       	brne	.+6      	; 0xc3b2 <updatelevel+0x1da>
    c3ac:	4a e1       	ldi	r20, 0x1A	; 26
    c3ae:	57 e7       	ldi	r21, 0x77	; 119
    c3b0:	a7 cf       	rjmp	.-178    	; 0xc300 <updatelevel+0x128>
    if ( c == 14 ) DrawMap2(destX ,xi  ,tube3);
    c3b2:	1e 30       	cpi	r17, 0x0E	; 14
    c3b4:	19 f4       	brne	.+6      	; 0xc3bc <updatelevel+0x1e4>
    c3b6:	44 e1       	ldi	r20, 0x14	; 20
    c3b8:	57 e7       	ldi	r21, 0x77	; 119
    c3ba:	a2 cf       	rjmp	.-188    	; 0xc300 <updatelevel+0x128>
    if ( c == 15 ) DrawMap2(destX ,xi  ,tube4);
    c3bc:	1f 30       	cpi	r17, 0x0F	; 15
    c3be:	19 f4       	brne	.+6      	; 0xc3c6 <updatelevel+0x1ee>
    c3c0:	4e e0       	ldi	r20, 0x0E	; 14
    c3c2:	57 e7       	ldi	r21, 0x77	; 119
    c3c4:	9d cf       	rjmp	.-198    	; 0xc300 <updatelevel+0x128>
    if ( c == 16 ) DrawMap2(destX ,xi  ,tube5);
    c3c6:	10 31       	cpi	r17, 0x10	; 16
    c3c8:	19 f4       	brne	.+6      	; 0xc3d0 <updatelevel+0x1f8>
    c3ca:	48 e0       	ldi	r20, 0x08	; 8
    c3cc:	57 e7       	ldi	r21, 0x77	; 119
    c3ce:	98 cf       	rjmp	.-208    	; 0xc300 <updatelevel+0x128>
    if ( c == 31 ) DrawMap2(destX ,xi  ,bush1);
    c3d0:	1f 31       	cpi	r17, 0x1F	; 31
    c3d2:	19 f4       	brne	.+6      	; 0xc3da <updatelevel+0x202>
    c3d4:	46 e5       	ldi	r20, 0x56	; 86
    c3d6:	57 e7       	ldi	r21, 0x77	; 119
    c3d8:	93 cf       	rjmp	.-218    	; 0xc300 <updatelevel+0x128>
    if ( c == 32 ) DrawMap2(destX ,xi  ,bush2);
    c3da:	10 32       	cpi	r17, 0x20	; 32
    c3dc:	19 f4       	brne	.+6      	; 0xc3e4 <updatelevel+0x20c>
    c3de:	40 e5       	ldi	r20, 0x50	; 80
    c3e0:	57 e7       	ldi	r21, 0x77	; 119
    c3e2:	8e cf       	rjmp	.-228    	; 0xc300 <updatelevel+0x128>
    if ( c == 33 ) DrawMap2(destX ,xi  ,bush3);
    c3e4:	11 32       	cpi	r17, 0x21	; 33
    c3e6:	19 f4       	brne	.+6      	; 0xc3ee <updatelevel+0x216>
    c3e8:	4a e4       	ldi	r20, 0x4A	; 74
    c3ea:	57 e7       	ldi	r21, 0x77	; 119
    c3ec:	89 cf       	rjmp	.-238    	; 0xc300 <updatelevel+0x128>
    if ( c == 34 ) DrawMap2(destX ,xi  ,bush4);
    c3ee:	12 32       	cpi	r17, 0x22	; 34
    c3f0:	19 f4       	brne	.+6      	; 0xc3f8 <updatelevel+0x220>
    c3f2:	44 e4       	ldi	r20, 0x44	; 68
    c3f4:	57 e7       	ldi	r21, 0x77	; 119
    c3f6:	84 cf       	rjmp	.-248    	; 0xc300 <updatelevel+0x128>
    if ( c == 35 ) DrawMap2(destX ,xi  ,cloud0);
    c3f8:	13 32       	cpi	r17, 0x23	; 35
    c3fa:	19 f4       	brne	.+6      	; 0xc402 <updatelevel+0x22a>
    c3fc:	4e e3       	ldi	r20, 0x3E	; 62
    c3fe:	57 e7       	ldi	r21, 0x77	; 119
    c400:	7f cf       	rjmp	.-258    	; 0xc300 <updatelevel+0x128>
    if ( c == 36 ) DrawMap2(destX ,xi  ,cloud1);
    c402:	14 32       	cpi	r17, 0x24	; 36
    c404:	19 f4       	brne	.+6      	; 0xc40c <updatelevel+0x234>
    c406:	48 e3       	ldi	r20, 0x38	; 56
    c408:	57 e7       	ldi	r21, 0x77	; 119
    c40a:	7a cf       	rjmp	.-268    	; 0xc300 <updatelevel+0x128>
    if ( c == 37 ) DrawMap2(destX ,xi  ,cloud2);
    c40c:	15 32       	cpi	r17, 0x25	; 37
    c40e:	19 f4       	brne	.+6      	; 0xc416 <updatelevel+0x23e>
    c410:	42 e3       	ldi	r20, 0x32	; 50
    c412:	57 e7       	ldi	r21, 0x77	; 119
    c414:	75 cf       	rjmp	.-278    	; 0xc300 <updatelevel+0x128>
    if ( c == 38 ) DrawMap2(destX ,xi  ,cloud3);
    c416:	16 32       	cpi	r17, 0x26	; 38
    c418:	19 f4       	brne	.+6      	; 0xc420 <updatelevel+0x248>
    c41a:	4c e2       	ldi	r20, 0x2C	; 44
    c41c:	57 e7       	ldi	r21, 0x77	; 119
    c41e:	70 cf       	rjmp	.-288    	; 0xc300 <updatelevel+0x128>
    if ( c == 39 ) {DrawMap2(destX,xi  ,bridge0);DrawMap2(destX +1 ,xi,bridge0);DrawMap2(destX  ,xi + 1 ,nb);DrawMap2(destX +1 ,xi + 1 ,nb);};
    c420:	17 32       	cpi	r17, 0x27	; 39
    c422:	09 f0       	breq	.+2      	; 0xc426 <updatelevel+0x24e>
    c424:	73 cf       	rjmp	.-282    	; 0xc30c <updatelevel+0x134>
    c426:	4d ee       	ldi	r20, 0xED	; 237
    c428:	56 e7       	ldi	r21, 0x76	; 118
    c42a:	6c 2d       	mov	r22, r12
    c42c:	80 91 5d 0a 	lds	r24, 0x0A5D	; 0x800a5d <destX>
    c430:	0e 94 c2 4d 	call	0x9b84	; 0x9b84 <DrawMap>
    c434:	80 91 5d 0a 	lds	r24, 0x0A5D	; 0x800a5d <destX>
    c438:	4d ee       	ldi	r20, 0xED	; 237
    c43a:	56 e7       	ldi	r21, 0x76	; 118
    c43c:	6c 2d       	mov	r22, r12
    c43e:	8f 5f       	subi	r24, 0xFF	; 255
    c440:	0e 94 c2 4d 	call	0x9b84	; 0x9b84 <DrawMap>
    c444:	c3 94       	inc	r12
    c446:	41 ee       	ldi	r20, 0xE1	; 225
    c448:	56 e7       	ldi	r21, 0x76	; 118
    c44a:	6c 2d       	mov	r22, r12
    c44c:	80 91 5d 0a 	lds	r24, 0x0A5D	; 0x800a5d <destX>
    c450:	0e 94 c2 4d 	call	0x9b84	; 0x9b84 <DrawMap>
    c454:	80 91 5d 0a 	lds	r24, 0x0A5D	; 0x800a5d <destX>
    c458:	41 ee       	ldi	r20, 0xE1	; 225
    c45a:	56 e7       	ldi	r21, 0x76	; 118
    c45c:	2f c0       	rjmp	.+94     	; 0xc4bc <updatelevel+0x2e4>
    if ( c == 21 ) {
        makeWater(destX,xi,scrolltiles);
    }
    if ( c == 25 ) DrawMap2(destX ,xi  ,door0);	
    c45e:	19 31       	cpi	r17, 0x19	; 25
    c460:	19 f4       	brne	.+6      	; 0xc468 <updatelevel+0x290>
    c462:	4d e8       	ldi	r20, 0x8D	; 141
    c464:	57 e7       	ldi	r21, 0x77	; 119
    c466:	4c cf       	rjmp	.-360    	; 0xc300 <updatelevel+0x128>
    if ( c == 26 ) DrawMap2(destX ,xi  ,door1);	
    c468:	1a 31       	cpi	r17, 0x1A	; 26
    c46a:	19 f4       	brne	.+6      	; 0xc472 <updatelevel+0x29a>
    c46c:	47 e8       	ldi	r20, 0x87	; 135
    c46e:	57 e7       	ldi	r21, 0x77	; 119
    c470:	47 cf       	rjmp	.-370    	; 0xc300 <updatelevel+0x128>
    if ( c == 27 ) DrawMap2(destX ,xi  ,door2);	
    c472:	1b 31       	cpi	r17, 0x1B	; 27
    c474:	19 f4       	brne	.+6      	; 0xc47c <updatelevel+0x2a4>
    c476:	41 e8       	ldi	r20, 0x81	; 129
    c478:	57 e7       	ldi	r21, 0x77	; 119
    c47a:	42 cf       	rjmp	.-380    	; 0xc300 <updatelevel+0x128>
    if ( c == 28 ) DrawMap2(destX ,xi  ,door3);	    
    c47c:	1c 31       	cpi	r17, 0x1C	; 28
    c47e:	19 f4       	brne	.+6      	; 0xc486 <updatelevel+0x2ae>
    c480:	4b e7       	ldi	r20, 0x7B	; 123
    c482:	57 e7       	ldi	r21, 0x77	; 119
    c484:	3d cf       	rjmp	.-390    	; 0xc300 <updatelevel+0x128>
    if ( c == 29 ) {DrawMap2(destX ,xi  ,spike0);DrawMap2(destX + 1,xi  ,spike0);};	
    c486:	1d 31       	cpi	r17, 0x1D	; 29
    c488:	61 f4       	brne	.+24     	; 0xc4a2 <updatelevel+0x2ca>
    c48a:	4d e6       	ldi	r20, 0x6D	; 109
    c48c:	56 e7       	ldi	r21, 0x76	; 118
    c48e:	6c 2d       	mov	r22, r12
    c490:	80 91 5d 0a 	lds	r24, 0x0A5D	; 0x800a5d <destX>
    c494:	0e 94 c2 4d 	call	0x9b84	; 0x9b84 <DrawMap>
    c498:	80 91 5d 0a 	lds	r24, 0x0A5D	; 0x800a5d <destX>
    c49c:	4d e6       	ldi	r20, 0x6D	; 109
    c49e:	56 e7       	ldi	r21, 0x76	; 118
    c4a0:	0d c0       	rjmp	.+26     	; 0xc4bc <updatelevel+0x2e4>
    if ( c == 30 ) {DrawMap2(destX ,xi  ,spike1);DrawMap2(destX + 1,xi  ,spike1);};
    c4a2:	1e 31       	cpi	r17, 0x1E	; 30
    c4a4:	71 f4       	brne	.+28     	; 0xc4c2 <updatelevel+0x2ea>
    c4a6:	49 e6       	ldi	r20, 0x69	; 105
    c4a8:	56 e7       	ldi	r21, 0x76	; 118
    c4aa:	6c 2d       	mov	r22, r12
    c4ac:	80 91 5d 0a 	lds	r24, 0x0A5D	; 0x800a5d <destX>
    c4b0:	0e 94 c2 4d 	call	0x9b84	; 0x9b84 <DrawMap>
    c4b4:	80 91 5d 0a 	lds	r24, 0x0A5D	; 0x800a5d <destX>
    c4b8:	49 e6       	ldi	r20, 0x69	; 105
    c4ba:	56 e7       	ldi	r21, 0x76	; 118
    c4bc:	6c 2d       	mov	r22, r12
    c4be:	8f 5f       	subi	r24, 0xFF	; 255
    c4c0:	22 cf       	rjmp	.-444    	; 0xc306 <updatelevel+0x12e>
    if ( c == 41 ) DrawMap2(destX ,xi  ,diamond0);
    c4c2:	19 32       	cpi	r17, 0x29	; 41
    c4c4:	19 f4       	brne	.+6      	; 0xc4cc <updatelevel+0x2f4>
    c4c6:	49 e6       	ldi	r20, 0x69	; 105
    c4c8:	57 e7       	ldi	r21, 0x77	; 119
    c4ca:	1a cf       	rjmp	.-460    	; 0xc300 <updatelevel+0x128>
    if ( c == 50 ) {DrawMap2(destX,xi  ,bigblue0);setowl(  destX ,xi );};
    c4cc:	12 33       	cpi	r17, 0x32	; 50
    c4ce:	71 f4       	brne	.+28     	; 0xc4ec <updatelevel+0x314>
    c4d0:	4b ec       	ldi	r20, 0xCB	; 203
    c4d2:	57 e7       	ldi	r21, 0x77	; 119
    c4d4:	6c 2d       	mov	r22, r12
    c4d6:	80 91 5d 0a 	lds	r24, 0x0A5D	; 0x800a5d <destX>
    c4da:	0e 94 c2 4d 	call	0x9b84	; 0x9b84 <DrawMap>
    c4de:	80 91 5d 0a 	lds	r24, 0x0A5D	; 0x800a5d <destX>
    c4e2:	b6 01       	movw	r22, r12
    c4e4:	90 e0       	ldi	r25, 0x00	; 0
    c4e6:	0e 94 0e 5f 	call	0xbe1c	; 0xbe1c <setowl>
    c4ea:	1c cf       	rjmp	.-456    	; 0xc324 <updatelevel+0x14c>
    if ( c == 51 ) {DrawMap2(destX,xi  ,bigblue0);setblob( destX ,xi );};
    c4ec:	13 33       	cpi	r17, 0x33	; 51
    c4ee:	09 f0       	breq	.+2      	; 0xc4f2 <updatelevel+0x31a>
    c4f0:	19 cf       	rjmp	.-462    	; 0xc324 <updatelevel+0x14c>
    c4f2:	4b ec       	ldi	r20, 0xCB	; 203
    c4f4:	57 e7       	ldi	r21, 0x77	; 119
    c4f6:	6c 2d       	mov	r22, r12
    c4f8:	80 91 5d 0a 	lds	r24, 0x0A5D	; 0x800a5d <destX>
    c4fc:	0e 94 c2 4d 	call	0x9b84	; 0x9b84 <DrawMap>
    c500:	80 91 5d 0a 	lds	r24, 0x0A5D	; 0x800a5d <destX>
    c504:	b6 01       	movw	r22, r12
    c506:	90 e0       	ldi	r25, 0x00	; 0
    c508:	0e 94 4b 5f 	call	0xbe96	; 0xbe96 <setblob>
    c50c:	0b cf       	rjmp	.-490    	; 0xc324 <updatelevel+0x14c>
    
destX = destX + 2;
if(destX>=32){
    destX=0;
}
}
    c50e:	df 91       	pop	r29
    c510:	cf 91       	pop	r28
    c512:	1f 91       	pop	r17
    c514:	ff 90       	pop	r15
    c516:	ef 90       	pop	r14
    c518:	df 90       	pop	r13
    c51a:	cf 90       	pop	r12
    c51c:	08 95       	ret

0000c51e <initmonster>:
MonsteronScreen = true;    
}

void initmonster()
{
owl.onscreen = false;   
    c51e:	10 92 5b 0a 	sts	0x0A5B, r1	; 0x800a5b <owl+0x9>
blob.onscreen = false;   
    c522:	10 92 63 09 	sts	0x0963, r1	; 0x800963 <blob+0x9>
MonsteronScreen = false;
    c526:	10 92 34 0a 	sts	0x0A34, r1	; 0x800a34 <MonsteronScreen>
    c52a:	08 95       	ret

0000c52c <movelevel>:
}

void movelevel()
{
if (player2.x >= 150 && (scrolltiles + 15 <= levelwidth ) || player.x >= 150 && (scrolltiles + 15 <= levelwidth )) {
    c52c:	80 91 35 0a 	lds	r24, 0x0A35	; 0x800a35 <player2>
    c530:	90 91 36 0a 	lds	r25, 0x0A36	; 0x800a36 <player2+0x1>
    c534:	86 39       	cpi	r24, 0x96	; 150
    c536:	91 05       	cpc	r25, r1
    c538:	3c f4       	brge	.+14     	; 0xc548 <movelevel+0x1c>
    c53a:	80 91 65 09 	lds	r24, 0x0965	; 0x800965 <player>
    c53e:	90 91 66 09 	lds	r25, 0x0966	; 0x800966 <player+0x1>
    c542:	86 39       	cpi	r24, 0x96	; 150
    c544:	91 05       	cpc	r25, r1
    c546:	dc f1       	brlt	.+118    	; 0xc5be <movelevel+0x92>
    c548:	80 91 de 0a 	lds	r24, 0x0ADE	; 0x800ade <scrolltiles>
    c54c:	90 e0       	ldi	r25, 0x00	; 0
    c54e:	8c 34       	cpi	r24, 0x4C	; 76
    c550:	91 05       	cpc	r25, r1
    c552:	ac f5       	brge	.+106    	; 0xc5be <movelevel+0x92>
Scroll(1 ,0);   
    c554:	60 e0       	ldi	r22, 0x00	; 0
    c556:	81 e0       	ldi	r24, 0x01	; 1
    c558:	0e 94 2e 4d 	call	0x9a5c	; 0x9a5c <Scroll>
Levelx  = Levelx + 1;
    c55c:	80 91 9b 0a 	lds	r24, 0x0A9B	; 0x800a9b <Levelx>
    c560:	8f 5f       	subi	r24, 0xFF	; 255
    c562:	80 93 9b 0a 	sts	0x0A9B, r24	; 0x800a9b <Levelx>
player.x = player.x - 1;
    c566:	80 91 65 09 	lds	r24, 0x0965	; 0x800965 <player>
    c56a:	90 91 66 09 	lds	r25, 0x0966	; 0x800966 <player+0x1>
    c56e:	01 97       	sbiw	r24, 0x01	; 1
    c570:	90 93 66 09 	sts	0x0966, r25	; 0x800966 <player+0x1>
    c574:	80 93 65 09 	sts	0x0965, r24	; 0x800965 <player>
player2.x = player2.x -1;  
    c578:	80 91 35 0a 	lds	r24, 0x0A35	; 0x800a35 <player2>
    c57c:	90 91 36 0a 	lds	r25, 0x0A36	; 0x800a36 <player2+0x1>
    c580:	01 97       	sbiw	r24, 0x01	; 1
    c582:	90 93 36 0a 	sts	0x0A36, r25	; 0x800a36 <player2+0x1>
    c586:	80 93 35 0a 	sts	0x0A35, r24	; 0x800a35 <player2>
levMovedCnt = levMovedCnt + 1;
    c58a:	80 91 c1 09 	lds	r24, 0x09C1	; 0x8009c1 <levMovedCnt>
    c58e:	90 91 c2 09 	lds	r25, 0x09C2	; 0x8009c2 <levMovedCnt+0x1>
    c592:	01 96       	adiw	r24, 0x01	; 1
    c594:	90 93 c2 09 	sts	0x09C2, r25	; 0x8009c2 <levMovedCnt+0x1>
    c598:	80 93 c1 09 	sts	0x09C1, r24	; 0x8009c1 <levMovedCnt>


scrollmonster(-1);
    c59c:	8f ef       	ldi	r24, 0xFF	; 255
    c59e:	9f ef       	ldi	r25, 0xFF	; 255
    c5a0:	0e 94 e8 5e 	call	0xbdd0	; 0xbdd0 <scrollmonster>
if ( Levelx >= 16 )
    c5a4:	80 91 9b 0a 	lds	r24, 0x0A9B	; 0x800a9b <Levelx>
    c5a8:	80 31       	cpi	r24, 0x10	; 16
    c5aa:	48 f0       	brcs	.+18     	; 0xc5be <movelevel+0x92>
{
updatelevel();
    c5ac:	0e 94 ec 60 	call	0xc1d8	; 0xc1d8 <updatelevel>
scrolltiles++; 
    c5b0:	80 91 de 0a 	lds	r24, 0x0ADE	; 0x800ade <scrolltiles>
    c5b4:	8f 5f       	subi	r24, 0xFF	; 255
    c5b6:	80 93 de 0a 	sts	0x0ADE, r24	; 0x800ade <scrolltiles>
Levelx = 0;    
    c5ba:	10 92 9b 0a 	sts	0x0A9B, r1	; 0x800a9b <Levelx>
    c5be:	08 95       	ret

0000c5c0 <updatetime>:
void vsync_callback() {
	time++;
}

void updatetime(uint32_t val)
{
    c5c0:	cf 92       	push	r12
    c5c2:	df 92       	push	r13
    c5c4:	ef 92       	push	r14
    c5c6:	ff 92       	push	r15
	uint32_t tmp;
	tmp = val;
	tmp /= 60;
    c5c8:	2c e3       	ldi	r18, 0x3C	; 60
    c5ca:	30 e0       	ldi	r19, 0x00	; 0
    c5cc:	40 e0       	ldi	r20, 0x00	; 0
    c5ce:	50 e0       	ldi	r21, 0x00	; 0
    c5d0:	0e 94 36 68 	call	0xd06c	; 0xd06c <__udivmodsi4>
    tmp = 99 - tmp ;
    c5d4:	83 e6       	ldi	r24, 0x63	; 99
    c5d6:	c8 2e       	mov	r12, r24
    c5d8:	d1 2c       	mov	r13, r1
    c5da:	e1 2c       	mov	r14, r1
    c5dc:	f1 2c       	mov	r15, r1
    c5de:	c2 1a       	sub	r12, r18
    c5e0:	d3 0a       	sbc	r13, r19
    c5e2:	e4 0a       	sbc	r14, r20
    c5e4:	f5 0a       	sbc	r15, r21
    if ( leveltime >  tmp || leveltime  == 0  ) printtileint( 26 ,0,leveltime,2); 
    c5e6:	40 91 98 0a 	lds	r20, 0x0A98	; 0x800a98 <leveltime>
    c5ea:	84 2f       	mov	r24, r20
    c5ec:	90 e0       	ldi	r25, 0x00	; 0
    c5ee:	a0 e0       	ldi	r26, 0x00	; 0
    c5f0:	b0 e0       	ldi	r27, 0x00	; 0
    c5f2:	c8 16       	cp	r12, r24
    c5f4:	d9 06       	cpc	r13, r25
    c5f6:	ea 06       	cpc	r14, r26
    c5f8:	fb 06       	cpc	r15, r27
    c5fa:	10 f0       	brcs	.+4      	; 0xc600 <updatetime+0x40>
    c5fc:	41 11       	cpse	r20, r1
    c5fe:	09 c0       	rjmp	.+18     	; 0xc612 <updatetime+0x52>
    c600:	50 e0       	ldi	r21, 0x00	; 0
    c602:	22 e0       	ldi	r18, 0x02	; 2
    c604:	30 e0       	ldi	r19, 0x00	; 0
    c606:	60 e0       	ldi	r22, 0x00	; 0
    c608:	70 e0       	ldi	r23, 0x00	; 0
    c60a:	8a e1       	ldi	r24, 0x1A	; 26
    c60c:	90 e0       	ldi	r25, 0x00	; 0
    c60e:	0e 94 d6 4f 	call	0x9fac	; 0x9fac <printtileint>
    leveltime = tmp;
    c612:	c0 92 98 0a 	sts	0x0A98, r12	; 0x800a98 <leveltime>
    if (leveltime == 0 ) timeisup = true;
    c616:	c1 10       	cpse	r12, r1
    c618:	03 c0       	rjmp	.+6      	; 0xc620 <updatetime+0x60>
    c61a:	81 e0       	ldi	r24, 0x01	; 1
    c61c:	80 93 59 09 	sts	0x0959, r24	; 0x800959 <timeisup>
    
}
    c620:	ff 90       	pop	r15
    c622:	ef 90       	pop	r14
    c624:	df 90       	pop	r13
    c626:	cf 90       	pop	r12
    c628:	08 95       	ret

0000c62a <playintro>:

void playintro()
{
    c62a:	0f 93       	push	r16
    c62c:	cf 93       	push	r28
    c62e:	df 93       	push	r29

introplaying = true;
    c630:	c1 e0       	ldi	r28, 0x01	; 1
    c632:	c0 93 81 09 	sts	0x0981, r28	; 0x800981 <introplaying>
Levelx = 0;
    c636:	10 92 9b 0a 	sts	0x0A9B, r1	; 0x800a9b <Levelx>
scrolltiles = 0;
    c63a:	10 92 de 0a 	sts	0x0ADE, r1	; 0x800ade <scrolltiles>
player2.speed = 1;
    c63e:	21 e0       	ldi	r18, 0x01	; 1
    c640:	30 e0       	ldi	r19, 0x00	; 0
    c642:	30 93 3a 0a 	sts	0x0A3A, r19	; 0x800a3a <player2+0x5>
    c646:	20 93 39 0a 	sts	0x0A39, r18	; 0x800a39 <player2+0x4>
player2.x = 38;
    c64a:	86 e2       	ldi	r24, 0x26	; 38
    c64c:	90 e0       	ldi	r25, 0x00	; 0
    c64e:	90 93 36 0a 	sts	0x0A36, r25	; 0x800a36 <player2+0x1>
    c652:	80 93 35 0a 	sts	0x0A35, r24	; 0x800a35 <player2>
player2.y = 191;
    c656:	8f eb       	ldi	r24, 0xBF	; 191
    c658:	90 e0       	ldi	r25, 0x00	; 0
    c65a:	90 93 38 0a 	sts	0x0A38, r25	; 0x800a38 <player2+0x3>
    c65e:	80 93 37 0a 	sts	0x0A37, r24	; 0x800a37 <player2+0x2>
player2.touchground = true;
    c662:	c0 93 46 0a 	sts	0x0A46, r28	; 0x800a46 <player2+0x11>
player2.jumping = false;
    c666:	10 92 49 0a 	sts	0x0A49, r1	; 0x800a49 <player2+0x14>
player2.jumpreleased = true;
    c66a:	c0 93 4a 0a 	sts	0x0A4A, r28	; 0x800a4a <player2+0x15>
player.speed = 1;
    c66e:	30 93 6a 09 	sts	0x096A, r19	; 0x80096a <player+0x5>
    c672:	20 93 69 09 	sts	0x0969, r18	; 0x800969 <player+0x4>
player.x = 8;
    c676:	28 e0       	ldi	r18, 0x08	; 8
    c678:	30 e0       	ldi	r19, 0x00	; 0
    c67a:	30 93 66 09 	sts	0x0966, r19	; 0x800966 <player+0x1>
    c67e:	20 93 65 09 	sts	0x0965, r18	; 0x800965 <player>
player.y = 191;
    c682:	90 93 68 09 	sts	0x0968, r25	; 0x800968 <player+0x3>
    c686:	80 93 67 09 	sts	0x0967, r24	; 0x800967 <player+0x2>
player.touchground = true;
    c68a:	c0 93 76 09 	sts	0x0976, r28	; 0x800976 <player+0x11>
player.jumping = false;
    c68e:	10 92 79 09 	sts	0x0979, r1	; 0x800979 <player+0x14>
player.jumpreleased = true;
    c692:	c0 93 7a 09 	sts	0x097A, r28	; 0x80097a <player+0x15>
player.killer = false;
    c696:	10 92 7e 09 	sts	0x097E, r1	; 0x80097e <player+0x19>
initlevel();
    c69a:	0e 94 08 51 	call	0xa210	; 0xa210 <initlevel>
initmonster();
    c69e:	0e 94 8f 62 	call	0xc51e	; 0xc51e <initmonster>
setheadline();    
    c6a2:	0e 94 9a 58 	call	0xb134	; 0xb134 <setheadline>
drawlevel(Levelx);
    c6a6:	80 91 9b 0a 	lds	r24, 0x0A9B	; 0x800a9b <Levelx>
    c6aa:	90 e0       	ldi	r25, 0x00	; 0
    c6ac:	0e 94 88 5f 	call	0xbf10	; 0xbf10 <drawlevel>
setheadline();
    c6b0:	0e 94 9a 58 	call	0xb134	; 0xb134 <setheadline>
MapSprite2(0 ,pac0 ,0);
    c6b4:	40 e0       	ldi	r20, 0x00	; 0
    c6b6:	63 e2       	ldi	r22, 0x23	; 35
    c6b8:	77 e4       	ldi	r23, 0x47	; 71
    c6ba:	80 e0       	ldi	r24, 0x00	; 0
    c6bc:	0e 94 48 4d 	call	0x9a90	; 0x9a90 <MapSprite2>
MapSprite2(spriteInd ,run0,0);
    c6c0:	40 e0       	ldi	r20, 0x00	; 0
    c6c2:	65 e0       	ldi	r22, 0x05	; 5
    c6c4:	77 e4       	ldi	r23, 0x47	; 71
    c6c6:	8a e0       	ldi	r24, 0x0A	; 10
    c6c8:	0e 94 48 4d 	call	0x9a90	; 0x9a90 <MapSprite2>
MapSprite2(owlIndex ,owl0 ,0);      
    c6cc:	40 e0       	ldi	r20, 0x00	; 0
    c6ce:	61 e1       	ldi	r22, 0x11	; 17
    c6d0:	77 e4       	ldi	r23, 0x47	; 71
    c6d2:	86 e0       	ldi	r24, 0x06	; 6
    c6d4:	0e 94 48 4d 	call	0x9a90	; 0x9a90 <MapSprite2>
score = 0;
    c6d8:	10 92 c6 09 	sts	0x09C6, r1	; 0x8009c6 <score+0x1>
    c6dc:	10 92 c5 09 	sts	0x09C5, r1	; 0x8009c5 <score>
leveltime = 99;
    c6e0:	83 e6       	ldi	r24, 0x63	; 99
    c6e2:	80 93 98 0a 	sts	0x0A98, r24	; 0x800a98 <leveltime>
time = 0;
    c6e6:	10 92 30 0a 	sts	0x0A30, r1	; 0x800a30 <time>
    c6ea:	10 92 31 0a 	sts	0x0A31, r1	; 0x800a31 <time+0x1>
    c6ee:	10 92 32 0a 	sts	0x0A32, r1	; 0x800a32 <time+0x2>
    c6f2:	10 92 33 0a 	sts	0x0A33, r1	; 0x800a33 <time+0x3>
lives = 3;    
    c6f6:	83 e0       	ldi	r24, 0x03	; 3
    c6f8:	80 93 51 0a 	sts	0x0A51, r24	; 0x800a51 <lives>
level = 0;
    c6fc:	10 92 dd 09 	sts	0x09DD, r1	; 0x8009dd <level>
bonus = 0;
    c700:	10 92 95 0a 	sts	0x0A95, r1	; 0x800a95 <bonus+0x1>
    c704:	10 92 94 0a 	sts	0x0A94, r1	; 0x800a94 <bonus>
scrolltiles = 0;
    c708:	10 92 de 0a 	sts	0x0ADE, r1	; 0x800ade <scrolltiles>
Screen.scrollX = 0;
    c70c:	10 92 60 08 	sts	0x0860, r1	; 0x800860 <screen_scrollX>
destX = 0;
    c710:	10 92 5d 0a 	sts	0x0A5D, r1	; 0x800a5d <destX>
Levelx = 0;
    c714:	10 92 9b 0a 	sts	0x0A9B, r1	; 0x800a9b <Levelx>
setheadline();
    c718:	0e 94 9a 58 	call	0xb134	; 0xb134 <setheadline>
printheadlineintro();
    c71c:	0e 94 f9 52 	call	0xa5f2	; 0xa5f2 <printheadlineintro>
player.direction = 'r';
    c720:	92 e7       	ldi	r25, 0x72	; 114
    c722:	90 93 73 09 	sts	0x0973, r25	; 0x800973 <player+0xe>
player.action = 'w';
    c726:	87 e7       	ldi	r24, 0x77	; 119
    c728:	80 93 72 09 	sts	0x0972, r24	; 0x800972 <player+0xd>
player.facing = 0;
    c72c:	10 92 71 09 	sts	0x0971, r1	; 0x800971 <player+0xc>
    c730:	10 92 70 09 	sts	0x0970, r1	; 0x800970 <player+0xb>
player.ximpulse = 1; 
    c734:	c0 93 77 09 	sts	0x0977, r28	; 0x800977 <player+0x12>
player2.direction = 'r';
    c738:	90 93 43 0a 	sts	0x0A43, r25	; 0x800a43 <player2+0xe>
player2.action = 'w';
    c73c:	80 93 42 0a 	sts	0x0A42, r24	; 0x800a42 <player2+0xd>
player2.facing = 0;
    c740:	10 92 41 0a 	sts	0x0A41, r1	; 0x800a41 <player2+0xc>
    c744:	10 92 40 0a 	sts	0x0A40, r1	; 0x800a40 <player2+0xb>
player2.ximpulse = 1; 
    c748:	c0 93 47 0a 	sts	0x0A47, r28	; 0x800a47 <player2+0x12>
FadeIn(1, true);
    c74c:	61 e0       	ldi	r22, 0x01	; 1
    c74e:	81 e0       	ldi	r24, 0x01	; 1
    c750:	0e 94 5d 4e 	call	0x9cba	; 0x9cba <FadeIn>


if  (( player.x == 119 && scrolltiles == 16 && Levelx == 2 ) || ( player.x == 119 && scrolltiles == 23 && Levelx == 10 ) || ( player.x == 119 && scrolltiles == 32 && Levelx == 10 )  || ( player.x == 119 && scrolltiles == 42 && Levelx == 10 ) || ( player.x == 119 && scrolltiles == 36 && Levelx == 10 ) )
{
//DrawMap2(  lx,  18 ,press0 );
player.action = 'j';
    c754:	da e6       	ldi	r29, 0x6A	; 106
player2.direction = 'r';
player2.action = 'w';
player2.facing = 0;
player2.ximpulse = 1; 
FadeIn(1, true);
while(introplaying )
    c756:	80 91 81 09 	lds	r24, 0x0981	; 0x800981 <introplaying>
    c75a:	88 23       	and	r24, r24
    c75c:	09 f4       	brne	.+2      	; 0xc760 <playintro+0x136>
    c75e:	10 c1       	rjmp	.+544    	; 0xc980 <playintro+0x356>
{
moveplayer();  
    c760:	0e 94 bf 5b 	call	0xb77e	; 0xb77e <moveplayer>
moveplayer2();
    c764:	0e 94 12 56 	call	0xac24	; 0xac24 <moveplayer2>
movemonster(); 
    c768:	0e 94 23 59 	call	0xb246	; 0xb246 <movemonster>
WaitVsync(1); 
    c76c:	81 e0       	ldi	r24, 0x01	; 1
    c76e:	90 e0       	ldi	r25, 0x00	; 0
    c770:	0e 94 01 4e 	call	0x9c02	; 0x9c02 <WaitVsync>
drawmonster();       
    c774:	0e 94 a7 58 	call	0xb14e	; 0xb14e <drawmonster>
movelevel();
    c778:	0e 94 96 62 	call	0xc52c	; 0xc52c <movelevel>
drawplayer();
    c77c:	0e 94 b2 4e 	call	0x9d64	; 0x9d64 <drawplayer>
drawplayer2();   
    c780:	0e 94 48 4f 	call	0x9e90	; 0x9e90 <drawplayer2>
//drawlevel(Levelx);  
updateWater(); 
    c784:	0e 94 6b 51 	call	0xa2d6	; 0xa2d6 <updateWater>
  



player.ximpulse = 1;
    c788:	c0 93 77 09 	sts	0x0977, r28	; 0x800977 <player+0x12>
player2.ximpulse = 1;
    c78c:	c0 93 47 0a 	sts	0x0A47, r28	; 0x800a47 <player2+0x12>
if ( time <= 210 && introplaying ){
    c790:	40 91 30 0a 	lds	r20, 0x0A30	; 0x800a30 <time>
    c794:	50 91 31 0a 	lds	r21, 0x0A31	; 0x800a31 <time+0x1>
    c798:	60 91 32 0a 	lds	r22, 0x0A32	; 0x800a32 <time+0x2>
    c79c:	70 91 33 0a 	lds	r23, 0x0A33	; 0x800a33 <time+0x3>
    c7a0:	43 3d       	cpi	r20, 0xD3	; 211
    c7a2:	51 05       	cpc	r21, r1
    c7a4:	61 05       	cpc	r22, r1
    c7a6:	71 05       	cpc	r23, r1
    c7a8:	40 f4       	brcc	.+16     	; 0xc7ba <playintro+0x190>
    c7aa:	80 91 81 09 	lds	r24, 0x0981	; 0x800981 <introplaying>
    c7ae:	88 23       	and	r24, r24
    c7b0:	21 f0       	breq	.+8      	; 0xc7ba <playintro+0x190>
    player.ximpulse = 0; 
    c7b2:	10 92 77 09 	sts	0x0977, r1	; 0x800977 <player+0x12>
    player2.ximpulse = 0;
    c7b6:	10 92 47 0a 	sts	0x0A47, r1	; 0x800a47 <player2+0x12>
};
    lx = 12 + destX;
    c7ba:	80 91 5d 0a 	lds	r24, 0x0A5D	; 0x800a5d <destX>
    c7be:	90 e0       	ldi	r25, 0x00	; 0
    c7c0:	9c 01       	movw	r18, r24
    c7c2:	24 5f       	subi	r18, 0xF4	; 244
    c7c4:	3f 4f       	sbci	r19, 0xFF	; 255
    if (lx >= 32 ) lx = lx - 32;
    c7c6:	20 32       	cpi	r18, 0x20	; 32
    c7c8:	31 05       	cpc	r19, r1
    c7ca:	2c f4       	brge	.+10     	; 0xc7d6 <playintro+0x1ac>
player2.ximpulse = 1;
if ( time <= 210 && introplaying ){
    player.ximpulse = 0; 
    player2.ximpulse = 0;
};
    lx = 12 + destX;
    c7cc:	30 93 9e 0a 	sts	0x0A9E, r19	; 0x800a9e <lx+0x1>
    c7d0:	20 93 9d 0a 	sts	0x0A9D, r18	; 0x800a9d <lx>
    c7d4:	05 c0       	rjmp	.+10     	; 0xc7e0 <playintro+0x1b6>
    if (lx >= 32 ) lx = lx - 32;
    c7d6:	44 97       	sbiw	r24, 0x14	; 20
    c7d8:	90 93 9e 0a 	sts	0x0A9E, r25	; 0x800a9e <lx+0x1>
    c7dc:	80 93 9d 0a 	sts	0x0A9D, r24	; 0x800a9d <lx>
    
if ( ( time ==  60  || time ==  240  ) && introplaying ) DrawMap2(  lx,  18 ,press0 ); 
    c7e0:	4c 33       	cpi	r20, 0x3C	; 60
    c7e2:	51 05       	cpc	r21, r1
    c7e4:	61 05       	cpc	r22, r1
    c7e6:	71 05       	cpc	r23, r1
    c7e8:	29 f0       	breq	.+10     	; 0xc7f4 <playintro+0x1ca>
    c7ea:	40 3f       	cpi	r20, 0xF0	; 240
    c7ec:	51 05       	cpc	r21, r1
    c7ee:	61 05       	cpc	r22, r1
    c7f0:	71 05       	cpc	r23, r1
    c7f2:	59 f4       	brne	.+22     	; 0xc80a <playintro+0x1e0>
    c7f4:	80 91 81 09 	lds	r24, 0x0981	; 0x800981 <introplaying>
    c7f8:	88 23       	and	r24, r24
    c7fa:	39 f0       	breq	.+14     	; 0xc80a <playintro+0x1e0>
    c7fc:	4e e8       	ldi	r20, 0x8E	; 142
    c7fe:	56 e7       	ldi	r21, 0x76	; 118
    c800:	62 e1       	ldi	r22, 0x12	; 18
    c802:	80 91 9d 0a 	lds	r24, 0x0A9D	; 0x800a9d <lx>
    c806:	0e 94 c2 4d 	call	0x9b84	; 0x9b84 <DrawMap>
if ( ( time ==  150 || time ==  330  ) && introplaying ) {
    c80a:	80 91 30 0a 	lds	r24, 0x0A30	; 0x800a30 <time>
    c80e:	90 91 31 0a 	lds	r25, 0x0A31	; 0x800a31 <time+0x1>
    c812:	a0 91 32 0a 	lds	r26, 0x0A32	; 0x800a32 <time+0x2>
    c816:	b0 91 33 0a 	lds	r27, 0x0A33	; 0x800a33 <time+0x3>
    c81a:	86 39       	cpi	r24, 0x96	; 150
    c81c:	91 05       	cpc	r25, r1
    c81e:	a1 05       	cpc	r26, r1
    c820:	b1 05       	cpc	r27, r1
    c822:	31 f0       	breq	.+12     	; 0xc830 <playintro+0x206>
    c824:	8a 34       	cpi	r24, 0x4A	; 74
    c826:	91 40       	sbci	r25, 0x01	; 1
    c828:	a1 05       	cpc	r26, r1
    c82a:	b1 05       	cpc	r27, r1
    c82c:	09 f0       	breq	.+2      	; 0xc830 <playintro+0x206>
    c82e:	44 c0       	rjmp	.+136    	; 0xc8b8 <playintro+0x28e>
    c830:	80 91 81 09 	lds	r24, 0x0981	; 0x800981 <introplaying>
    c834:	88 23       	and	r24, r24
    c836:	09 f4       	brne	.+2      	; 0xc83a <playintro+0x210>
    c838:	3f c0       	rjmp	.+126    	; 0xc8b8 <playintro+0x28e>
    DrawMap2(  lx,  18 ,nb );   
    c83a:	41 ee       	ldi	r20, 0xE1	; 225
    c83c:	56 e7       	ldi	r21, 0x76	; 118
    c83e:	62 e1       	ldi	r22, 0x12	; 18
    c840:	80 91 9d 0a 	lds	r24, 0x0A9D	; 0x800a9d <lx>
    c844:	0e 94 c2 4d 	call	0x9b84	; 0x9b84 <DrawMap>
    DrawMap2(  lx + 1,  18 ,nb ); 
    c848:	80 91 9d 0a 	lds	r24, 0x0A9D	; 0x800a9d <lx>
    c84c:	41 ee       	ldi	r20, 0xE1	; 225
    c84e:	56 e7       	ldi	r21, 0x76	; 118
    c850:	62 e1       	ldi	r22, 0x12	; 18
    c852:	8f 5f       	subi	r24, 0xFF	; 255
    c854:	0e 94 c2 4d 	call	0x9b84	; 0x9b84 <DrawMap>
    DrawMap2(  lx + 2,  18 ,nb ); 
    c858:	80 91 9d 0a 	lds	r24, 0x0A9D	; 0x800a9d <lx>
    c85c:	41 ee       	ldi	r20, 0xE1	; 225
    c85e:	56 e7       	ldi	r21, 0x76	; 118
    c860:	62 e1       	ldi	r22, 0x12	; 18
    c862:	8e 5f       	subi	r24, 0xFE	; 254
    c864:	0e 94 c2 4d 	call	0x9b84	; 0x9b84 <DrawMap>
    DrawMap2(  lx + 3,  18 ,nb ); 
    c868:	80 91 9d 0a 	lds	r24, 0x0A9D	; 0x800a9d <lx>
    c86c:	41 ee       	ldi	r20, 0xE1	; 225
    c86e:	56 e7       	ldi	r21, 0x76	; 118
    c870:	62 e1       	ldi	r22, 0x12	; 18
    c872:	8d 5f       	subi	r24, 0xFD	; 253
    c874:	0e 94 c2 4d 	call	0x9b84	; 0x9b84 <DrawMap>
    DrawMap2(  lx + 4,  18 ,nb ); 
    c878:	80 91 9d 0a 	lds	r24, 0x0A9D	; 0x800a9d <lx>
    c87c:	41 ee       	ldi	r20, 0xE1	; 225
    c87e:	56 e7       	ldi	r21, 0x76	; 118
    c880:	62 e1       	ldi	r22, 0x12	; 18
    c882:	8c 5f       	subi	r24, 0xFC	; 252
    c884:	0e 94 c2 4d 	call	0x9b84	; 0x9b84 <DrawMap>
    DrawMap2(  lx + 5,  18 ,nb ); 
    c888:	80 91 9d 0a 	lds	r24, 0x0A9D	; 0x800a9d <lx>
    c88c:	41 ee       	ldi	r20, 0xE1	; 225
    c88e:	56 e7       	ldi	r21, 0x76	; 118
    c890:	62 e1       	ldi	r22, 0x12	; 18
    c892:	8b 5f       	subi	r24, 0xFB	; 251
    c894:	0e 94 c2 4d 	call	0x9b84	; 0x9b84 <DrawMap>
    DrawMap2(  lx + 6,  18 ,nb ); 
    c898:	80 91 9d 0a 	lds	r24, 0x0A9D	; 0x800a9d <lx>
    c89c:	41 ee       	ldi	r20, 0xE1	; 225
    c89e:	56 e7       	ldi	r21, 0x76	; 118
    c8a0:	62 e1       	ldi	r22, 0x12	; 18
    c8a2:	8a 5f       	subi	r24, 0xFA	; 250
    c8a4:	0e 94 c2 4d 	call	0x9b84	; 0x9b84 <DrawMap>
    DrawMap2(  lx + 7,  18 ,nb ); 
    c8a8:	80 91 9d 0a 	lds	r24, 0x0A9D	; 0x800a9d <lx>
    c8ac:	41 ee       	ldi	r20, 0xE1	; 225
    c8ae:	56 e7       	ldi	r21, 0x76	; 118
    c8b0:	62 e1       	ldi	r22, 0x12	; 18
    c8b2:	89 5f       	subi	r24, 0xF9	; 249
    c8b4:	0e 94 c2 4d 	call	0x9b84	; 0x9b84 <DrawMap>
    
};


if  (( player.x == 119 && scrolltiles == 16 && Levelx == 2 ) || ( player.x == 119 && scrolltiles == 23 && Levelx == 10 ) || ( player.x == 119 && scrolltiles == 32 && Levelx == 10 )  || ( player.x == 119 && scrolltiles == 42 && Levelx == 10 ) || ( player.x == 119 && scrolltiles == 36 && Levelx == 10 ) )
    c8b8:	80 91 65 09 	lds	r24, 0x0965	; 0x800965 <player>
    c8bc:	90 91 66 09 	lds	r25, 0x0966	; 0x800966 <player+0x1>
    c8c0:	87 37       	cpi	r24, 0x77	; 119
    c8c2:	91 05       	cpc	r25, r1
    c8c4:	b9 f5       	brne	.+110    	; 0xc934 <playintro+0x30a>
    c8c6:	80 91 de 0a 	lds	r24, 0x0ADE	; 0x800ade <scrolltiles>
    c8ca:	80 31       	cpi	r24, 0x10	; 16
    c8cc:	31 f4       	brne	.+12     	; 0xc8da <playintro+0x2b0>
    c8ce:	80 91 9b 0a 	lds	r24, 0x0A9B	; 0x800a9b <Levelx>
    c8d2:	82 30       	cpi	r24, 0x02	; 2
    c8d4:	09 f0       	breq	.+2      	; 0xc8d8 <playintro+0x2ae>
    c8d6:	3f cf       	rjmp	.-386    	; 0xc756 <playintro+0x12c>
    c8d8:	0e c0       	rjmp	.+28     	; 0xc8f6 <playintro+0x2cc>
    c8da:	87 31       	cpi	r24, 0x17	; 23
    c8dc:	39 f0       	breq	.+14     	; 0xc8ec <playintro+0x2c2>
    c8de:	80 32       	cpi	r24, 0x20	; 32
    c8e0:	29 f0       	breq	.+10     	; 0xc8ec <playintro+0x2c2>
    c8e2:	8a 32       	cpi	r24, 0x2A	; 42
    c8e4:	19 f0       	breq	.+6      	; 0xc8ec <playintro+0x2c2>
    c8e6:	84 32       	cpi	r24, 0x24	; 36
    c8e8:	09 f0       	breq	.+2      	; 0xc8ec <playintro+0x2c2>
    c8ea:	35 cf       	rjmp	.-406    	; 0xc756 <playintro+0x12c>
    c8ec:	80 91 9b 0a 	lds	r24, 0x0A9B	; 0x800a9b <Levelx>
    c8f0:	8a 30       	cpi	r24, 0x0A	; 10
    c8f2:	09 f0       	breq	.+2      	; 0xc8f6 <playintro+0x2cc>
    c8f4:	30 cf       	rjmp	.-416    	; 0xc756 <playintro+0x12c>
{
//DrawMap2(  lx,  18 ,press0 );
player.action = 'j';
    c8f6:	d0 93 72 09 	sts	0x0972, r29	; 0x800972 <player+0xd>
player.yimpulse = 0;
    c8fa:	10 92 78 09 	sts	0x0978, r1	; 0x800978 <player+0x13>
player.jumping = true;
    c8fe:	c0 93 79 09 	sts	0x0979, r28	; 0x800979 <player+0x14>
player.touchground = false;
    c902:	10 92 76 09 	sts	0x0976, r1	; 0x800976 <player+0x11>
player.jumpreleased = false;
    c906:	10 92 7a 09 	sts	0x097A, r1	; 0x80097a <player+0x15>
player.jumpcounter++ ; 
    c90a:	80 91 7f 09 	lds	r24, 0x097F	; 0x80097f <player+0x1a>
    c90e:	8f 5f       	subi	r24, 0xFF	; 255
    c910:	80 93 7f 09 	sts	0x097F, r24	; 0x80097f <player+0x1a>

player2.action = 'j';
    c914:	d0 93 42 0a 	sts	0x0A42, r29	; 0x800a42 <player2+0xd>
player2.yimpulse = 0;
    c918:	10 92 48 0a 	sts	0x0A48, r1	; 0x800a48 <player2+0x13>
player2.jumping = true;
    c91c:	c0 93 49 0a 	sts	0x0A49, r28	; 0x800a49 <player2+0x14>
player2.touchground = false;
    c920:	10 92 46 0a 	sts	0x0A46, r1	; 0x800a46 <player2+0x11>
player2.jumpreleased = false;
    c924:	10 92 4a 0a 	sts	0x0A4A, r1	; 0x800a4a <player2+0x15>
player2.jumpcounter++ ; 
    c928:	80 91 4f 0a 	lds	r24, 0x0A4F	; 0x800a4f <player2+0x1a>
    c92c:	8f 5f       	subi	r24, 0xFF	; 255
    c92e:	80 93 4f 0a 	sts	0x0A4F, r24	; 0x800a4f <player2+0x1a>
    c932:	11 cf       	rjmp	.-478    	; 0xc756 <playintro+0x12c>
};  
if ( player.x  == 160 ) time = 0;   
    c934:	80 3a       	cpi	r24, 0xA0	; 160
    c936:	91 05       	cpc	r25, r1
    c938:	49 f4       	brne	.+18     	; 0xc94c <playintro+0x322>
    c93a:	10 92 30 0a 	sts	0x0A30, r1	; 0x800a30 <time>
    c93e:	10 92 31 0a 	sts	0x0A31, r1	; 0x800a31 <time+0x1>
    c942:	10 92 32 0a 	sts	0x0A32, r1	; 0x800a32 <time+0x2>
    c946:	10 92 33 0a 	sts	0x0A33, r1	; 0x800a33 <time+0x3>
    c94a:	05 cf       	rjmp	.-502    	; 0xc756 <playintro+0x12c>
if ( player.x >= 206 ) {
    c94c:	8e 3c       	cpi	r24, 0xCE	; 206
    c94e:	91 05       	cpc	r25, r1
    c950:	2c f0       	brlt	.+10     	; 0xc95c <playintro+0x332>
player.ximpulse = 0; 
    c952:	10 92 77 09 	sts	0x0977, r1	; 0x800977 <player+0x12>
player2.ximpulse = 0;
    c956:	10 92 47 0a 	sts	0x0A47, r1	; 0x800a47 <player2+0x12>
    c95a:	04 c0       	rjmp	.+8      	; 0xc964 <playintro+0x33a>
};
if ( player.x >= 180 && time > 420 ) { 
    c95c:	84 3b       	cpi	r24, 0xB4	; 180
    c95e:	91 05       	cpc	r25, r1
    c960:	0c f4       	brge	.+2      	; 0xc964 <playintro+0x33a>
    c962:	f9 ce       	rjmp	.-526    	; 0xc756 <playintro+0x12c>
    c964:	80 91 30 0a 	lds	r24, 0x0A30	; 0x800a30 <time>
    c968:	90 91 31 0a 	lds	r25, 0x0A31	; 0x800a31 <time+0x1>
    c96c:	a0 91 32 0a 	lds	r26, 0x0A32	; 0x800a32 <time+0x2>
    c970:	b0 91 33 0a 	lds	r27, 0x0A33	; 0x800a33 <time+0x3>
    c974:	85 3a       	cpi	r24, 0xA5	; 165
    c976:	91 40       	sbci	r25, 0x01	; 1
    c978:	a1 05       	cpc	r26, r1
    c97a:	b1 05       	cpc	r27, r1
    c97c:	08 f4       	brcc	.+2      	; 0xc980 <playintro+0x356>
    c97e:	eb ce       	rjmp	.-554    	; 0xc756 <playintro+0x12c>
                                 
                                      break; };
};

FadeOut(5,true); 
    c980:	61 e0       	ldi	r22, 0x01	; 1
    c982:	85 e0       	ldi	r24, 0x05	; 5
    c984:	0e 94 69 4e 	call	0x9cd2	; 0x9cd2 <FadeOut>
player.x = 8;
    c988:	88 e0       	ldi	r24, 0x08	; 8
    c98a:	90 e0       	ldi	r25, 0x00	; 0
    c98c:	90 93 66 09 	sts	0x0966, r25	; 0x800966 <player+0x1>
    c990:	80 93 65 09 	sts	0x0965, r24	; 0x800965 <player>
player.y = 191;
    c994:	cf eb       	ldi	r28, 0xBF	; 191
    c996:	d0 e0       	ldi	r29, 0x00	; 0
    c998:	d0 93 68 09 	sts	0x0968, r29	; 0x800968 <player+0x3>
    c99c:	c0 93 67 09 	sts	0x0967, r28	; 0x800967 <player+0x2>
MoveSprite(0 ,player.x -7 ,player.y - 21  ,2 ,2);
    c9a0:	02 e0       	ldi	r16, 0x02	; 2
    c9a2:	22 e0       	ldi	r18, 0x02	; 2
    c9a4:	4a ea       	ldi	r20, 0xAA	; 170
    c9a6:	61 e0       	ldi	r22, 0x01	; 1
    c9a8:	80 e0       	ldi	r24, 0x00	; 0
    c9aa:	0e 94 95 4d 	call	0x9b2a	; 0x9b2a <MoveSprite>

player2.x = 38;
    c9ae:	86 e2       	ldi	r24, 0x26	; 38
    c9b0:	90 e0       	ldi	r25, 0x00	; 0
    c9b2:	90 93 36 0a 	sts	0x0A36, r25	; 0x800a36 <player2+0x1>
    c9b6:	80 93 35 0a 	sts	0x0A35, r24	; 0x800a35 <player2>
player2.y = 191;
    c9ba:	d0 93 38 0a 	sts	0x0A38, r29	; 0x800a38 <player2+0x3>
    c9be:	c0 93 37 0a 	sts	0x0A37, r28	; 0x800a37 <player2+0x2>
MoveSprite(spriteInd ,player2.x -7 ,player2.y - 21  ,2 ,2);
    c9c2:	22 e0       	ldi	r18, 0x02	; 2
    c9c4:	4a ea       	ldi	r20, 0xAA	; 170
    c9c6:	6f e1       	ldi	r22, 0x1F	; 31
    c9c8:	8a e0       	ldi	r24, 0x0A	; 10
    c9ca:	0e 94 95 4d 	call	0x9b2a	; 0x9b2a <MoveSprite>

}
    c9ce:	df 91       	pop	r29
    c9d0:	cf 91       	pop	r28
    c9d2:	0f 91       	pop	r16
    c9d4:	08 95       	ret

0000c9d6 <showgetready>:

void showgetready()
{
    c9d6:	0f 93       	push	r16
FadeOut(0, true);
    c9d8:	61 e0       	ldi	r22, 0x01	; 1
    c9da:	80 e0       	ldi	r24, 0x00	; 0
    c9dc:	0e 94 69 4e 	call	0x9cd2	; 0x9cd2 <FadeOut>
Screen.scrollX = 0;
    c9e0:	10 92 60 08 	sts	0x0860, r1	; 0x800860 <screen_scrollX>
initlevel();
    c9e4:	0e 94 08 51 	call	0xa210	; 0xa210 <initlevel>
printheadline();
    c9e8:	0e 94 b4 52 	call	0xa568	; 0xa568 <printheadline>
printtileint( 26 ,0,99,2); 
    c9ec:	22 e0       	ldi	r18, 0x02	; 2
    c9ee:	30 e0       	ldi	r19, 0x00	; 0
    c9f0:	43 e6       	ldi	r20, 0x63	; 99
    c9f2:	50 e0       	ldi	r21, 0x00	; 0
    c9f4:	60 e0       	ldi	r22, 0x00	; 0
    c9f6:	70 e0       	ldi	r23, 0x00	; 0
    c9f8:	8a e1       	ldi	r24, 0x1A	; 26
    c9fa:	90 e0       	ldi	r25, 0x00	; 0
    c9fc:	0e 94 d6 4f 	call	0x9fac	; 0x9fac <printtileint>
MoveSprite(0 ,-20 ,-20 ,2 ,2);
    ca00:	02 e0       	ldi	r16, 0x02	; 2
    ca02:	22 e0       	ldi	r18, 0x02	; 2
    ca04:	4c ee       	ldi	r20, 0xEC	; 236
    ca06:	6c ee       	ldi	r22, 0xEC	; 236
    ca08:	80 e0       	ldi	r24, 0x00	; 0
    ca0a:	0e 94 95 4d 	call	0x9b2a	; 0x9b2a <MoveSprite>
MoveSprite(spriteInd ,-50 ,-20 ,2 ,2);
    ca0e:	22 e0       	ldi	r18, 0x02	; 2
    ca10:	4c ee       	ldi	r20, 0xEC	; 236
    ca12:	6e ec       	ldi	r22, 0xCE	; 206
    ca14:	8a e0       	ldi	r24, 0x0A	; 10
    ca16:	0e 94 95 4d 	call	0x9b2a	; 0x9b2a <MoveSprite>
MoveSprite(owlIndex ,-20 ,-20  ,2 ,2);
    ca1a:	22 e0       	ldi	r18, 0x02	; 2
    ca1c:	4c ee       	ldi	r20, 0xEC	; 236
    ca1e:	6c ee       	ldi	r22, 0xEC	; 236
    ca20:	86 e0       	ldi	r24, 0x06	; 6
    ca22:	0e 94 95 4d 	call	0x9b2a	; 0x9b2a <MoveSprite>
DrawMap2(  11, 10  ,get0 ); 
    ca26:	42 ea       	ldi	r20, 0xA2	; 162
    ca28:	56 e7       	ldi	r21, 0x76	; 118
    ca2a:	6a e0       	ldi	r22, 0x0A	; 10
    ca2c:	8b e0       	ldi	r24, 0x0B	; 11
    ca2e:	0e 94 c2 4d 	call	0x9b84	; 0x9b84 <DrawMap>
WaitVsync(1);  
    ca32:	81 e0       	ldi	r24, 0x01	; 1
    ca34:	90 e0       	ldi	r25, 0x00	; 0
    ca36:	0e 94 01 4e 	call	0x9c02	; 0x9c02 <WaitVsync>
FadeIn(0, true);
    ca3a:	61 e0       	ldi	r22, 0x01	; 1
    ca3c:	80 e0       	ldi	r24, 0x00	; 0
    ca3e:	0e 94 5d 4e 	call	0x9cba	; 0x9cba <FadeIn>
time = 0;
    ca42:	10 92 30 0a 	sts	0x0A30, r1	; 0x800a30 <time>
    ca46:	10 92 31 0a 	sts	0x0A31, r1	; 0x800a31 <time+0x1>
    ca4a:	10 92 32 0a 	sts	0x0A32, r1	; 0x800a32 <time+0x2>
    ca4e:	10 92 33 0a 	sts	0x0A33, r1	; 0x800a33 <time+0x3>
while ( time < 240 )
    ca52:	80 91 30 0a 	lds	r24, 0x0A30	; 0x800a30 <time>
    ca56:	90 91 31 0a 	lds	r25, 0x0A31	; 0x800a31 <time+0x1>
    ca5a:	a0 91 32 0a 	lds	r26, 0x0A32	; 0x800a32 <time+0x2>
    ca5e:	b0 91 33 0a 	lds	r27, 0x0A33	; 0x800a33 <time+0x3>
    ca62:	80 3f       	cpi	r24, 0xF0	; 240
    ca64:	91 05       	cpc	r25, r1
    ca66:	a1 05       	cpc	r26, r1
    ca68:	b1 05       	cpc	r27, r1
    ca6a:	80 f4       	brcc	.+32     	; 0xca8c <showgetready+0xb6>
{ time++;    
    ca6c:	01 96       	adiw	r24, 0x01	; 1
    ca6e:	a1 1d       	adc	r26, r1
    ca70:	b1 1d       	adc	r27, r1
    ca72:	80 93 30 0a 	sts	0x0A30, r24	; 0x800a30 <time>
    ca76:	90 93 31 0a 	sts	0x0A31, r25	; 0x800a31 <time+0x1>
    ca7a:	a0 93 32 0a 	sts	0x0A32, r26	; 0x800a32 <time+0x2>
    ca7e:	b0 93 33 0a 	sts	0x0A33, r27	; 0x800a33 <time+0x3>
WaitVsync(1);    
    ca82:	81 e0       	ldi	r24, 0x01	; 1
    ca84:	90 e0       	ldi	r25, 0x00	; 0
    ca86:	0e 94 01 4e 	call	0x9c02	; 0x9c02 <WaitVsync>
    ca8a:	e3 cf       	rjmp	.-58     	; 0xca52 <showgetready+0x7c>
};
 FadeOut(0, true);    
    ca8c:	61 e0       	ldi	r22, 0x01	; 1
    ca8e:	80 e0       	ldi	r24, 0x00	; 0
};
    ca90:	0f 91       	pop	r16
time = 0;
while ( time < 240 )
{ time++;    
WaitVsync(1);    
};
 FadeOut(0, true);    
    ca92:	0c 94 69 4e 	jmp	0x9cd2	; 0x9cd2 <FadeOut>

0000ca96 <showgameover>:
};

void showgameover()
{
    ca96:	0f 93       	push	r16
    
FadeOut(0, true);
    ca98:	61 e0       	ldi	r22, 0x01	; 1
    ca9a:	80 e0       	ldi	r24, 0x00	; 0
    ca9c:	0e 94 69 4e 	call	0x9cd2	; 0x9cd2 <FadeOut>
Screen.scrollX = 0;
    caa0:	10 92 60 08 	sts	0x0860, r1	; 0x800860 <screen_scrollX>
initlevel();
    caa4:	0e 94 08 51 	call	0xa210	; 0xa210 <initlevel>
MoveSprite(0 ,-20 ,-20 ,2 ,2);
    caa8:	02 e0       	ldi	r16, 0x02	; 2
    caaa:	22 e0       	ldi	r18, 0x02	; 2
    caac:	4c ee       	ldi	r20, 0xEC	; 236
    caae:	6c ee       	ldi	r22, 0xEC	; 236
    cab0:	80 e0       	ldi	r24, 0x00	; 0
    cab2:	0e 94 95 4d 	call	0x9b2a	; 0x9b2a <MoveSprite>
MoveSprite(owlIndex ,-20 ,-20  ,2 ,2);
    cab6:	22 e0       	ldi	r18, 0x02	; 2
    cab8:	4c ee       	ldi	r20, 0xEC	; 236
    caba:	6c ee       	ldi	r22, 0xEC	; 236
    cabc:	86 e0       	ldi	r24, 0x06	; 6
    cabe:	0e 94 95 4d 	call	0x9b2a	; 0x9b2a <MoveSprite>
MoveSprite(spriteInd ,-50 ,-20  ,2 ,2);
    cac2:	22 e0       	ldi	r18, 0x02	; 2
    cac4:	4c ee       	ldi	r20, 0xEC	; 236
    cac6:	6e ec       	ldi	r22, 0xCE	; 206
    cac8:	8a e0       	ldi	r24, 0x0A	; 10
    caca:	0e 94 95 4d 	call	0x9b2a	; 0x9b2a <MoveSprite>
DrawMap2(  11, 10  ,over0 ); 
    cace:	45 e8       	ldi	r20, 0x85	; 133
    cad0:	56 e7       	ldi	r21, 0x76	; 118
    cad2:	6a e0       	ldi	r22, 0x0A	; 10
    cad4:	8b e0       	ldi	r24, 0x0B	; 11
    cad6:	0e 94 c2 4d 	call	0x9b84	; 0x9b84 <DrawMap>
WaitVsync(1);  
    cada:	81 e0       	ldi	r24, 0x01	; 1
    cadc:	90 e0       	ldi	r25, 0x00	; 0
    cade:	0e 94 01 4e 	call	0x9c02	; 0x9c02 <WaitVsync>
FadeIn(0, true);
    cae2:	61 e0       	ldi	r22, 0x01	; 1
    cae4:	80 e0       	ldi	r24, 0x00	; 0
    cae6:	0e 94 5d 4e 	call	0x9cba	; 0x9cba <FadeIn>
time = 0;
    caea:	10 92 30 0a 	sts	0x0A30, r1	; 0x800a30 <time>
    caee:	10 92 31 0a 	sts	0x0A31, r1	; 0x800a31 <time+0x1>
    caf2:	10 92 32 0a 	sts	0x0A32, r1	; 0x800a32 <time+0x2>
    caf6:	10 92 33 0a 	sts	0x0A33, r1	; 0x800a33 <time+0x3>
while ( time < 240 )
    cafa:	80 91 30 0a 	lds	r24, 0x0A30	; 0x800a30 <time>
    cafe:	90 91 31 0a 	lds	r25, 0x0A31	; 0x800a31 <time+0x1>
    cb02:	a0 91 32 0a 	lds	r26, 0x0A32	; 0x800a32 <time+0x2>
    cb06:	b0 91 33 0a 	lds	r27, 0x0A33	; 0x800a33 <time+0x3>
    cb0a:	80 3f       	cpi	r24, 0xF0	; 240
    cb0c:	91 05       	cpc	r25, r1
    cb0e:	a1 05       	cpc	r26, r1
    cb10:	b1 05       	cpc	r27, r1
    cb12:	80 f4       	brcc	.+32     	; 0xcb34 <showgameover+0x9e>
{ time++;    
    cb14:	01 96       	adiw	r24, 0x01	; 1
    cb16:	a1 1d       	adc	r26, r1
    cb18:	b1 1d       	adc	r27, r1
    cb1a:	80 93 30 0a 	sts	0x0A30, r24	; 0x800a30 <time>
    cb1e:	90 93 31 0a 	sts	0x0A31, r25	; 0x800a31 <time+0x1>
    cb22:	a0 93 32 0a 	sts	0x0A32, r26	; 0x800a32 <time+0x2>
    cb26:	b0 93 33 0a 	sts	0x0A33, r27	; 0x800a33 <time+0x3>
WaitVsync(1);    
    cb2a:	81 e0       	ldi	r24, 0x01	; 1
    cb2c:	90 e0       	ldi	r25, 0x00	; 0
    cb2e:	0e 94 01 4e 	call	0x9c02	; 0x9c02 <WaitVsync>
    cb32:	e3 cf       	rjmp	.-58     	; 0xcafa <showgameover+0x64>
};
 FadeOut(0, true);    
    cb34:	61 e0       	ldi	r22, 0x01	; 1
    cb36:	80 e0       	ldi	r24, 0x00	; 0
};
    cb38:	0f 91       	pop	r16
time = 0;
while ( time < 240 )
{ time++;    
WaitVsync(1);    
};
 FadeOut(0, true);    
    cb3a:	0c 94 69 4e 	jmp	0x9cd2	; 0x9cd2 <FadeOut>

0000cb3e <showtimesup>:
};
void showtimesup()
{
    cb3e:	0f 93       	push	r16
FadeOut(0, true);
    cb40:	61 e0       	ldi	r22, 0x01	; 1
    cb42:	80 e0       	ldi	r24, 0x00	; 0
    cb44:	0e 94 69 4e 	call	0x9cd2	; 0x9cd2 <FadeOut>
Screen.scrollX = 0;
    cb48:	10 92 60 08 	sts	0x0860, r1	; 0x800860 <screen_scrollX>
initlevel();
    cb4c:	0e 94 08 51 	call	0xa210	; 0xa210 <initlevel>
MoveSprite(0 ,-20 ,-20 ,2 ,2);
    cb50:	02 e0       	ldi	r16, 0x02	; 2
    cb52:	22 e0       	ldi	r18, 0x02	; 2
    cb54:	4c ee       	ldi	r20, 0xEC	; 236
    cb56:	6c ee       	ldi	r22, 0xEC	; 236
    cb58:	80 e0       	ldi	r24, 0x00	; 0
    cb5a:	0e 94 95 4d 	call	0x9b2a	; 0x9b2a <MoveSprite>
MoveSprite(owlIndex ,-20 ,-20  ,2 ,2);
    cb5e:	22 e0       	ldi	r18, 0x02	; 2
    cb60:	4c ee       	ldi	r20, 0xEC	; 236
    cb62:	6c ee       	ldi	r22, 0xEC	; 236
    cb64:	86 e0       	ldi	r24, 0x06	; 6
    cb66:	0e 94 95 4d 	call	0x9b2a	; 0x9b2a <MoveSprite>
MoveSprite(spriteInd ,-50 ,-20  ,2 ,2);
    cb6a:	22 e0       	ldi	r18, 0x02	; 2
    cb6c:	4c ee       	ldi	r20, 0xEC	; 236
    cb6e:	6e ec       	ldi	r22, 0xCE	; 206
    cb70:	8a e0       	ldi	r24, 0x0A	; 10
    cb72:	0e 94 95 4d 	call	0x9b2a	; 0x9b2a <MoveSprite>
DrawMap2(  11, 10  ,timeup0 ); 
    cb76:	4d e7       	ldi	r20, 0x7D	; 125
    cb78:	56 e7       	ldi	r21, 0x76	; 118
    cb7a:	6a e0       	ldi	r22, 0x0A	; 10
    cb7c:	8b e0       	ldi	r24, 0x0B	; 11
    cb7e:	0e 94 c2 4d 	call	0x9b84	; 0x9b84 <DrawMap>
WaitVsync(1);  
    cb82:	81 e0       	ldi	r24, 0x01	; 1
    cb84:	90 e0       	ldi	r25, 0x00	; 0
    cb86:	0e 94 01 4e 	call	0x9c02	; 0x9c02 <WaitVsync>
FadeIn(0, true);
    cb8a:	61 e0       	ldi	r22, 0x01	; 1
    cb8c:	80 e0       	ldi	r24, 0x00	; 0
    cb8e:	0e 94 5d 4e 	call	0x9cba	; 0x9cba <FadeIn>
time = 0;
    cb92:	10 92 30 0a 	sts	0x0A30, r1	; 0x800a30 <time>
    cb96:	10 92 31 0a 	sts	0x0A31, r1	; 0x800a31 <time+0x1>
    cb9a:	10 92 32 0a 	sts	0x0A32, r1	; 0x800a32 <time+0x2>
    cb9e:	10 92 33 0a 	sts	0x0A33, r1	; 0x800a33 <time+0x3>
while ( time < 240 )
    cba2:	80 91 30 0a 	lds	r24, 0x0A30	; 0x800a30 <time>
    cba6:	90 91 31 0a 	lds	r25, 0x0A31	; 0x800a31 <time+0x1>
    cbaa:	a0 91 32 0a 	lds	r26, 0x0A32	; 0x800a32 <time+0x2>
    cbae:	b0 91 33 0a 	lds	r27, 0x0A33	; 0x800a33 <time+0x3>
    cbb2:	80 3f       	cpi	r24, 0xF0	; 240
    cbb4:	91 05       	cpc	r25, r1
    cbb6:	a1 05       	cpc	r26, r1
    cbb8:	b1 05       	cpc	r27, r1
    cbba:	80 f4       	brcc	.+32     	; 0xcbdc <showtimesup+0x9e>
{ time++;    
    cbbc:	01 96       	adiw	r24, 0x01	; 1
    cbbe:	a1 1d       	adc	r26, r1
    cbc0:	b1 1d       	adc	r27, r1
    cbc2:	80 93 30 0a 	sts	0x0A30, r24	; 0x800a30 <time>
    cbc6:	90 93 31 0a 	sts	0x0A31, r25	; 0x800a31 <time+0x1>
    cbca:	a0 93 32 0a 	sts	0x0A32, r26	; 0x800a32 <time+0x2>
    cbce:	b0 93 33 0a 	sts	0x0A33, r27	; 0x800a33 <time+0x3>
WaitVsync(1);    
    cbd2:	81 e0       	ldi	r24, 0x01	; 1
    cbd4:	90 e0       	ldi	r25, 0x00	; 0
    cbd6:	0e 94 01 4e 	call	0x9c02	; 0x9c02 <WaitVsync>
    cbda:	e3 cf       	rjmp	.-58     	; 0xcba2 <showtimesup+0x64>
};
 FadeOut(0, true);    
    cbdc:	61 e0       	ldi	r22, 0x01	; 1
    cbde:	80 e0       	ldi	r24, 0x00	; 0
};
    cbe0:	0f 91       	pop	r16
time = 0;
while ( time < 240 )
{ time++;    
WaitVsync(1);    
};
 FadeOut(0, true);    
    cbe2:	0c 94 69 4e 	jmp	0x9cd2	; 0x9cd2 <FadeOut>

0000cbe6 <showcongratulation>:
};
void showcongratulation()
{
    cbe6:	0f 93       	push	r16
FadeOut(0, true);
    cbe8:	61 e0       	ldi	r22, 0x01	; 1
    cbea:	80 e0       	ldi	r24, 0x00	; 0
    cbec:	0e 94 69 4e 	call	0x9cd2	; 0x9cd2 <FadeOut>
Screen.scrollX = 0;
    cbf0:	10 92 60 08 	sts	0x0860, r1	; 0x800860 <screen_scrollX>
initlevel();
    cbf4:	0e 94 08 51 	call	0xa210	; 0xa210 <initlevel>
MoveSprite(0 ,-20 ,-20 ,2 ,2);
    cbf8:	02 e0       	ldi	r16, 0x02	; 2
    cbfa:	22 e0       	ldi	r18, 0x02	; 2
    cbfc:	4c ee       	ldi	r20, 0xEC	; 236
    cbfe:	6c ee       	ldi	r22, 0xEC	; 236
    cc00:	80 e0       	ldi	r24, 0x00	; 0
    cc02:	0e 94 95 4d 	call	0x9b2a	; 0x9b2a <MoveSprite>
MoveSprite(owlIndex ,-20 ,-20  ,2 ,2);
    cc06:	22 e0       	ldi	r18, 0x02	; 2
    cc08:	4c ee       	ldi	r20, 0xEC	; 236
    cc0a:	6c ee       	ldi	r22, 0xEC	; 236
    cc0c:	86 e0       	ldi	r24, 0x06	; 6
    cc0e:	0e 94 95 4d 	call	0x9b2a	; 0x9b2a <MoveSprite>
MoveSprite(spriteInd ,-50 ,-20  ,2 ,2);
    cc12:	22 e0       	ldi	r18, 0x02	; 2
    cc14:	4c ee       	ldi	r20, 0xEC	; 236
    cc16:	6e ec       	ldi	r22, 0xCE	; 206
    cc18:	8a e0       	ldi	r24, 0x0A	; 10
    cc1a:	0e 94 95 4d 	call	0x9b2a	; 0x9b2a <MoveSprite>
DrawMap2(  9, 10  ,congra0 ); 
    cc1e:	41 e7       	ldi	r20, 0x71	; 113
    cc20:	56 e7       	ldi	r21, 0x76	; 118
    cc22:	6a e0       	ldi	r22, 0x0A	; 10
    cc24:	89 e0       	ldi	r24, 0x09	; 9
    cc26:	0e 94 c2 4d 	call	0x9b84	; 0x9b84 <DrawMap>
FadeIn(0, true);
    cc2a:	61 e0       	ldi	r22, 0x01	; 1
    cc2c:	80 e0       	ldi	r24, 0x00	; 0
    cc2e:	0e 94 5d 4e 	call	0x9cba	; 0x9cba <FadeIn>
time = 0;
    cc32:	10 92 30 0a 	sts	0x0A30, r1	; 0x800a30 <time>
    cc36:	10 92 31 0a 	sts	0x0A31, r1	; 0x800a31 <time+0x1>
    cc3a:	10 92 32 0a 	sts	0x0A32, r1	; 0x800a32 <time+0x2>
    cc3e:	10 92 33 0a 	sts	0x0A33, r1	; 0x800a33 <time+0x3>
while ( time < 480 )
    cc42:	80 91 30 0a 	lds	r24, 0x0A30	; 0x800a30 <time>
    cc46:	90 91 31 0a 	lds	r25, 0x0A31	; 0x800a31 <time+0x1>
    cc4a:	a0 91 32 0a 	lds	r26, 0x0A32	; 0x800a32 <time+0x2>
    cc4e:	b0 91 33 0a 	lds	r27, 0x0A33	; 0x800a33 <time+0x3>
    cc52:	80 3e       	cpi	r24, 0xE0	; 224
    cc54:	21 e0       	ldi	r18, 0x01	; 1
    cc56:	92 07       	cpc	r25, r18
    cc58:	a1 05       	cpc	r26, r1
    cc5a:	b1 05       	cpc	r27, r1
    cc5c:	80 f4       	brcc	.+32     	; 0xcc7e <showcongratulation+0x98>
{ time++;    
    cc5e:	01 96       	adiw	r24, 0x01	; 1
    cc60:	a1 1d       	adc	r26, r1
    cc62:	b1 1d       	adc	r27, r1
    cc64:	80 93 30 0a 	sts	0x0A30, r24	; 0x800a30 <time>
    cc68:	90 93 31 0a 	sts	0x0A31, r25	; 0x800a31 <time+0x1>
    cc6c:	a0 93 32 0a 	sts	0x0A32, r26	; 0x800a32 <time+0x2>
    cc70:	b0 93 33 0a 	sts	0x0A33, r27	; 0x800a33 <time+0x3>
WaitVsync(1);    
    cc74:	81 e0       	ldi	r24, 0x01	; 1
    cc76:	90 e0       	ldi	r25, 0x00	; 0
    cc78:	0e 94 01 4e 	call	0x9c02	; 0x9c02 <WaitVsync>
    cc7c:	e2 cf       	rjmp	.-60     	; 0xcc42 <showcongratulation+0x5c>
};
 FadeOut(0, true);    
    cc7e:	61 e0       	ldi	r22, 0x01	; 1
    cc80:	80 e0       	ldi	r24, 0x00	; 0
};
    cc82:	0f 91       	pop	r16
time = 0;
while ( time < 480 )
{ time++;    
WaitVsync(1);    
};
 FadeOut(0, true);    
    cc84:	0c 94 69 4e 	jmp	0x9cd2	; 0x9cd2 <FadeOut>

0000cc88 <main>:
};
int main(){ 
ClearVram();    
    cc88:	0e 94 44 41 	call	0x8288	; 0x8288 <ClearVram>
FadeOut(0, true);
    cc8c:	61 e0       	ldi	r22, 0x01	; 1
    cc8e:	80 e0       	ldi	r24, 0x00	; 0
    cc90:	0e 94 69 4e 	call	0x9cd2	; 0x9cd2 <FadeOut>
SetTileTable(uMTiles);
    cc94:	89 e2       	ldi	r24, 0x29	; 41
    cc96:	97 e4       	ldi	r25, 0x47	; 71
    cc98:	0e 94 5f 41 	call	0x82be	; 0x82be <SetTileTable>
SetSpritesTileTable(uMSprites);
    cc9c:	83 e3       	ldi	r24, 0x33	; 51
    cc9e:	90 e4       	ldi	r25, 0x40	; 64
    cca0:	0e 94 3f 41 	call	0x827e	; 0x827e <SetSpritesTileTable>
InitMusicPlayer(patches);
    cca4:	84 ec       	ldi	r24, 0xC4	; 196
    cca6:	9e e3       	ldi	r25, 0x3E	; 62
    cca8:	0e 94 c9 42 	call	0x8592	; 0x8592 <InitMusicPlayer>
Screen.scrollY=0;  
    ccac:	10 92 61 08 	sts	0x0861, r1	; 0x800861 <screen_scrollY>
Screen.overlayHeight=OVERLAY_LINES;
    ccb0:	10 92 5d 08 	sts	0x085D, r1	; 0x80085d <Screen>
    
SetUserPostVsyncCallback(vsync_callback);
    ccb4:	8e e9       	ldi	r24, 0x9E	; 158
    ccb6:	9e e4       	ldi	r25, 0x4E	; 78
    ccb8:	0e 94 99 41 	call	0x8332	; 0x8332 <SetUserPostVsyncCallback>
while(1)
{
introplaying = true; 
Levelx = 0;
scrolltiles = 0;
player.x = 8;
    ccbc:	98 e0       	ldi	r25, 0x08	; 8
    ccbe:	e9 2e       	mov	r14, r25
    ccc0:	f1 2c       	mov	r15, r1
player.y = 191;
    ccc2:	cf eb       	ldi	r28, 0xBF	; 191
    ccc4:	d0 e0       	ldi	r29, 0x00	; 0
player2.x = 38;
    ccc6:	26 e2       	ldi	r18, 0x26	; 38
    ccc8:	c2 2e       	mov	r12, r18
    ccca:	d1 2c       	mov	r13, r1
finished = false;
died = false;
timeisup = false;    
Levelx = 0;
scrolltiles = 0;
player2.speed = 1;
    cccc:	aa 24       	eor	r10, r10
    ccce:	a3 94       	inc	r10
    ccd0:	b1 2c       	mov	r11, r1
player2.x = 38;
    ccd2:	46 e2       	ldi	r20, 0x26	; 38
    ccd4:	44 2e       	mov	r4, r20
    ccd6:	51 2c       	mov	r5, r1
player2.y = 191;
    ccd8:	5f eb       	ldi	r21, 0xBF	; 191
    ccda:	85 2e       	mov	r8, r21
    ccdc:	91 2c       	mov	r9, r1
player.speed = 1;
player.x = 8;
    ccde:	68 e0       	ldi	r22, 0x08	; 8
    cce0:	66 2e       	mov	r6, r22
    cce2:	71 2c       	mov	r7, r1
Screen.overlayHeight=OVERLAY_LINES;
    
SetUserPostVsyncCallback(vsync_callback);
while(1)
{
introplaying = true; 
    cce4:	81 e0       	ldi	r24, 0x01	; 1
    cce6:	80 93 81 09 	sts	0x0981, r24	; 0x800981 <introplaying>
Levelx = 0;
    ccea:	10 92 9b 0a 	sts	0x0A9B, r1	; 0x800a9b <Levelx>
scrolltiles = 0;
    ccee:	10 92 de 0a 	sts	0x0ADE, r1	; 0x800ade <scrolltiles>
player.x = 8;
    ccf2:	f0 92 66 09 	sts	0x0966, r15	; 0x800966 <player+0x1>
    ccf6:	e0 92 65 09 	sts	0x0965, r14	; 0x800965 <player>
player.y = 191;
    ccfa:	d0 93 68 09 	sts	0x0968, r29	; 0x800968 <player+0x3>
    ccfe:	c0 93 67 09 	sts	0x0967, r28	; 0x800967 <player+0x2>
player2.x = 38;
    cd02:	d0 92 36 0a 	sts	0x0A36, r13	; 0x800a36 <player2+0x1>
    cd06:	c0 92 35 0a 	sts	0x0A35, r12	; 0x800a35 <player2>
player2.y = 191;
    cd0a:	d0 93 38 0a 	sts	0x0A38, r29	; 0x800a38 <player2+0x3>
    cd0e:	c0 93 37 0a 	sts	0x0A37, r28	; 0x800a37 <player2+0x2>
destX = 0;
    cd12:	10 92 5d 0a 	sts	0x0A5D, r1	; 0x800a5d <destX>
level = 0;
    cd16:	10 92 dd 09 	sts	0x09DD, r1	; 0x8009dd <level>
MoveSprite(owlIndex , - 20 , -20 ,2 ,2);
    cd1a:	02 e0       	ldi	r16, 0x02	; 2
    cd1c:	22 e0       	ldi	r18, 0x02	; 2
    cd1e:	4c ee       	ldi	r20, 0xEC	; 236
    cd20:	6c ee       	ldi	r22, 0xEC	; 236
    cd22:	86 e0       	ldi	r24, 0x06	; 6
    cd24:	0e 94 95 4d 	call	0x9b2a	; 0x9b2a <MoveSprite>
MoveSprite(0 , - 20 , -20 ,2 ,2);  
    cd28:	22 e0       	ldi	r18, 0x02	; 2
    cd2a:	4c ee       	ldi	r20, 0xEC	; 236
    cd2c:	6c ee       	ldi	r22, 0xEC	; 236
    cd2e:	80 e0       	ldi	r24, 0x00	; 0
    cd30:	0e 94 95 4d 	call	0x9b2a	; 0x9b2a <MoveSprite>
MoveSprite(spriteInd , - 50 , -20 ,2 ,2);
    cd34:	22 e0       	ldi	r18, 0x02	; 2
    cd36:	4c ee       	ldi	r20, 0xEC	; 236
    cd38:	6e ec       	ldi	r22, 0xCE	; 206
    cd3a:	8a e0       	ldi	r24, 0x0A	; 10
    cd3c:	0e 94 95 4d 	call	0x9b2a	; 0x9b2a <MoveSprite>
while(introplaying) playintro();
    cd40:	80 91 81 09 	lds	r24, 0x0981	; 0x800981 <introplaying>
    cd44:	88 23       	and	r24, r24
    cd46:	19 f0       	breq	.+6      	; 0xcd4e <main+0xc6>
    cd48:	0e 94 15 63 	call	0xc62a	; 0xc62a <playintro>
    cd4c:	f9 cf       	rjmp	.-14     	; 0xcd40 <main+0xb8>
    
score = 0;
    cd4e:	10 92 c6 09 	sts	0x09C6, r1	; 0x8009c6 <score+0x1>
    cd52:	10 92 c5 09 	sts	0x09C5, r1	; 0x8009c5 <score>
lives = 3; 
    cd56:	83 e0       	ldi	r24, 0x03	; 3
    cd58:	80 93 51 0a 	sts	0x0A51, r24	; 0x800a51 <lives>
level = startlevel;
    cd5c:	81 e0       	ldi	r24, 0x01	; 1
    cd5e:	80 93 dd 09 	sts	0x09DD, r24	; 0x8009dd <level>
isplaying = true;
    cd62:	80 93 97 0a 	sts	0x0A97, r24	; 0x800a97 <isplaying>
exitgame = false;
    cd66:	10 92 2f 0a 	sts	0x0A2F, r1	; 0x800a2f <exitgame>
Levelx = 0;
    cd6a:	10 92 9b 0a 	sts	0x0A9B, r1	; 0x800a9b <Levelx>
scrolltiles = 0;
    cd6e:	10 92 de 0a 	sts	0x0ADE, r1	; 0x800ade <scrolltiles>
player.x = 8;
    cd72:	f0 92 66 09 	sts	0x0966, r15	; 0x800966 <player+0x1>
    cd76:	e0 92 65 09 	sts	0x0965, r14	; 0x800965 <player>
player.y = 191;
    cd7a:	d0 93 68 09 	sts	0x0968, r29	; 0x800968 <player+0x3>
    cd7e:	c0 93 67 09 	sts	0x0967, r28	; 0x800967 <player+0x2>
player2.x = 38;
    cd82:	d0 92 36 0a 	sts	0x0A36, r13	; 0x800a36 <player2+0x1>
    cd86:	c0 92 35 0a 	sts	0x0A35, r12	; 0x800a35 <player2>
player2.y = 191;
    cd8a:	d0 93 38 0a 	sts	0x0A38, r29	; 0x800a38 <player2+0x3>
    cd8e:	c0 93 37 0a 	sts	0x0A37, r28	; 0x800a37 <player2+0x2>
destX = 0;
    cd92:	10 92 5d 0a 	sts	0x0A5D, r1	; 0x800a5d <destX>
score = 0;
StartSong(midisong);
    cd96:	8b e6       	ldi	r24, 0x6B	; 107
    cd98:	9a e3       	ldi	r25, 0x3A	; 58
    cd9a:	0e 94 e4 42 	call	0x85c8	; 0x85c8 <StartSong>
while (lives > 0 )
{
isplaying = true;
    cd9e:	33 24       	eor	r3, r3
    cda0:	33 94       	inc	r3
player2.x = 38;
player2.y = 191;
destX = 0;
score = 0;
StartSong(midisong);
while (lives > 0 )
    cda2:	80 91 51 0a 	lds	r24, 0x0A51	; 0x800a51 <lives>
    cda6:	88 23       	and	r24, r24
    cda8:	09 f4       	brne	.+2      	; 0xcdac <main+0x124>
    cdaa:	35 c1       	rjmp	.+618    	; 0xd016 <main+0x38e>
{
isplaying = true;
    cdac:	30 92 97 0a 	sts	0x0A97, r3	; 0x800a97 <isplaying>
while (isplaying)
{

showgetready();
isplaying = true;
    cdb0:	11 e0       	ldi	r17, 0x01	; 1
MapSprite2(spriteInd ,run0 ,0);
MapSprite2(owlIndex ,owl0 ,0);   
MoveSprite(owlIndex , - 20 , -20 ,2 ,2);
MoveSprite(0 , - 20 , -20 ,2 ,2); 
MoveSprite(spriteInd , - 50 , -20 ,2 ,2);    
leveltime = 99;
    cdb2:	83 e6       	ldi	r24, 0x63	; 99
    cdb4:	28 2e       	mov	r2, r24
score = 0;
StartSong(midisong);
while (lives > 0 )
{
isplaying = true;
while (isplaying)
    cdb6:	80 91 97 0a 	lds	r24, 0x0A97	; 0x800a97 <isplaying>
    cdba:	88 23       	and	r24, r24
    cdbc:	91 f3       	breq	.-28     	; 0xcda2 <main+0x11a>
{

showgetready();
    cdbe:	0e 94 eb 64 	call	0xc9d6	; 0xc9d6 <showgetready>
isplaying = true;
    cdc2:	10 93 97 0a 	sts	0x0A97, r17	; 0x800a97 <isplaying>
finished = false;
    cdc6:	10 92 96 0a 	sts	0x0A96, r1	; 0x800a96 <finished>
died = false;
    cdca:	10 92 9c 0a 	sts	0x0A9C, r1	; 0x800a9c <died>
timeisup = false;    
    cdce:	10 92 59 09 	sts	0x0959, r1	; 0x800959 <timeisup>
Levelx = 0;
    cdd2:	10 92 9b 0a 	sts	0x0A9B, r1	; 0x800a9b <Levelx>
scrolltiles = 0;
    cdd6:	10 92 de 0a 	sts	0x0ADE, r1	; 0x800ade <scrolltiles>
player2.speed = 1;
    cdda:	b0 92 3a 0a 	sts	0x0A3A, r11	; 0x800a3a <player2+0x5>
    cdde:	a0 92 39 0a 	sts	0x0A39, r10	; 0x800a39 <player2+0x4>
player2.x = 38;
    cde2:	50 92 36 0a 	sts	0x0A36, r5	; 0x800a36 <player2+0x1>
    cde6:	40 92 35 0a 	sts	0x0A35, r4	; 0x800a35 <player2>
player2.y = 191;
    cdea:	90 92 38 0a 	sts	0x0A38, r9	; 0x800a38 <player2+0x3>
    cdee:	80 92 37 0a 	sts	0x0A37, r8	; 0x800a37 <player2+0x2>
player.speed = 1;
    cdf2:	b0 92 6a 09 	sts	0x096A, r11	; 0x80096a <player+0x5>
    cdf6:	a0 92 69 09 	sts	0x0969, r10	; 0x800969 <player+0x4>
player.x = 8;
    cdfa:	70 92 66 09 	sts	0x0966, r7	; 0x800966 <player+0x1>
    cdfe:	60 92 65 09 	sts	0x0965, r6	; 0x800965 <player>
player.y = 191;
    ce02:	90 92 68 09 	sts	0x0968, r9	; 0x800968 <player+0x3>
    ce06:	80 92 67 09 	sts	0x0967, r8	; 0x800967 <player+0x2>
destX = 0;
    ce0a:	10 92 5d 0a 	sts	0x0A5D, r1	; 0x800a5d <destX>
player2.touchground = true;
    ce0e:	10 93 46 0a 	sts	0x0A46, r17	; 0x800a46 <player2+0x11>
player2.jumping = false;
    ce12:	10 92 49 0a 	sts	0x0A49, r1	; 0x800a49 <player2+0x14>
player2.jumpreleased = true;
    ce16:	10 93 4a 0a 	sts	0x0A4A, r17	; 0x800a4a <player2+0x15>
player.touchground = true;
    ce1a:	10 93 76 09 	sts	0x0976, r17	; 0x800976 <player+0x11>
player.jumping = false;
    ce1e:	10 92 79 09 	sts	0x0979, r1	; 0x800979 <player+0x14>
player.jumpreleased = true;
    ce22:	10 93 7a 09 	sts	0x097A, r17	; 0x80097a <player+0x15>
player.killer = false;
    ce26:	10 92 7e 09 	sts	0x097E, r1	; 0x80097e <player+0x19>
initlevel();
    ce2a:	0e 94 08 51 	call	0xa210	; 0xa210 <initlevel>
initmonster();
    ce2e:	0e 94 8f 62 	call	0xc51e	; 0xc51e <initmonster>
MapSprite2(0 ,pac0 ,0);
    ce32:	40 e0       	ldi	r20, 0x00	; 0
    ce34:	63 e2       	ldi	r22, 0x23	; 35
    ce36:	77 e4       	ldi	r23, 0x47	; 71
    ce38:	80 e0       	ldi	r24, 0x00	; 0
    ce3a:	0e 94 48 4d 	call	0x9a90	; 0x9a90 <MapSprite2>
MapSprite2(spriteInd ,run0 ,0);
    ce3e:	40 e0       	ldi	r20, 0x00	; 0
    ce40:	65 e0       	ldi	r22, 0x05	; 5
    ce42:	77 e4       	ldi	r23, 0x47	; 71
    ce44:	8a e0       	ldi	r24, 0x0A	; 10
    ce46:	0e 94 48 4d 	call	0x9a90	; 0x9a90 <MapSprite2>
MapSprite2(owlIndex ,owl0 ,0);   
    ce4a:	40 e0       	ldi	r20, 0x00	; 0
    ce4c:	61 e1       	ldi	r22, 0x11	; 17
    ce4e:	77 e4       	ldi	r23, 0x47	; 71
    ce50:	86 e0       	ldi	r24, 0x06	; 6
    ce52:	0e 94 48 4d 	call	0x9a90	; 0x9a90 <MapSprite2>
MoveSprite(owlIndex , - 20 , -20 ,2 ,2);
    ce56:	02 e0       	ldi	r16, 0x02	; 2
    ce58:	22 e0       	ldi	r18, 0x02	; 2
    ce5a:	4c ee       	ldi	r20, 0xEC	; 236
    ce5c:	6c ee       	ldi	r22, 0xEC	; 236
    ce5e:	86 e0       	ldi	r24, 0x06	; 6
    ce60:	0e 94 95 4d 	call	0x9b2a	; 0x9b2a <MoveSprite>
MoveSprite(0 , - 20 , -20 ,2 ,2); 
    ce64:	22 e0       	ldi	r18, 0x02	; 2
    ce66:	4c ee       	ldi	r20, 0xEC	; 236
    ce68:	6c ee       	ldi	r22, 0xEC	; 236
    ce6a:	80 e0       	ldi	r24, 0x00	; 0
    ce6c:	0e 94 95 4d 	call	0x9b2a	; 0x9b2a <MoveSprite>
MoveSprite(spriteInd , - 50 , -20 ,2 ,2);    
    ce70:	22 e0       	ldi	r18, 0x02	; 2
    ce72:	4c ee       	ldi	r20, 0xEC	; 236
    ce74:	6e ec       	ldi	r22, 0xCE	; 206
    ce76:	8a e0       	ldi	r24, 0x0A	; 10
    ce78:	0e 94 95 4d 	call	0x9b2a	; 0x9b2a <MoveSprite>
leveltime = 99;
    ce7c:	20 92 98 0a 	sts	0x0A98, r2	; 0x800a98 <leveltime>
time = 0;
    ce80:	10 92 30 0a 	sts	0x0A30, r1	; 0x800a30 <time>
    ce84:	10 92 31 0a 	sts	0x0A31, r1	; 0x800a31 <time+0x1>
    ce88:	10 92 32 0a 	sts	0x0A32, r1	; 0x800a32 <time+0x2>
    ce8c:	10 92 33 0a 	sts	0x0A33, r1	; 0x800a33 <time+0x3>
bonus = 0;
    ce90:	10 92 95 0a 	sts	0x0A95, r1	; 0x800a95 <bonus+0x1>
    ce94:	10 92 94 0a 	sts	0x0A94, r1	; 0x800a94 <bonus>
scrolltiles = 0;
    ce98:	10 92 de 0a 	sts	0x0ADE, r1	; 0x800ade <scrolltiles>
Screen.scrollX = 0;
    ce9c:	10 92 60 08 	sts	0x0860, r1	; 0x800860 <screen_scrollX>
setheadline();    
    cea0:	0e 94 9a 58 	call	0xb134	; 0xb134 <setheadline>
drawlevel(Levelx);
    cea4:	80 91 9b 0a 	lds	r24, 0x0A9B	; 0x800a9b <Levelx>
    cea8:	90 e0       	ldi	r25, 0x00	; 0
    ceaa:	0e 94 88 5f 	call	0xbf10	; 0xbf10 <drawlevel>
printheadline();   
    ceae:	0e 94 b4 52 	call	0xa568	; 0xa568 <printheadline>
FadeIn(1, true);   
    ceb2:	61 e0       	ldi	r22, 0x01	; 1
    ceb4:	81 e0       	ldi	r24, 0x01	; 1
    ceb6:	0e 94 5d 4e 	call	0x9cba	; 0x9cba <FadeIn>

play = true;
    ceba:	10 93 de 09 	sts	0x09DE, r17	; 0x8009de <play>

while(play)
    cebe:	80 91 de 09 	lds	r24, 0x09DE	; 0x8009de <play>
    cec2:	88 23       	and	r24, r24
    cec4:	09 f4       	brne	.+2      	; 0xcec8 <main+0x240>
    cec6:	91 c0       	rjmp	.+290    	; 0xcfea <main+0x362>
{
    
moveplayer(); 
    cec8:	0e 94 bf 5b 	call	0xb77e	; 0xb77e <moveplayer>
moveplayer2();
    cecc:	0e 94 12 56 	call	0xac24	; 0xac24 <moveplayer2>
movemonster();
    ced0:	0e 94 23 59 	call	0xb246	; 0xb246 <movemonster>
WaitVsync(1); 
    ced4:	81 e0       	ldi	r24, 0x01	; 1
    ced6:	90 e0       	ldi	r25, 0x00	; 0
    ced8:	0e 94 01 4e 	call	0x9c02	; 0x9c02 <WaitVsync>
drawmonster();   
    cedc:	0e 94 a7 58 	call	0xb14e	; 0xb14e <drawmonster>
movelevel();
    cee0:	0e 94 96 62 	call	0xc52c	; 0xc52c <movelevel>
drawplayer(); 
    cee4:	0e 94 b2 4e 	call	0x9d64	; 0x9d64 <drawplayer>
drawplayer2(); 
    cee8:	0e 94 48 4f 	call	0x9e90	; 0x9e90 <drawplayer2>
//drawlevel(Levelx);
updateWater();
    ceec:	0e 94 6b 51 	call	0xa2d6	; 0xa2d6 <updateWater>
//drawplayer();   

//movemonster();
//drawmonster();    

updatetime(time);
    cef0:	60 91 30 0a 	lds	r22, 0x0A30	; 0x800a30 <time>
    cef4:	70 91 31 0a 	lds	r23, 0x0A31	; 0x800a31 <time+0x1>
    cef8:	80 91 32 0a 	lds	r24, 0x0A32	; 0x800a32 <time+0x2>
    cefc:	90 91 33 0a 	lds	r25, 0x0A33	; 0x800a33 <time+0x3>
    cf00:	0e 94 e0 62 	call	0xc5c0	; 0xc5c0 <updatetime>
    if ( player.y > 240) 
    cf04:	80 91 67 09 	lds	r24, 0x0967	; 0x800967 <player+0x2>
    cf08:	90 91 68 09 	lds	r25, 0x0968	; 0x800968 <player+0x3>
    cf0c:	81 3f       	cpi	r24, 0xF1	; 241
    cf0e:	91 05       	cpc	r25, r1
    cf10:	c4 f0       	brlt	.+48     	; 0xcf42 <main+0x2ba>
    {
    died = true;
    cf12:	10 93 9c 0a 	sts	0x0A9C, r17	; 0x800a9c <died>
    lives--;    
    cf16:	80 91 51 0a 	lds	r24, 0x0A51	; 0x800a51 <lives>
    cf1a:	81 50       	subi	r24, 0x01	; 1
    cf1c:	80 93 51 0a 	sts	0x0A51, r24	; 0x800a51 <lives>
    isplaying = false; 
    cf20:	10 92 97 0a 	sts	0x0A97, r1	; 0x800a97 <isplaying>
    play = false;
    cf24:	10 92 de 09 	sts	0x09DE, r1	; 0x8009de <play>
    bonus = 0; 
    cf28:	10 92 95 0a 	sts	0x0A95, r1	; 0x800a95 <bonus+0x1>
    cf2c:	10 92 94 0a 	sts	0x0A94, r1	; 0x800a94 <bonus>
    TriggerFx(9,0xff,true);
    cf30:	41 e0       	ldi	r20, 0x01	; 1
    cf32:	6f ef       	ldi	r22, 0xFF	; 255
    cf34:	89 e0       	ldi	r24, 0x09	; 9
    cf36:	0e 94 c1 43 	call	0x8782	; 0x8782 <TriggerFx>
    WaitVsync(240); 
    cf3a:	80 ef       	ldi	r24, 0xF0	; 240
    cf3c:	90 e0       	ldi	r25, 0x00	; 0
    cf3e:	0e 94 01 4e 	call	0x9c02	; 0x9c02 <WaitVsync>

    };
    if ( player2.y > 240) 
    cf42:	80 91 37 0a 	lds	r24, 0x0A37	; 0x800a37 <player2+0x2>
    cf46:	90 91 38 0a 	lds	r25, 0x0A38	; 0x800a38 <player2+0x3>
    cf4a:	81 3f       	cpi	r24, 0xF1	; 241
    cf4c:	91 05       	cpc	r25, r1
    cf4e:	44 f0       	brlt	.+16     	; 0xcf60 <main+0x2d8>
    {
    player2.y = player.y;
    cf50:	80 91 67 09 	lds	r24, 0x0967	; 0x800967 <player+0x2>
    cf54:	90 91 68 09 	lds	r25, 0x0968	; 0x800968 <player+0x3>
    cf58:	90 93 38 0a 	sts	0x0A38, r25	; 0x800a38 <player2+0x3>
    cf5c:	80 93 37 0a 	sts	0x0A37, r24	; 0x800a37 <player2+0x2>
   // bonus = 0; 
   // TriggerFx(9,0xff,true);
   //WaitVsync(240); 
    };

    if (timeisup)
    cf60:	80 91 59 09 	lds	r24, 0x0959	; 0x800959 <timeisup>
    cf64:	88 23       	and	r24, r24
    cf66:	19 f1       	breq	.+70     	; 0xcfae <main+0x326>
    {
    printtileint( 26 ,0,leveltime,2);
    cf68:	40 91 98 0a 	lds	r20, 0x0A98	; 0x800a98 <leveltime>
    cf6c:	50 e0       	ldi	r21, 0x00	; 0
    cf6e:	22 e0       	ldi	r18, 0x02	; 2
    cf70:	30 e0       	ldi	r19, 0x00	; 0
    cf72:	60 e0       	ldi	r22, 0x00	; 0
    cf74:	70 e0       	ldi	r23, 0x00	; 0
    cf76:	8a e1       	ldi	r24, 0x1A	; 26
    cf78:	90 e0       	ldi	r25, 0x00	; 0
    cf7a:	0e 94 d6 4f 	call	0x9fac	; 0x9fac <printtileint>
    TriggerFx(9,0xff,true);
    cf7e:	41 e0       	ldi	r20, 0x01	; 1
    cf80:	6f ef       	ldi	r22, 0xFF	; 255
    cf82:	89 e0       	ldi	r24, 0x09	; 9
    cf84:	0e 94 c1 43 	call	0x8782	; 0x8782 <TriggerFx>
    WaitVsync(240);   
    cf88:	80 ef       	ldi	r24, 0xF0	; 240
    cf8a:	90 e0       	ldi	r25, 0x00	; 0
    cf8c:	0e 94 01 4e 	call	0x9c02	; 0x9c02 <WaitVsync>
    showtimesup();
    cf90:	0e 94 9f 65 	call	0xcb3e	; 0xcb3e <showtimesup>
    lives--;    
    cf94:	80 91 51 0a 	lds	r24, 0x0A51	; 0x800a51 <lives>
    cf98:	81 50       	subi	r24, 0x01	; 1
    cf9a:	80 93 51 0a 	sts	0x0A51, r24	; 0x800a51 <lives>
    bonus = 0;  
    cf9e:	10 92 95 0a 	sts	0x0A95, r1	; 0x800a95 <bonus+0x1>
    cfa2:	10 92 94 0a 	sts	0x0A94, r1	; 0x800a94 <bonus>
    isplaying = false; 
    cfa6:	10 92 97 0a 	sts	0x0A97, r1	; 0x800a97 <isplaying>
    play = false;
    cfaa:	10 92 de 09 	sts	0x09DE, r1	; 0x8009de <play>
    };
      if (finished)
    cfae:	80 91 96 0a 	lds	r24, 0x0A96	; 0x800a96 <finished>
    cfb2:	88 23       	and	r24, r24
    cfb4:	09 f4       	brne	.+2      	; 0xcfb8 <main+0x330>
    cfb6:	83 cf       	rjmp	.-250    	; 0xcebe <main+0x236>
    {
    TriggerFx(10,0xff,true);      
    cfb8:	41 e0       	ldi	r20, 0x01	; 1
    cfba:	6f ef       	ldi	r22, 0xFF	; 255
    cfbc:	8a e0       	ldi	r24, 0x0A	; 10
    cfbe:	0e 94 c1 43 	call	0x8782	; 0x8782 <TriggerFx>
    WaitVsync(240);   
    cfc2:	80 ef       	ldi	r24, 0xF0	; 240
    cfc4:	90 e0       	ldi	r25, 0x00	; 0
    cfc6:	0e 94 01 4e 	call	0x9c02	; 0x9c02 <WaitVsync>
    level++;    
    cfca:	80 91 dd 09 	lds	r24, 0x09DD	; 0x8009dd <level>
    cfce:	8f 5f       	subi	r24, 0xFF	; 255
    cfd0:	80 93 dd 09 	sts	0x09DD, r24	; 0x8009dd <level>
    StartSong(midisong);
    cfd4:	8b e6       	ldi	r24, 0x6B	; 107
    cfd6:	9a e3       	ldi	r25, 0x3A	; 58
    cfd8:	0e 94 e4 42 	call	0x85c8	; 0x85c8 <StartSong>
    isplaying = false; 
    cfdc:	10 92 97 0a 	sts	0x0A97, r1	; 0x800a97 <isplaying>
    play = false;
    cfe0:	10 92 de 09 	sts	0x09DE, r1	; 0x8009de <play>
    finished = false;
    cfe4:	10 92 96 0a 	sts	0x0A96, r1	; 0x800a96 <finished>
    cfe8:	6a cf       	rjmp	.-300    	; 0xcebe <main+0x236>
   
    };  
 
};

if (lives <= 0 ) showgameover();   
    cfea:	80 91 51 0a 	lds	r24, 0x0A51	; 0x800a51 <lives>
    cfee:	81 11       	cpse	r24, r1
    cff0:	02 c0       	rjmp	.+4      	; 0xcff6 <main+0x36e>
    cff2:	0e 94 4b 65 	call	0xca96	; 0xca96 <showgameover>

if  (level > maxlevel  ) 
    cff6:	80 91 dd 09 	lds	r24, 0x09DD	; 0x8009dd <level>
    cffa:	8a 30       	cpi	r24, 0x0A	; 10
    cffc:	08 f4       	brcc	.+2      	; 0xd000 <main+0x378>
    cffe:	db ce       	rjmp	.-586    	; 0xcdb6 <main+0x12e>
{   showcongratulation();
    d000:	0e 94 f3 65 	call	0xcbe6	; 0xcbe6 <showcongratulation>
    isplaying = false; 
    d004:	10 92 97 0a 	sts	0x0A97, r1	; 0x800a97 <isplaying>
    play = false;
    d008:	10 92 de 09 	sts	0x09DE, r1	; 0x8009de <play>
    finished = false;
    d00c:	10 92 96 0a 	sts	0x0A96, r1	; 0x800a96 <finished>
    lives = 0;
    d010:	10 92 51 0a 	sts	0x0A51, r1	; 0x800a51 <lives>
    d014:	d0 ce       	rjmp	.-608    	; 0xcdb6 <main+0x12e>
 
};
};
};
StopSong();
    d016:	0e 94 0d 43 	call	0x861a	; 0x861a <StopSong>

    
};
    d01a:	64 ce       	rjmp	.-824    	; 0xcce4 <main+0x5c>

0000d01c <__udivmodhi4>:
    d01c:	aa 1b       	sub	r26, r26
    d01e:	bb 1b       	sub	r27, r27
    d020:	51 e1       	ldi	r21, 0x11	; 17
    d022:	07 c0       	rjmp	.+14     	; 0xd032 <__udivmodhi4_ep>

0000d024 <__udivmodhi4_loop>:
    d024:	aa 1f       	adc	r26, r26
    d026:	bb 1f       	adc	r27, r27
    d028:	a6 17       	cp	r26, r22
    d02a:	b7 07       	cpc	r27, r23
    d02c:	10 f0       	brcs	.+4      	; 0xd032 <__udivmodhi4_ep>
    d02e:	a6 1b       	sub	r26, r22
    d030:	b7 0b       	sbc	r27, r23

0000d032 <__udivmodhi4_ep>:
    d032:	88 1f       	adc	r24, r24
    d034:	99 1f       	adc	r25, r25
    d036:	5a 95       	dec	r21
    d038:	a9 f7       	brne	.-22     	; 0xd024 <__udivmodhi4_loop>
    d03a:	80 95       	com	r24
    d03c:	90 95       	com	r25
    d03e:	bc 01       	movw	r22, r24
    d040:	cd 01       	movw	r24, r26
    d042:	08 95       	ret

0000d044 <__divmodhi4>:
    d044:	97 fb       	bst	r25, 7
    d046:	07 2e       	mov	r0, r23
    d048:	16 f4       	brtc	.+4      	; 0xd04e <__divmodhi4+0xa>
    d04a:	00 94       	com	r0
    d04c:	07 d0       	rcall	.+14     	; 0xd05c <__divmodhi4_neg1>
    d04e:	77 fd       	sbrc	r23, 7
    d050:	09 d0       	rcall	.+18     	; 0xd064 <__divmodhi4_neg2>
    d052:	0e 94 0e 68 	call	0xd01c	; 0xd01c <__udivmodhi4>
    d056:	07 fc       	sbrc	r0, 7
    d058:	05 d0       	rcall	.+10     	; 0xd064 <__divmodhi4_neg2>
    d05a:	3e f4       	brtc	.+14     	; 0xd06a <__divmodhi4_exit>

0000d05c <__divmodhi4_neg1>:
    d05c:	90 95       	com	r25
    d05e:	81 95       	neg	r24
    d060:	9f 4f       	sbci	r25, 0xFF	; 255
    d062:	08 95       	ret

0000d064 <__divmodhi4_neg2>:
    d064:	70 95       	com	r23
    d066:	61 95       	neg	r22
    d068:	7f 4f       	sbci	r23, 0xFF	; 255

0000d06a <__divmodhi4_exit>:
    d06a:	08 95       	ret

0000d06c <__udivmodsi4>:
    d06c:	a1 e2       	ldi	r26, 0x21	; 33
    d06e:	1a 2e       	mov	r1, r26
    d070:	aa 1b       	sub	r26, r26
    d072:	bb 1b       	sub	r27, r27
    d074:	fd 01       	movw	r30, r26
    d076:	0d c0       	rjmp	.+26     	; 0xd092 <__udivmodsi4_ep>

0000d078 <__udivmodsi4_loop>:
    d078:	aa 1f       	adc	r26, r26
    d07a:	bb 1f       	adc	r27, r27
    d07c:	ee 1f       	adc	r30, r30
    d07e:	ff 1f       	adc	r31, r31
    d080:	a2 17       	cp	r26, r18
    d082:	b3 07       	cpc	r27, r19
    d084:	e4 07       	cpc	r30, r20
    d086:	f5 07       	cpc	r31, r21
    d088:	20 f0       	brcs	.+8      	; 0xd092 <__udivmodsi4_ep>
    d08a:	a2 1b       	sub	r26, r18
    d08c:	b3 0b       	sbc	r27, r19
    d08e:	e4 0b       	sbc	r30, r20
    d090:	f5 0b       	sbc	r31, r21

0000d092 <__udivmodsi4_ep>:
    d092:	66 1f       	adc	r22, r22
    d094:	77 1f       	adc	r23, r23
    d096:	88 1f       	adc	r24, r24
    d098:	99 1f       	adc	r25, r25
    d09a:	1a 94       	dec	r1
    d09c:	69 f7       	brne	.-38     	; 0xd078 <__udivmodsi4_loop>
    d09e:	60 95       	com	r22
    d0a0:	70 95       	com	r23
    d0a2:	80 95       	com	r24
    d0a4:	90 95       	com	r25
    d0a6:	9b 01       	movw	r18, r22
    d0a8:	ac 01       	movw	r20, r24
    d0aa:	bd 01       	movw	r22, r26
    d0ac:	cf 01       	movw	r24, r30
    d0ae:	08 95       	ret

0000d0b0 <__itoa_ncheck>:
    d0b0:	bb 27       	eor	r27, r27
    d0b2:	4a 30       	cpi	r20, 0x0A	; 10
    d0b4:	31 f4       	brne	.+12     	; 0xd0c2 <__itoa_ncheck+0x12>
    d0b6:	99 23       	and	r25, r25
    d0b8:	22 f4       	brpl	.+8      	; 0xd0c2 <__itoa_ncheck+0x12>
    d0ba:	bd e2       	ldi	r27, 0x2D	; 45
    d0bc:	90 95       	com	r25
    d0be:	81 95       	neg	r24
    d0c0:	9f 4f       	sbci	r25, 0xFF	; 255
    d0c2:	0c 94 64 68 	jmp	0xd0c8	; 0xd0c8 <__utoa_common>

0000d0c6 <__utoa_ncheck>:
    d0c6:	bb 27       	eor	r27, r27

0000d0c8 <__utoa_common>:
    d0c8:	fb 01       	movw	r30, r22
    d0ca:	55 27       	eor	r21, r21
    d0cc:	aa 27       	eor	r26, r26
    d0ce:	88 0f       	add	r24, r24
    d0d0:	99 1f       	adc	r25, r25
    d0d2:	aa 1f       	adc	r26, r26
    d0d4:	a4 17       	cp	r26, r20
    d0d6:	10 f0       	brcs	.+4      	; 0xd0dc <__utoa_common+0x14>
    d0d8:	a4 1b       	sub	r26, r20
    d0da:	83 95       	inc	r24
    d0dc:	50 51       	subi	r21, 0x10	; 16
    d0de:	b9 f7       	brne	.-18     	; 0xd0ce <__utoa_common+0x6>
    d0e0:	a0 5d       	subi	r26, 0xD0	; 208
    d0e2:	aa 33       	cpi	r26, 0x3A	; 58
    d0e4:	08 f0       	brcs	.+2      	; 0xd0e8 <__utoa_common+0x20>
    d0e6:	a9 5d       	subi	r26, 0xD9	; 217
    d0e8:	a1 93       	st	Z+, r26
    d0ea:	00 97       	sbiw	r24, 0x00	; 0
    d0ec:	79 f7       	brne	.-34     	; 0xd0cc <__utoa_common+0x4>
    d0ee:	b1 11       	cpse	r27, r1
    d0f0:	b1 93       	st	Z+, r27
    d0f2:	11 92       	st	Z+, r1
    d0f4:	cb 01       	movw	r24, r22
    d0f6:	0c 94 7d 68 	jmp	0xd0fa	; 0xd0fa <strrev>

0000d0fa <strrev>:
    d0fa:	dc 01       	movw	r26, r24
    d0fc:	fc 01       	movw	r30, r24
    d0fe:	67 2f       	mov	r22, r23
    d100:	71 91       	ld	r23, Z+
    d102:	77 23       	and	r23, r23
    d104:	e1 f7       	brne	.-8      	; 0xd0fe <strrev+0x4>
    d106:	32 97       	sbiw	r30, 0x02	; 2
    d108:	04 c0       	rjmp	.+8      	; 0xd112 <strrev+0x18>
    d10a:	7c 91       	ld	r23, X
    d10c:	6d 93       	st	X+, r22
    d10e:	70 83       	st	Z, r23
    d110:	62 91       	ld	r22, -Z
    d112:	ae 17       	cp	r26, r30
    d114:	bf 07       	cpc	r27, r31
    d116:	c8 f3       	brcs	.-14     	; 0xd10a <strrev+0x10>
    d118:	08 95       	ret

0000d11a <_exit>:
    d11a:	f8 94       	cli

0000d11c <__stop_program>:
    d11c:	ff cf       	rjmp	.-2      	; 0xd11c <__stop_program>
